SF:/home/eastgate/Development/ecoPrimals/nestgate/code/crates/nestgate-api/src/error.rs
FN:83,_RNvXs0_NtCs5HKDRulWIag_12nestgate_api5errorNtB5_8ApiErrorNtNtNtCsksr4BzYgiPp_9axum_core8response13into_response12IntoResponse13into_response
FN:210,_RNvNtNtCs5HKDRulWIag_12nestgate_api5error5testss_22test_api_error_from_io
FN:223,_RNvNtNtCs5HKDRulWIag_12nestgate_api5error5testss_24test_api_error_from_json
FN:281,_RNvNtNtCs5HKDRulWIag_12nestgate_api5error5testss_24test_api_error_source_io
FN:250,_RNvNtNtCs5HKDRulWIag_12nestgate_api5error5testss_25test_api_error_display_io
FN:259,_RNvNtNtCs5HKDRulWIag_12nestgate_api5error5testss_27test_api_error_display_json
FN:151,_RNvNtNtCs5HKDRulWIag_12nestgate_api5error5testss_29test_error_response_structure
FN:367,_RNvNtNtCs5HKDRulWIag_12nestgate_api5error5testss_29test_multiple_error_responses
FN:353,_RNvNtNtCs5HKDRulWIag_12nestgate_api5error5testss_30test_api_error_from_core_error
FN:196,_RNvNtNtCs5HKDRulWIag_12nestgate_api5error5testss_31test_api_error_display_internal
FN:295,_RNvNtNtCs5HKDRulWIag_12nestgate_api5error5testss_31test_api_error_source_not_found
FN:189,_RNvNtNtCs5HKDRulWIag_12nestgate_api5error5testss_32test_api_error_display_not_found
FN:236,_RNvNtNtCs5HKDRulWIag_12nestgate_api5error5testss_32test_error_response_with_details
FN:165,_RNvNtNtCs5HKDRulWIag_12nestgate_api5error5testss_33test_error_response_serialization
FN:301,_RNvNtNtCs5HKDRulWIag_12nestgate_api5error5testss_35test_api_error_all_variants_display
FN:316,_RNvNtNtCs5HKDRulWIag_12nestgate_api5error5testss_35test_error_response_deserialization
FN:267,_RNvNtNtCs5HKDRulWIag_12nestgate_api5error5testss_36test_error_response_timestamp_recent
FN:289,_RNvNtNtCs5HKDRulWIag_12nestgate_api5error5testss_37test_api_error_source_invalid_request
FN:182,_RNvNtNtCs5HKDRulWIag_12nestgate_api5error5testss_38test_api_error_display_invalid_request
FN:388,_RNvNtNtCs5HKDRulWIag_12nestgate_api5error5testss_39test_error_response_empty_error_message
FN:332,_RNvNtNtCs5HKDRulWIag_12nestgate_api5error5testss_40test_error_response_with_complex_details
FN:203,_RNvNtNtCs5HKDRulWIag_12nestgate_api5error5testss_42test_api_error_display_service_unavailable
FN:55,_RNvXNtCs5HKDRulWIag_12nestgate_api5errorNtB2_8ApiErrorNtNtCs5GmCzIpY9Qj_4core3fmt7Display3fmt
FN:128,_RNvXs1_NtCs5HKDRulWIag_12nestgate_api5errorNtB5_8ApiErrorINtNtCs5GmCzIpY9Qj_4core7convert4FromNtNtNtNtCserJaDiv4hKx_13nestgate_core5error8variants11core_errors20NestGateUnifiedErrorE4from
FN:134,_RNvXs2_NtCs5HKDRulWIag_12nestgate_api5errorNtB5_8ApiErrorINtNtCs5GmCzIpY9Qj_4core7convert4FromNtNtNtCscKkwsb9kWaL_3std2io5error5ErrorE4from
FN:140,_RNvXs3_NtCs5HKDRulWIag_12nestgate_api5errorNtB5_8ApiErrorINtNtCs5GmCzIpY9Qj_4core7convert4FromNtNtCs3T2AbaJLHd5_10serde_json5error5ErrorE4from
FN:72,_RNvXs_NtCs5HKDRulWIag_12nestgate_api5errorNtB4_8ApiErrorNtNtCs5GmCzIpY9Qj_4core5error5Error6source
FNDA:0,_RNvXs0_NtCs5HKDRulWIag_12nestgate_api5errorNtB5_8ApiErrorNtNtNtCsksr4BzYgiPp_9axum_core8response13into_response12IntoResponse13into_response
FNDA:1,_RNvNtNtCs5HKDRulWIag_12nestgate_api5error5testss_22test_api_error_from_io
FNDA:1,_RNvNtNtCs5HKDRulWIag_12nestgate_api5error5testss_24test_api_error_from_json
FNDA:1,_RNvNtNtCs5HKDRulWIag_12nestgate_api5error5testss_24test_api_error_source_io
FNDA:1,_RNvNtNtCs5HKDRulWIag_12nestgate_api5error5testss_25test_api_error_display_io
FNDA:1,_RNvNtNtCs5HKDRulWIag_12nestgate_api5error5testss_27test_api_error_display_json
FNDA:1,_RNvNtNtCs5HKDRulWIag_12nestgate_api5error5testss_29test_error_response_structure
FNDA:1,_RNvNtNtCs5HKDRulWIag_12nestgate_api5error5testss_29test_multiple_error_responses
FNDA:1,_RNvNtNtCs5HKDRulWIag_12nestgate_api5error5testss_30test_api_error_from_core_error
FNDA:1,_RNvNtNtCs5HKDRulWIag_12nestgate_api5error5testss_31test_api_error_display_internal
FNDA:1,_RNvNtNtCs5HKDRulWIag_12nestgate_api5error5testss_31test_api_error_source_not_found
FNDA:1,_RNvNtNtCs5HKDRulWIag_12nestgate_api5error5testss_32test_api_error_display_not_found
FNDA:1,_RNvNtNtCs5HKDRulWIag_12nestgate_api5error5testss_32test_error_response_with_details
FNDA:1,_RNvNtNtCs5HKDRulWIag_12nestgate_api5error5testss_33test_error_response_serialization
FNDA:1,_RNvNtNtCs5HKDRulWIag_12nestgate_api5error5testss_35test_api_error_all_variants_display
FNDA:1,_RNvNtNtCs5HKDRulWIag_12nestgate_api5error5testss_35test_error_response_deserialization
FNDA:1,_RNvNtNtCs5HKDRulWIag_12nestgate_api5error5testss_36test_error_response_timestamp_recent
FNDA:1,_RNvNtNtCs5HKDRulWIag_12nestgate_api5error5testss_37test_api_error_source_invalid_request
FNDA:1,_RNvNtNtCs5HKDRulWIag_12nestgate_api5error5testss_38test_api_error_display_invalid_request
FNDA:1,_RNvNtNtCs5HKDRulWIag_12nestgate_api5error5testss_39test_error_response_empty_error_message
FNDA:1,_RNvNtNtCs5HKDRulWIag_12nestgate_api5error5testss_40test_error_response_with_complex_details
FNDA:1,_RNvNtNtCs5HKDRulWIag_12nestgate_api5error5testss_42test_api_error_display_service_unavailable
FNDA:10,_RNvXNtCs5HKDRulWIag_12nestgate_api5errorNtB2_8ApiErrorNtNtCs5GmCzIpY9Qj_4core3fmt7Display3fmt
FNDA:1,_RNvXs1_NtCs5HKDRulWIag_12nestgate_api5errorNtB5_8ApiErrorINtNtCs5GmCzIpY9Qj_4core7convert4FromNtNtNtNtCserJaDiv4hKx_13nestgate_core5error8variants11core_errors20NestGateUnifiedErrorE4from
FNDA:1,_RNvXs2_NtCs5HKDRulWIag_12nestgate_api5errorNtB5_8ApiErrorINtNtCs5GmCzIpY9Qj_4core7convert4FromNtNtNtCscKkwsb9kWaL_3std2io5error5ErrorE4from
FNDA:1,_RNvXs3_NtCs5HKDRulWIag_12nestgate_api5errorNtB5_8ApiErrorINtNtCs5GmCzIpY9Qj_4core7convert4FromNtNtCs3T2AbaJLHd5_10serde_json5error5ErrorE4from
FNDA:3,_RNvXs_NtCs5HKDRulWIag_12nestgate_api5errorNtB4_8ApiErrorNtNtCs5GmCzIpY9Qj_4core5error5Error6source
FNF:27
FNH:26
DA:55,10
DA:56,10
DA:57,0
DA:58,1
DA:59,1
DA:60,2
DA:61,2
DA:62,2
DA:63,2
DA:64,0
DA:65,0
DA:68,10
DA:72,3
DA:73,3
DA:74,0
DA:75,1
DA:76,0
DA:77,2
DA:79,3
DA:83,0
DA:84,0
DA:85,0
DA:86,0
DA:87,0
DA:88,0
DA:89,0
DA:90,0
DA:91,0
DA:92,0
DA:93,0
DA:94,0
DA:95,0
DA:96,0
DA:97,0
DA:98,0
DA:99,0
DA:100,0
DA:101,0
DA:102,0
DA:103,0
DA:104,0
DA:105,0
DA:106,0
DA:107,0
DA:108,0
DA:109,0
DA:110,0
DA:111,0
DA:112,0
DA:115,0
DA:116,0
DA:117,0
DA:118,0
DA:119,0
DA:120,0
DA:122,0
DA:123,0
DA:128,1
DA:129,1
DA:130,1
DA:134,1
DA:135,1
DA:136,1
DA:140,1
DA:141,1
DA:142,1
DA:151,1
DA:152,1
DA:153,1
DA:154,1
DA:155,1
DA:156,1
DA:157,1
DA:159,1
DA:160,1
DA:161,1
DA:162,1
DA:165,1
DA:166,1
DA:167,1
DA:168,1
DA:169,1
DA:170,1
DA:171,1
DA:173,1
DA:174,1
DA:176,1
DA:177,1
DA:178,1
DA:179,1
DA:182,1
DA:183,1
DA:184,1
DA:185,1
DA:186,1
DA:189,1
DA:190,1
DA:191,1
DA:192,1
DA:193,1
DA:196,1
DA:197,1
DA:198,1
DA:199,1
DA:200,1
DA:203,1
DA:204,1
DA:205,1
DA:206,1
DA:207,1
DA:210,1
DA:211,1
DA:212,1
DA:214,1
DA:215,1
DA:216,1
DA:217,1
DA:218,0
DA:220,1
DA:223,1
DA:224,1
DA:225,1
DA:227,1
DA:228,1
DA:229,1
DA:230,1
DA:231,0
DA:233,1
DA:236,1
DA:237,1
DA:238,1
DA:239,1
DA:240,1
DA:241,1
DA:242,1
DA:243,1
DA:245,1
DA:246,1
DA:247,1
DA:250,1
DA:251,1
DA:252,1
DA:253,1
DA:254,1
DA:255,1
DA:256,1
DA:259,1
DA:260,1
DA:261,1
DA:262,1
DA:263,1
DA:264,1
DA:267,1
DA:268,1
DA:269,1
DA:270,1
DA:271,1
DA:272,1
DA:273,1
DA:274,1
DA:276,1
DA:277,1
DA:278,1
DA:281,1
DA:282,1
DA:283,1
DA:285,1
DA:286,1
DA:289,1
DA:290,1
DA:291,1
DA:292,1
DA:295,1
DA:296,1
DA:297,1
DA:298,1
DA:301,1
DA:302,1
DA:303,1
DA:304,1
DA:305,1
DA:306,1
DA:309,5
DA:310,4
DA:311,4
DA:313,1
DA:316,1
DA:317,1
DA:318,1
DA:319,1
DA:320,1
DA:321,1
DA:322,1
DA:324,1
DA:325,1
DA:326,1
DA:327,1
DA:328,1
DA:329,1
DA:332,1
DA:333,1
DA:334,1
DA:335,1
DA:336,1
DA:340,1
DA:341,1
DA:342,1
DA:343,1
DA:344,1
DA:345,1
DA:347,1
DA:348,1
DA:349,1
DA:350,1
DA:353,1
DA:354,1
DA:355,1
DA:356,1
DA:359,1
DA:360,1
DA:361,1
DA:362,0
DA:364,1
DA:367,1
DA:368,1
DA:369,1
DA:370,1
DA:371,1
DA:372,1
DA:373,1
DA:374,1
DA:375,1
DA:376,1
DA:377,1
DA:378,1
DA:379,1
DA:380,1
DA:383,1
DA:384,1
DA:385,1
DA:388,1
DA:389,1
DA:390,1
DA:391,1
DA:392,1
DA:393,1
DA:394,1
DA:396,1
DA:397,1
BRF:0
BRH:0
LF:249
LH:203
end_of_record
SF:/home/eastgate/Development/ecoPrimals/nestgate/code/crates/nestgate-api/src/handlers/ai_first_example.rs
FN:106,_RINvNtNtCs5HKDRulWIag_12nestgate_api8handlers16ai_first_example24ai_response_with_actionspEB6_
FN:96,_RINvNtNtCs5HKDRulWIag_12nestgate_api8handlers16ai_first_example26ai_success_with_confidencepEB6_
FN:191,_RNCNCNvNtNtCs5HKDRulWIag_12nestgate_api8handlers16ai_first_example16get_storage_info00B9_
FN:250,_RNCNvNtNtCs5HKDRulWIag_12nestgate_api8handlers16ai_first_example13get_pool_info0B7_
FN:44,_RNCNvNtNtCs5HKDRulWIag_12nestgate_api8handlers16ai_first_example15example_handler0B7_
FN:167,_RNCNvNtNtCs5HKDRulWIag_12nestgate_api8handlers16ai_first_example16get_storage_info0B7_
FN:389,_RNCNvNtNtCs5HKDRulWIag_12nestgate_api8handlers16ai_first_example22demo_confidence_levels0B7_
FN:427,_RNCNvNtNtCs5HKDRulWIag_12nestgate_api8handlers16ai_first_example22demo_suggested_actions0B7_
FN:328,_RNCNvNtNtCs5HKDRulWIag_12nestgate_api8handlers16ai_first_example25execute_storage_operation0B7_
FN:150,_RNvNtNtCs5HKDRulWIag_12nestgate_api8handlers16ai_first_example13create_routes
FN:248,_RNvNtNtCs5HKDRulWIag_12nestgate_api8handlers16ai_first_example13get_pool_info
FN:550,_RNvNtNtCs5HKDRulWIag_12nestgate_api8handlers16ai_first_example14ai_pool_status
FN:39,_RNvNtNtCs5HKDRulWIag_12nestgate_api8handlers16ai_first_example14create_handler
FN:44,_RNvNtNtCs5HKDRulWIag_12nestgate_api8handlers16ai_first_example15example_handler
FN:165,_RNvNtNtCs5HKDRulWIag_12nestgate_api8handlers16ai_first_example16get_storage_info
FN:535,_RNvNtNtCs5HKDRulWIag_12nestgate_api8handlers16ai_first_example17ai_pool_operation
FN:389,_RNvNtNtCs5HKDRulWIag_12nestgate_api8handlers16ai_first_example22demo_confidence_levels
FN:427,_RNvNtNtCs5HKDRulWIag_12nestgate_api8handlers16ai_first_example22demo_suggested_actions
FN:326,_RNvNtNtCs5HKDRulWIag_12nestgate_api8handlers16ai_first_example25execute_storage_operation
FN:526,_RNvXININtNtCs5HKDRulWIag_12nestgate_api8handlers16ai_first_example0pEINtB5_15AIFirstResponsepEINtB5_18AIFirstResponseExtpE15with_confidenceB9_
FNDA:0,_RINvNtNtCs5HKDRulWIag_12nestgate_api8handlers16ai_first_example24ai_response_with_actionspEB6_
FNDA:0,_RINvNtNtCs5HKDRulWIag_12nestgate_api8handlers16ai_first_example26ai_success_with_confidencepEB6_
FNDA:0,_RNCNCNvNtNtCs5HKDRulWIag_12nestgate_api8handlers16ai_first_example16get_storage_info00B9_
FNDA:0,_RNCNvNtNtCs5HKDRulWIag_12nestgate_api8handlers16ai_first_example13get_pool_info0B7_
FNDA:0,_RNCNvNtNtCs5HKDRulWIag_12nestgate_api8handlers16ai_first_example15example_handler0B7_
FNDA:0,_RNCNvNtNtCs5HKDRulWIag_12nestgate_api8handlers16ai_first_example16get_storage_info0B7_
FNDA:0,_RNCNvNtNtCs5HKDRulWIag_12nestgate_api8handlers16ai_first_example22demo_confidence_levels0B7_
FNDA:0,_RNCNvNtNtCs5HKDRulWIag_12nestgate_api8handlers16ai_first_example22demo_suggested_actions0B7_
FNDA:0,_RNCNvNtNtCs5HKDRulWIag_12nestgate_api8handlers16ai_first_example25execute_storage_operation0B7_
FNDA:0,_RNvNtNtCs5HKDRulWIag_12nestgate_api8handlers16ai_first_example13create_routes
FNDA:0,_RNvNtNtCs5HKDRulWIag_12nestgate_api8handlers16ai_first_example13get_pool_info
FNDA:0,_RNvNtNtCs5HKDRulWIag_12nestgate_api8handlers16ai_first_example14ai_pool_status
FNDA:0,_RNvNtNtCs5HKDRulWIag_12nestgate_api8handlers16ai_first_example14create_handler
FNDA:0,_RNvNtNtCs5HKDRulWIag_12nestgate_api8handlers16ai_first_example15example_handler
FNDA:0,_RNvNtNtCs5HKDRulWIag_12nestgate_api8handlers16ai_first_example16get_storage_info
FNDA:0,_RNvNtNtCs5HKDRulWIag_12nestgate_api8handlers16ai_first_example17ai_pool_operation
FNDA:0,_RNvNtNtCs5HKDRulWIag_12nestgate_api8handlers16ai_first_example22demo_confidence_levels
FNDA:0,_RNvNtNtCs5HKDRulWIag_12nestgate_api8handlers16ai_first_example22demo_suggested_actions
FNDA:0,_RNvNtNtCs5HKDRulWIag_12nestgate_api8handlers16ai_first_example25execute_storage_operation
FNDA:0,_RNvXININtNtCs5HKDRulWIag_12nestgate_api8handlers16ai_first_example0pEINtB5_15AIFirstResponsepEINtB5_18AIFirstResponseExtpE15with_confidenceB9_
FNF:20
FNH:0
DA:39,0
DA:40,0
DA:41,0
DA:44,0
DA:45,0
DA:46,0
DA:47,0
DA:48,0
DA:49,0
DA:50,0
DA:51,0
DA:96,0
DA:97,0
DA:98,0
DA:99,0
DA:100,0
DA:101,0
DA:102,0
DA:103,0
DA:106,0
DA:107,0
DA:108,0
DA:109,0
DA:110,0
DA:111,0
DA:112,0
DA:113,0
DA:150,0
DA:151,0
DA:152,0
DA:153,0
DA:154,0
DA:155,0
DA:156,0
DA:158,0
DA:159,0
DA:160,0
DA:165,0
DA:166,0
DA:167,0
DA:169,0
DA:170,0
DA:171,0
DA:172,0
DA:173,0
DA:174,0
DA:175,0
DA:176,0
DA:177,0
DA:178,0
DA:179,0
DA:180,0
DA:181,0
DA:182,0
DA:183,0
DA:184,0
DA:185,0
DA:188,0
DA:189,0
DA:190,0
DA:191,0
DA:192,0
DA:194,0
DA:198,0
DA:199,0
DA:248,0
DA:249,0
DA:250,0
DA:252,0
DA:253,0
DA:254,0
DA:255,0
DA:256,0
DA:257,0
DA:258,0
DA:259,0
DA:260,0
DA:261,0
DA:262,0
DA:263,0
DA:264,0
DA:265,0
DA:266,0
DA:267,0
DA:268,0
DA:269,0
DA:271,0
DA:274,0
DA:275,0
DA:276,0
DA:277,0
DA:279,0
DA:282,0
DA:283,0
DA:284,0
DA:285,0
DA:286,0
DA:287,0
DA:288,0
DA:289,0
DA:290,0
DA:291,0
DA:294,0
DA:295,0
DA:296,0
DA:297,0
DA:298,0
DA:299,0
DA:300,0
DA:301,0
DA:302,0
DA:303,0
DA:304,0
DA:305,0
DA:306,0
DA:307,0
DA:308,0
DA:309,0
DA:310,0
DA:311,0
DA:312,0
DA:314,0
DA:318,0
DA:322,0
DA:323,0
DA:326,0
DA:327,0
DA:328,0
DA:330,0
DA:331,0
DA:332,0
DA:334,0
DA:335,0
DA:336,0
DA:337,0
DA:338,0
DA:339,0
DA:340,0
DA:341,0
DA:342,0
DA:343,0
DA:344,0
DA:345,0
DA:346,0
DA:347,0
DA:348,0
DA:349,0
DA:350,0
DA:351,0
DA:352,0
DA:353,0
DA:354,0
DA:355,0
DA:357,0
DA:358,0
DA:359,0
DA:361,0
DA:362,0
DA:364,0
DA:365,0
DA:366,0
DA:367,0
DA:368,0
DA:369,0
DA:370,0
DA:371,0
DA:372,0
DA:373,0
DA:375,0
DA:380,0
DA:381,0
DA:385,0
DA:386,0
DA:389,0
DA:390,0
DA:391,0
DA:392,0
DA:393,0
DA:394,0
DA:395,0
DA:396,0
DA:397,0
DA:398,0
DA:399,0
DA:400,0
DA:401,0
DA:402,0
DA:403,0
DA:404,0
DA:405,0
DA:406,0
DA:407,0
DA:408,0
DA:409,0
DA:410,0
DA:412,0
DA:413,0
DA:414,0
DA:415,0
DA:416,0
DA:417,0
DA:418,0
DA:419,0
DA:420,0
DA:421,0
DA:423,0
DA:424,0
DA:427,0
DA:428,0
DA:429,0
DA:430,0
DA:431,0
DA:432,0
DA:433,0
DA:434,0
DA:435,0
DA:436,0
DA:437,0
DA:438,0
DA:439,0
DA:440,0
DA:441,0
DA:442,0
DA:443,0
DA:444,0
DA:445,0
DA:446,0
DA:447,0
DA:448,0
DA:450,0
DA:451,0
DA:452,0
DA:453,0
DA:454,0
DA:455,0
DA:456,0
DA:457,0
DA:458,0
DA:459,0
DA:460,0
DA:461,0
DA:462,0
DA:463,0
DA:464,0
DA:465,0
DA:466,0
DA:467,0
DA:468,0
DA:469,0
DA:470,0
DA:471,0
DA:472,0
DA:473,0
DA:474,0
DA:475,0
DA:476,0
DA:477,0
DA:478,0
DA:479,0
DA:480,0
DA:481,0
DA:482,0
DA:483,0
DA:484,0
DA:485,0
DA:486,0
DA:487,0
DA:488,0
DA:489,0
DA:490,0
DA:493,0
DA:494,0
DA:526,0
DA:527,0
DA:528,0
DA:529,0
DA:535,0
DA:536,0
DA:537,0
DA:539,0
DA:540,0
DA:544,0
DA:545,0
DA:550,0
DA:552,0
DA:553,0
DA:554,0
DA:555,0
DA:556,0
DA:557,0
DA:558,0
DA:559,0
DA:561,0
DA:562,0
BRF:0
BRH:0
LF:301
LH:0
end_of_record
SF:/home/eastgate/Development/ecoPrimals/nestgate/code/crates/nestgate-api/src/handlers/auth.rs
FN:239,_RNvNtNtNtCs5HKDRulWIag_12nestgate_api8handlers4auth5testss_26test_auth_service_creation
FN:252,_RNvNtNtNtCs5HKDRulWIag_12nestgate_api8handlers4auth5testss_28test_auth_service_get_status
FN:260,_RNvNtNtNtCs5HKDRulWIag_12nestgate_api8handlers4auth5testss_30test_authenticate_returns_true
FN:246,_RNvNtNtNtCs5HKDRulWIag_12nestgate_api8handlers4auth5testss_36test_auth_service_security_available
FN:154,_RNCNvNtNtCs5HKDRulWIag_12nestgate_api8handlers4auth10get_status0B7_
FN:311,_RNCNvNtNtCs5HKDRulWIag_12nestgate_api8handlers4auth15get_auth_status0B7_
FN:278,_RNCNvNtNtCs5HKDRulWIag_12nestgate_api8handlers4auth17authenticate_user0B7_
FN:318,_RNCNvNtNtCs5HKDRulWIag_12nestgate_api8handlers4auth19get_security_status0B7_
FN:117,_RNCNvNtNtCs5HKDRulWIag_12nestgate_api8handlers4auth5login0B7_
FN:162,_RNCNvNtNtCs5HKDRulWIag_12nestgate_api8handlers4auth8set_mode0B7_
FN:154,_RNvNtNtCs5HKDRulWIag_12nestgate_api8handlers4auth10get_status
FN:107,_RNvNtNtCs5HKDRulWIag_12nestgate_api8handlers4auth11auth_router
FN:309,_RNvNtNtCs5HKDRulWIag_12nestgate_api8handlers4auth15get_auth_status
FN:275,_RNvNtNtCs5HKDRulWIag_12nestgate_api8handlers4auth17authenticate_user
FN:316,_RNvNtNtCs5HKDRulWIag_12nestgate_api8handlers4auth19get_security_status
FN:114,_RNvNtNtCs5HKDRulWIag_12nestgate_api8handlers4auth5login
FN:159,_RNvNtNtCs5HKDRulWIag_12nestgate_api8handlers4auth8set_mode
FN:226,_RNvXs_NtNtCs5HKDRulWIag_12nestgate_api8handlers4authNtB4_16AppStateWithAuthINtNtCs5GmCzIpY9Qj_4core7convert4FromNtNtB8_6routes8AppStateE4from
FN:29,_RNvMNtNtCs5HKDRulWIag_12nestgate_api8handlers4authNtB2_11AuthService12authenticate
FN:37,_RNvMNtNtCs5HKDRulWIag_12nestgate_api8handlers4authNtB2_11AuthService15get_auth_status
FN:45,_RNvMNtNtCs5HKDRulWIag_12nestgate_api8handlers4authNtB2_11AuthService25security_primal_available
FN:23,_RNvMNtNtCs5HKDRulWIag_12nestgate_api8handlers4authNtB2_11AuthService3new
FN:50,_RNvMNtNtCs5HKDRulWIag_12nestgate_api8handlers4authNtB2_11AuthService8get_mode
FNDA:1,_RNvNtNtNtCs5HKDRulWIag_12nestgate_api8handlers4auth5testss_26test_auth_service_creation
FNDA:1,_RNvNtNtNtCs5HKDRulWIag_12nestgate_api8handlers4auth5testss_28test_auth_service_get_status
FNDA:1,_RNvNtNtNtCs5HKDRulWIag_12nestgate_api8handlers4auth5testss_30test_authenticate_returns_true
FNDA:1,_RNvNtNtNtCs5HKDRulWIag_12nestgate_api8handlers4auth5testss_36test_auth_service_security_available
FNDA:0,_RNCNvNtNtCs5HKDRulWIag_12nestgate_api8handlers4auth10get_status0B7_
FNDA:0,_RNCNvNtNtCs5HKDRulWIag_12nestgate_api8handlers4auth15get_auth_status0B7_
FNDA:0,_RNCNvNtNtCs5HKDRulWIag_12nestgate_api8handlers4auth17authenticate_user0B7_
FNDA:0,_RNCNvNtNtCs5HKDRulWIag_12nestgate_api8handlers4auth19get_security_status0B7_
FNDA:0,_RNCNvNtNtCs5HKDRulWIag_12nestgate_api8handlers4auth5login0B7_
FNDA:0,_RNCNvNtNtCs5HKDRulWIag_12nestgate_api8handlers4auth8set_mode0B7_
FNDA:0,_RNvNtNtCs5HKDRulWIag_12nestgate_api8handlers4auth10get_status
FNDA:0,_RNvNtNtCs5HKDRulWIag_12nestgate_api8handlers4auth11auth_router
FNDA:0,_RNvNtNtCs5HKDRulWIag_12nestgate_api8handlers4auth15get_auth_status
FNDA:0,_RNvNtNtCs5HKDRulWIag_12nestgate_api8handlers4auth17authenticate_user
FNDA:0,_RNvNtNtCs5HKDRulWIag_12nestgate_api8handlers4auth19get_security_status
FNDA:0,_RNvNtNtCs5HKDRulWIag_12nestgate_api8handlers4auth5login
FNDA:0,_RNvNtNtCs5HKDRulWIag_12nestgate_api8handlers4auth8set_mode
FNDA:0,_RNvXs_NtNtCs5HKDRulWIag_12nestgate_api8handlers4authNtB4_16AppStateWithAuthINtNtCs5GmCzIpY9Qj_4core7convert4FromNtNtB8_6routes8AppStateE4from
FNDA:1,_RNvMNtNtCs5HKDRulWIag_12nestgate_api8handlers4authNtB2_11AuthService12authenticate
FNDA:2,_RNvMNtNtCs5HKDRulWIag_12nestgate_api8handlers4authNtB2_11AuthService15get_auth_status
FNDA:2,_RNvMNtNtCs5HKDRulWIag_12nestgate_api8handlers4authNtB2_11AuthService25security_primal_available
FNDA:8,_RNvMNtNtCs5HKDRulWIag_12nestgate_api8handlers4authNtB2_11AuthService3new
FNDA:2,_RNvMNtNtCs5HKDRulWIag_12nestgate_api8handlers4authNtB2_11AuthService8get_mode
FNF:23
FNH:9
DA:23,8
DA:24,8
DA:25,8
DA:26,8
DA:27,8
DA:29,1
DA:30,1
DA:31,1
DA:32,1
DA:34,1
DA:35,1
DA:37,2
DA:38,2
DA:39,2
DA:40,2
DA:41,2
DA:42,2
DA:43,2
DA:45,2
DA:47,2
DA:48,2
DA:50,2
DA:51,2
DA:52,2
DA:107,0
DA:108,0
DA:109,0
DA:110,0
DA:111,0
DA:112,0
DA:114,0
DA:115,0
DA:116,0
DA:117,0
DA:118,0
DA:119,0
DA:120,0
DA:121,0
DA:122,0
DA:123,0
DA:124,0
DA:125,0
DA:128,0
DA:129,0
DA:130,0
DA:132,0
DA:134,0
DA:135,0
DA:137,0
DA:139,0
DA:140,0
DA:142,0
DA:144,0
DA:145,0
DA:147,0
DA:149,0
DA:151,0
DA:154,0
DA:155,0
DA:156,0
DA:157,0
DA:159,0
DA:160,0
DA:161,0
DA:162,0
DA:163,0
DA:164,0
DA:165,0
DA:166,0
DA:167,0
DA:168,0
DA:169,0
DA:170,0
DA:171,0
DA:172,0
DA:173,0
DA:174,0
DA:175,0
DA:176,0
DA:178,0
DA:179,0
DA:180,0
DA:181,0
DA:182,0
DA:185,0
DA:186,0
DA:187,0
DA:188,0
DA:189,0
DA:191,0
DA:194,0
DA:195,0
DA:196,0
DA:197,0
DA:199,0
DA:203,0
DA:226,0
DA:227,0
DA:228,0
DA:229,0
DA:230,0
DA:231,0
DA:239,1
DA:240,1
DA:241,1
DA:242,1
DA:243,1
DA:246,1
DA:247,1
DA:248,1
DA:249,1
DA:252,1
DA:253,1
DA:254,1
DA:255,1
DA:256,1
DA:257,1
DA:260,1
DA:261,1
DA:262,1
DA:263,1
DA:264,1
DA:265,1
DA:266,1
DA:267,1
DA:269,1
DA:270,1
DA:271,1
DA:275,0
DA:276,0
DA:277,0
DA:278,0
DA:279,0
DA:280,0
DA:281,0
DA:282,0
DA:283,0
DA:284,0
DA:285,0
DA:286,0
DA:288,0
DA:289,0
DA:290,0
DA:291,0
DA:292,0
DA:293,0
DA:294,0
DA:295,0
DA:296,0
DA:298,0
DA:299,0
DA:300,0
DA:301,0
DA:302,0
DA:303,0
DA:304,0
DA:305,0
DA:307,0
DA:309,0
DA:310,0
DA:311,0
DA:312,0
DA:313,0
DA:314,0
DA:316,0
DA:317,0
DA:318,0
DA:319,0
DA:320,0
DA:321,0
DA:322,0
DA:323,0
DA:324,0
DA:325,0
BRF:0
BRH:0
LF:180
LH:50
end_of_record
SF:/home/eastgate/Development/ecoPrimals/nestgate/code/crates/nestgate-api/src/handlers/auth_tests.rs
FN:194,_RNvNtNtNtCs5HKDRulWIag_12nestgate_api8handlers10auth_tests5testss_20test_auth_mode_clone
FN:168,_RNvNtNtNtCs5HKDRulWIag_12nestgate_api8handlers10auth_tests5testss_23test_auth_mode_variants
FN:247,_RNvNtNtNtCs5HKDRulWIag_12nestgate_api8handlers10auth_tests5testss_25test_auth_challenge_clone
FN:107,_RNvNtNtNtCs5HKDRulWIag_12nestgate_api8handlers10auth_tests5testss_25test_auth_status_creation
FN:262,_RNvNtNtNtCs5HKDRulWIag_12nestgate_api8handlers10auth_tests5testss_26test_auth_request_creation
FN:323,_RNvNtNtNtCs5HKDRulWIag_12nestgate_api8handlers10auth_tests5testss_26test_auth_response_failure
FN:307,_RNvNtNtNtCs5HKDRulWIag_12nestgate_api8handlers10auth_tests5testss_26test_auth_response_success
FN:16,_RNvNtNtNtCs5HKDRulWIag_12nestgate_api8handlers10auth_tests5testss_26test_auth_service_creation
FN:43,_RNvNtNtNtCs5HKDRulWIag_12nestgate_api8handlers10auth_tests5testss_26test_auth_service_get_mode
FN:446,_RNvNtNtNtCs5HKDRulWIag_12nestgate_api8handlers10auth_tests5testss_27test_auth_challenge_unicode
FN:93,_RNvNtNtNtCs5HKDRulWIag_12nestgate_api8handlers10auth_tests5testss_27test_auth_credentials_clone
FN:469,_RNvNtNtNtCs5HKDRulWIag_12nestgate_api8handlers10auth_tests5testss_27test_auth_status_no_user_id
FN:203,_RNvNtNtNtCs5HKDRulWIag_12nestgate_api8handlers10auth_tests5testss_28test_auth_challenge_creation
FN:180,_RNvNtNtNtCs5HKDRulWIag_12nestgate_api8handlers10auth_tests5testss_28test_auth_mode_serialization
FN:52,_RNvNtNtNtCs5HKDRulWIag_12nestgate_api8handlers10auth_tests5testss_30test_auth_credentials_creation
FN:187,_RNvNtNtNtCs5HKDRulWIag_12nestgate_api8handlers10auth_tests5testss_30test_auth_mode_deserialization
FN:120,_RNvNtNtNtCs5HKDRulWIag_12nestgate_api8handlers10auth_tests5testss_30test_auth_status_serialization
FN:359,_RNvNtNtNtCs5HKDRulWIag_12nestgate_api8handlers10auth_tests5testss_30test_set_mode_request_creation
FN:393,_RNvNtNtNtCs5HKDRulWIag_12nestgate_api8handlers10auth_tests5testss_30test_set_mode_response_failure
FN:381,_RNvNtNtNtCs5HKDRulWIag_12nestgate_api8handlers10auth_tests5testss_30test_set_mode_response_success
FN:291,_RNvNtNtNtCs5HKDRulWIag_12nestgate_api8handlers10auth_tests5testss_32test_auth_request_without_domain
FN:339,_RNvNtNtNtCs5HKDRulWIag_12nestgate_api8handlers10auth_tests5testss_32test_auth_response_serialization
FN:136,_RNvNtNtNtCs5HKDRulWIag_12nestgate_api8handlers10auth_tests5testss_32test_auth_status_deserialization
FN:153,_RNvNtNtNtCs5HKDRulWIag_12nestgate_api8handlers10auth_tests5testss_32test_auth_status_unauthenticated
FN:216,_RNvNtNtNtCs5HKDRulWIag_12nestgate_api8handlers10auth_tests5testss_33test_auth_challenge_serialization
FN:275,_RNvNtNtNtCs5HKDRulWIag_12nestgate_api8handlers10auth_tests5testss_33test_auth_request_deserialization
FN:25,_RNvNtNtNtCs5HKDRulWIag_12nestgate_api8handlers10auth_tests5testss_33test_auth_service_get_auth_status
FN:434,_RNvNtNtNtCs5HKDRulWIag_12nestgate_api8handlers10auth_tests5testss_34test_auth_status_empty_permissions
FN:232,_RNvNtNtNtCs5HKDRulWIag_12nestgate_api8handlers10auth_tests5testss_35test_auth_challenge_deserialization
FN:423,_RNvNtNtNtCs5HKDRulWIag_12nestgate_api8handlers10auth_tests5testss_35test_auth_credentials_empty_strings
FN:63,_RNvNtNtNtCs5HKDRulWIag_12nestgate_api8handlers10auth_tests5testss_35test_auth_credentials_serialization
FN:405,_RNvNtNtNtCs5HKDRulWIag_12nestgate_api8handlers10auth_tests5testss_36test_set_mode_response_serialization
FN:78,_RNvNtNtNtCs5HKDRulWIag_12nestgate_api8handlers10auth_tests5testss_37test_auth_credentials_deserialization
FN:368,_RNvNtNtNtCs5HKDRulWIag_12nestgate_api8handlers10auth_tests5testss_37test_set_mode_request_deserialization
FN:458,_RNvNtNtNtCs5HKDRulWIag_12nestgate_api8handlers10auth_tests5testss_40test_auth_credentials_special_characters
FN:36,_RNvNtNtNtCs5HKDRulWIag_12nestgate_api8handlers10auth_tests5testss_43test_auth_service_security_primal_available
FNDA:1,_RNvNtNtNtCs5HKDRulWIag_12nestgate_api8handlers10auth_tests5testss_20test_auth_mode_clone
FNDA:1,_RNvNtNtNtCs5HKDRulWIag_12nestgate_api8handlers10auth_tests5testss_23test_auth_mode_variants
FNDA:1,_RNvNtNtNtCs5HKDRulWIag_12nestgate_api8handlers10auth_tests5testss_25test_auth_challenge_clone
FNDA:1,_RNvNtNtNtCs5HKDRulWIag_12nestgate_api8handlers10auth_tests5testss_25test_auth_status_creation
FNDA:1,_RNvNtNtNtCs5HKDRulWIag_12nestgate_api8handlers10auth_tests5testss_26test_auth_request_creation
FNDA:1,_RNvNtNtNtCs5HKDRulWIag_12nestgate_api8handlers10auth_tests5testss_26test_auth_response_failure
FNDA:1,_RNvNtNtNtCs5HKDRulWIag_12nestgate_api8handlers10auth_tests5testss_26test_auth_response_success
FNDA:1,_RNvNtNtNtCs5HKDRulWIag_12nestgate_api8handlers10auth_tests5testss_26test_auth_service_creation
FNDA:1,_RNvNtNtNtCs5HKDRulWIag_12nestgate_api8handlers10auth_tests5testss_26test_auth_service_get_mode
FNDA:1,_RNvNtNtNtCs5HKDRulWIag_12nestgate_api8handlers10auth_tests5testss_27test_auth_challenge_unicode
FNDA:1,_RNvNtNtNtCs5HKDRulWIag_12nestgate_api8handlers10auth_tests5testss_27test_auth_credentials_clone
FNDA:1,_RNvNtNtNtCs5HKDRulWIag_12nestgate_api8handlers10auth_tests5testss_27test_auth_status_no_user_id
FNDA:1,_RNvNtNtNtCs5HKDRulWIag_12nestgate_api8handlers10auth_tests5testss_28test_auth_challenge_creation
FNDA:1,_RNvNtNtNtCs5HKDRulWIag_12nestgate_api8handlers10auth_tests5testss_28test_auth_mode_serialization
FNDA:1,_RNvNtNtNtCs5HKDRulWIag_12nestgate_api8handlers10auth_tests5testss_30test_auth_credentials_creation
FNDA:1,_RNvNtNtNtCs5HKDRulWIag_12nestgate_api8handlers10auth_tests5testss_30test_auth_mode_deserialization
FNDA:1,_RNvNtNtNtCs5HKDRulWIag_12nestgate_api8handlers10auth_tests5testss_30test_auth_status_serialization
FNDA:1,_RNvNtNtNtCs5HKDRulWIag_12nestgate_api8handlers10auth_tests5testss_30test_set_mode_request_creation
FNDA:1,_RNvNtNtNtCs5HKDRulWIag_12nestgate_api8handlers10auth_tests5testss_30test_set_mode_response_failure
FNDA:1,_RNvNtNtNtCs5HKDRulWIag_12nestgate_api8handlers10auth_tests5testss_30test_set_mode_response_success
FNDA:1,_RNvNtNtNtCs5HKDRulWIag_12nestgate_api8handlers10auth_tests5testss_32test_auth_request_without_domain
FNDA:1,_RNvNtNtNtCs5HKDRulWIag_12nestgate_api8handlers10auth_tests5testss_32test_auth_response_serialization
FNDA:1,_RNvNtNtNtCs5HKDRulWIag_12nestgate_api8handlers10auth_tests5testss_32test_auth_status_deserialization
FNDA:1,_RNvNtNtNtCs5HKDRulWIag_12nestgate_api8handlers10auth_tests5testss_32test_auth_status_unauthenticated
FNDA:1,_RNvNtNtNtCs5HKDRulWIag_12nestgate_api8handlers10auth_tests5testss_33test_auth_challenge_serialization
FNDA:1,_RNvNtNtNtCs5HKDRulWIag_12nestgate_api8handlers10auth_tests5testss_33test_auth_request_deserialization
FNDA:1,_RNvNtNtNtCs5HKDRulWIag_12nestgate_api8handlers10auth_tests5testss_33test_auth_service_get_auth_status
FNDA:1,_RNvNtNtNtCs5HKDRulWIag_12nestgate_api8handlers10auth_tests5testss_34test_auth_status_empty_permissions
FNDA:1,_RNvNtNtNtCs5HKDRulWIag_12nestgate_api8handlers10auth_tests5testss_35test_auth_challenge_deserialization
FNDA:1,_RNvNtNtNtCs5HKDRulWIag_12nestgate_api8handlers10auth_tests5testss_35test_auth_credentials_empty_strings
FNDA:1,_RNvNtNtNtCs5HKDRulWIag_12nestgate_api8handlers10auth_tests5testss_35test_auth_credentials_serialization
FNDA:1,_RNvNtNtNtCs5HKDRulWIag_12nestgate_api8handlers10auth_tests5testss_36test_set_mode_response_serialization
FNDA:1,_RNvNtNtNtCs5HKDRulWIag_12nestgate_api8handlers10auth_tests5testss_37test_auth_credentials_deserialization
FNDA:1,_RNvNtNtNtCs5HKDRulWIag_12nestgate_api8handlers10auth_tests5testss_37test_set_mode_request_deserialization
FNDA:1,_RNvNtNtNtCs5HKDRulWIag_12nestgate_api8handlers10auth_tests5testss_40test_auth_credentials_special_characters
FNDA:1,_RNvNtNtNtCs5HKDRulWIag_12nestgate_api8handlers10auth_tests5testss_43test_auth_service_security_primal_available
FNF:36
FNH:36
DA:16,1
DA:17,1
DA:18,1
DA:19,1
DA:20,0
DA:22,1
DA:25,1
DA:26,1
DA:27,1
DA:29,1
DA:30,1
DA:31,1
DA:32,1
DA:33,1
DA:36,1
DA:37,1
DA:38,1
DA:39,1
DA:40,1
DA:43,1
DA:44,1
DA:45,1
DA:46,1
DA:47,1
DA:52,1
DA:53,1
DA:54,1
DA:55,1
DA:56,1
DA:58,1
DA:59,1
DA:60,1
DA:63,1
DA:64,1
DA:65,1
DA:66,1
DA:67,1
DA:69,1
DA:70,1
DA:72,1
DA:73,1
DA:74,1
DA:75,1
DA:78,1
DA:79,1
DA:80,1
DA:81,1
DA:82,1
DA:84,1
DA:85,1
DA:87,1
DA:88,1
DA:89,1
DA:90,1
DA:93,1
DA:94,1
DA:95,1
DA:96,1
DA:97,1
DA:99,1
DA:100,1
DA:101,1
DA:102,1
DA:107,1
DA:108,1
DA:109,1
DA:110,1
DA:111,1
DA:112,1
DA:114,1
DA:115,1
DA:116,1
DA:117,1
DA:120,1
DA:121,1
DA:122,1
DA:123,1
DA:124,1
DA:125,1
DA:127,1
DA:128,1
DA:130,1
DA:131,1
DA:132,1
DA:133,1
DA:136,1
DA:137,1
DA:138,1
DA:139,1
DA:140,1
DA:141,1
DA:143,1
DA:144,1
DA:146,1
DA:147,1
DA:148,1
DA:149,1
DA:150,1
DA:153,1
DA:154,1
DA:155,1
DA:156,1
DA:157,1
DA:158,1
DA:160,1
DA:161,1
DA:162,1
DA:163,1
DA:168,1
DA:169,1
DA:170,1
DA:171,1
DA:174,1
DA:175,1
DA:176,1
DA:177,1
DA:180,1
DA:181,1
DA:182,1
DA:183,1
DA:184,1
DA:187,1
DA:188,1
DA:189,1
DA:190,1
DA:191,1
DA:194,1
DA:195,1
DA:196,1
DA:197,1
DA:198,1
DA:203,1
DA:204,1
DA:205,1
DA:206,1
DA:207,1
DA:208,1
DA:210,1
DA:211,1
DA:212,1
DA:213,1
DA:216,1
DA:217,1
DA:218,1
DA:219,1
DA:220,1
DA:221,1
DA:223,1
DA:224,1
DA:226,1
DA:227,1
DA:228,1
DA:229,1
DA:232,1
DA:233,1
DA:234,1
DA:235,1
DA:236,1
DA:237,1
DA:239,1
DA:240,1
DA:242,1
DA:243,1
DA:244,1
DA:247,1
DA:248,1
DA:249,1
DA:250,1
DA:251,1
DA:252,1
DA:254,1
DA:255,1
DA:256,1
DA:257,1
DA:262,1
DA:263,1
DA:264,1
DA:265,1
DA:266,1
DA:267,1
DA:269,1
DA:270,1
DA:271,1
DA:272,1
DA:275,1
DA:276,1
DA:277,1
DA:278,1
DA:279,1
DA:280,1
DA:282,1
DA:283,1
DA:285,1
DA:286,1
DA:287,1
DA:288,1
DA:291,1
DA:292,1
DA:293,1
DA:294,1
DA:295,1
DA:297,1
DA:298,1
DA:300,1
DA:301,1
DA:302,1
DA:307,1
DA:308,1
DA:309,1
DA:310,1
DA:311,1
DA:312,1
DA:313,1
DA:314,1
DA:316,1
DA:317,1
DA:318,1
DA:319,1
DA:320,1
DA:323,1
DA:324,1
DA:325,1
DA:326,1
DA:327,1
DA:328,1
DA:329,1
DA:330,1
DA:332,1
DA:333,1
DA:334,1
DA:335,1
DA:336,1
DA:339,1
DA:340,1
DA:341,1
DA:342,1
DA:343,1
DA:344,1
DA:345,1
DA:346,1
DA:348,1
DA:349,1
DA:351,1
DA:352,1
DA:353,1
DA:354,1
DA:359,1
DA:360,1
DA:361,1
DA:362,1
DA:364,1
DA:365,1
DA:368,1
DA:369,1
DA:371,1
DA:372,1
DA:374,1
DA:375,1
DA:376,1
DA:381,1
DA:382,1
DA:383,1
DA:384,1
DA:385,1
DA:386,1
DA:388,1
DA:389,1
DA:390,1
DA:393,1
DA:394,1
DA:395,1
DA:396,1
DA:397,1
DA:398,1
DA:400,1
DA:401,1
DA:402,1
DA:405,1
DA:406,1
DA:407,1
DA:408,1
DA:409,1
DA:410,1
DA:412,1
DA:413,1
DA:415,1
DA:416,1
DA:417,1
DA:418,1
DA:423,1
DA:424,1
DA:425,1
DA:426,1
DA:427,1
DA:429,1
DA:430,1
DA:431,1
DA:434,1
DA:435,1
DA:436,1
DA:437,1
DA:438,1
DA:439,1
DA:441,1
DA:442,1
DA:443,1
DA:446,1
DA:447,1
DA:448,1
DA:449,1
DA:450,1
DA:451,1
DA:453,1
DA:454,1
DA:455,1
DA:458,1
DA:459,1
DA:460,1
DA:461,1
DA:462,1
DA:464,1
DA:465,1
DA:466,1
DA:469,1
DA:470,1
DA:471,1
DA:472,1
DA:473,1
DA:474,1
DA:476,1
DA:477,1
DA:478,1
BRF:0
BRH:0
LF:332
LH:331
end_of_record
SF:/home/eastgate/Development/ecoPrimals/nestgate/code/crates/nestgate-api/src/handlers/compliance.rs
FN:489,_RNCNvMs0_NtNtCs5HKDRulWIag_12nestgate_api8handlers10complianceNtB7_17ComplianceManager26calculate_compliance_scores_0Bb_
FN:736,_RNvNtNtNtCs5HKDRulWIag_12nestgate_api8handlers10compliance5testss_22test_access_compliance
FN:707,_RNvNtNtNtCs5HKDRulWIag_12nestgate_api8handlers10compliance5testss_30test_data_retention_compliance
FN:698,_RNvNtNtNtCs5HKDRulWIag_12nestgate_api8handlers10compliance5testss_32test_compliance_manager_creation
FN:767,_RNvNtNtNtCs5HKDRulWIag_12nestgate_api8handlers10compliance5testss_33test_compliance_score_calculation
FN:580,_RNCNCNvNtNtCs5HKDRulWIag_12nestgate_api8handlers10compliance14get_audit_logs00B9_
FN:604,_RNCNCNvNtNtCs5HKDRulWIag_12nestgate_api8handlers10compliance14get_violations00B9_
FN:456,_RNCNvMs0_NtNtCs5HKDRulWIag_12nestgate_api8handlers10complianceNtB7_17ComplianceManager26generate_compliance_report0Bb_
FN:576,_RNCNvNtNtCs5HKDRulWIag_12nestgate_api8handlers10compliance14get_audit_logs0B7_
FN:598,_RNCNvNtNtCs5HKDRulWIag_12nestgate_api8handlers10compliance14get_violations0B7_
FN:540,_RNCNvNtNtCs5HKDRulWIag_12nestgate_api8handlers10compliance22get_retention_policies0B7_
FN:556,_RNCNvNtNtCs5HKDRulWIag_12nestgate_api8handlers10compliance23create_retention_policy0B7_
FN:524,_RNCNvNtNtCs5HKDRulWIag_12nestgate_api8handlers10compliance24get_compliance_dashboard0B7_
FN:389,_RNvMs0_NtNtCs5HKDRulWIag_12nestgate_api8handlers10complianceNtB5_17ComplianceManager15log_audit_event
FN:450,_RNvMs0_NtNtCs5HKDRulWIag_12nestgate_api8handlers10complianceNtB5_17ComplianceManager26generate_compliance_report
FN:573,_RNvNtNtCs5HKDRulWIag_12nestgate_api8handlers10compliance14get_audit_logs
FN:595,_RNvNtNtCs5HKDRulWIag_12nestgate_api8handlers10compliance14get_violations
FN:538,_RNvNtNtCs5HKDRulWIag_12nestgate_api8handlers10compliance22get_retention_policies
FN:553,_RNvNtNtCs5HKDRulWIag_12nestgate_api8handlers10compliance23create_retention_policy
FN:630,_RNvNtNtCs5HKDRulWIag_12nestgate_api8handlers10compliance24create_compliance_routes
FN:522,_RNvNtNtCs5HKDRulWIag_12nestgate_api8handlers10compliance24get_compliance_dashboard
FN:639,_RNvNtNtCs5HKDRulWIag_12nestgate_api8handlers10compliance29initialize_compliance_manager
FN:158,_RNvXNtNtCs5HKDRulWIag_12nestgate_api8handlers10complianceNtB2_14AuditEventTypeNtNtCs5GmCzIpY9Qj_4core3fmt7Display3fmt
FN:479,_RNCNvMs0_NtNtCs5HKDRulWIag_12nestgate_api8handlers10complianceNtB7_17ComplianceManager26calculate_compliance_score0Bb_
FN:439,_RNCNvMs0_NtNtCs5HKDRulWIag_12nestgate_api8handlers10complianceNtB7_17ComplianceManager23check_access_compliance0Bb_
FN:405,_RNvMs0_NtNtCs5HKDRulWIag_12nestgate_api8handlers10complianceNtB5_17ComplianceManager16record_violation
FN:383,_RNvMs0_NtNtCs5HKDRulWIag_12nestgate_api8handlers10complianceNtB5_17ComplianceManager17add_access_policy
FN:377,_RNvMs0_NtNtCs5HKDRulWIag_12nestgate_api8handlers10complianceNtB5_17ComplianceManager20add_retention_policy
FN:415,_RNvMs0_NtNtCs5HKDRulWIag_12nestgate_api8handlers10complianceNtB5_17ComplianceManager20check_data_retention
FN:429,_RNvMs0_NtNtCs5HKDRulWIag_12nestgate_api8handlers10complianceNtB5_17ComplianceManager23check_access_compliance
FN:398,_RNvMs0_NtNtCs5HKDRulWIag_12nestgate_api8handlers10complianceNtB5_17ComplianceManager24add_regulatory_framework
FN:471,_RNvMs0_NtNtCs5HKDRulWIag_12nestgate_api8handlers10complianceNtB5_17ComplianceManager26calculate_compliance_score
FN:366,_RNvMs0_NtNtCs5HKDRulWIag_12nestgate_api8handlers10complianceNtB5_17ComplianceManager3new
FN:324,_RNvXs_NtNtCs5HKDRulWIag_12nestgate_api8handlers10complianceNtB4_13ViolationTypeNtNtCs5GmCzIpY9Qj_4core3fmt7Display3fmt
FNDA:1,_RNCNvMs0_NtNtCs5HKDRulWIag_12nestgate_api8handlers10complianceNtB7_17ComplianceManager26calculate_compliance_scores_0Bb_
FNDA:1,_RNvNtNtNtCs5HKDRulWIag_12nestgate_api8handlers10compliance5testss_22test_access_compliance
FNDA:1,_RNvNtNtNtCs5HKDRulWIag_12nestgate_api8handlers10compliance5testss_30test_data_retention_compliance
FNDA:1,_RNvNtNtNtCs5HKDRulWIag_12nestgate_api8handlers10compliance5testss_32test_compliance_manager_creation
FNDA:1,_RNvNtNtNtCs5HKDRulWIag_12nestgate_api8handlers10compliance5testss_33test_compliance_score_calculation
FNDA:0,_RNCNCNvNtNtCs5HKDRulWIag_12nestgate_api8handlers10compliance14get_audit_logs00B9_
FNDA:0,_RNCNCNvNtNtCs5HKDRulWIag_12nestgate_api8handlers10compliance14get_violations00B9_
FNDA:0,_RNCNvMs0_NtNtCs5HKDRulWIag_12nestgate_api8handlers10complianceNtB7_17ComplianceManager26generate_compliance_report0Bb_
FNDA:0,_RNCNvNtNtCs5HKDRulWIag_12nestgate_api8handlers10compliance14get_audit_logs0B7_
FNDA:0,_RNCNvNtNtCs5HKDRulWIag_12nestgate_api8handlers10compliance14get_violations0B7_
FNDA:0,_RNCNvNtNtCs5HKDRulWIag_12nestgate_api8handlers10compliance22get_retention_policies0B7_
FNDA:0,_RNCNvNtNtCs5HKDRulWIag_12nestgate_api8handlers10compliance23create_retention_policy0B7_
FNDA:0,_RNCNvNtNtCs5HKDRulWIag_12nestgate_api8handlers10compliance24get_compliance_dashboard0B7_
FNDA:0,_RNvMs0_NtNtCs5HKDRulWIag_12nestgate_api8handlers10complianceNtB5_17ComplianceManager15log_audit_event
FNDA:0,_RNvMs0_NtNtCs5HKDRulWIag_12nestgate_api8handlers10complianceNtB5_17ComplianceManager26generate_compliance_report
FNDA:0,_RNvNtNtCs5HKDRulWIag_12nestgate_api8handlers10compliance14get_audit_logs
FNDA:0,_RNvNtNtCs5HKDRulWIag_12nestgate_api8handlers10compliance14get_violations
FNDA:0,_RNvNtNtCs5HKDRulWIag_12nestgate_api8handlers10compliance22get_retention_policies
FNDA:0,_RNvNtNtCs5HKDRulWIag_12nestgate_api8handlers10compliance23create_retention_policy
FNDA:0,_RNvNtNtCs5HKDRulWIag_12nestgate_api8handlers10compliance24create_compliance_routes
FNDA:0,_RNvNtNtCs5HKDRulWIag_12nestgate_api8handlers10compliance24get_compliance_dashboard
FNDA:0,_RNvNtNtCs5HKDRulWIag_12nestgate_api8handlers10compliance29initialize_compliance_manager
FNDA:0,_RNvXNtNtCs5HKDRulWIag_12nestgate_api8handlers10complianceNtB2_14AuditEventTypeNtNtCs5GmCzIpY9Qj_4core3fmt7Display3fmt
FNDA:1,_RNCNvMs0_NtNtCs5HKDRulWIag_12nestgate_api8handlers10complianceNtB7_17ComplianceManager26calculate_compliance_score0Bb_
FNDA:4,_RNCNvMs0_NtNtCs5HKDRulWIag_12nestgate_api8handlers10complianceNtB7_17ComplianceManager23check_access_compliance0Bb_
FNDA:1,_RNvMs0_NtNtCs5HKDRulWIag_12nestgate_api8handlers10complianceNtB5_17ComplianceManager16record_violation
FNDA:1,_RNvMs0_NtNtCs5HKDRulWIag_12nestgate_api8handlers10complianceNtB5_17ComplianceManager17add_access_policy
FNDA:1,_RNvMs0_NtNtCs5HKDRulWIag_12nestgate_api8handlers10complianceNtB5_17ComplianceManager20add_retention_policy
FNDA:3,_RNvMs0_NtNtCs5HKDRulWIag_12nestgate_api8handlers10complianceNtB5_17ComplianceManager20check_data_retention
FNDA:3,_RNvMs0_NtNtCs5HKDRulWIag_12nestgate_api8handlers10complianceNtB5_17ComplianceManager23check_access_compliance
FNDA:1,_RNvMs0_NtNtCs5HKDRulWIag_12nestgate_api8handlers10complianceNtB5_17ComplianceManager24add_regulatory_framework
FNDA:2,_RNvMs0_NtNtCs5HKDRulWIag_12nestgate_api8handlers10complianceNtB5_17ComplianceManager26calculate_compliance_score
FNDA:4,_RNvMs0_NtNtCs5HKDRulWIag_12nestgate_api8handlers10complianceNtB5_17ComplianceManager3new
FNDA:0,_RNvXs_NtNtCs5HKDRulWIag_12nestgate_api8handlers10complianceNtB4_13ViolationTypeNtNtCs5GmCzIpY9Qj_4core3fmt7Display3fmt
FNF:34
FNH:15
DA:158,0
DA:159,0
DA:160,0
DA:161,0
DA:162,0
DA:163,0
DA:164,0
DA:165,0
DA:166,0
DA:167,0
DA:169,0
DA:324,0
DA:325,0
DA:326,0
DA:327,0
DA:328,0
DA:329,0
DA:330,0
DA:331,0
DA:332,0
DA:334,0
DA:366,4
DA:367,4
DA:368,4
DA:369,4
DA:370,4
DA:371,4
DA:372,4
DA:373,4
DA:374,4
DA:377,1
DA:378,1
DA:379,1
DA:380,1
DA:383,1
DA:384,1
DA:385,1
DA:386,1
DA:389,0
DA:390,0
DA:391,0
DA:394,0
DA:395,0
DA:398,1
DA:399,1
DA:400,1
DA:401,1
DA:402,1
DA:405,1
DA:406,1
DA:407,0
DA:410,1
DA:411,1
DA:415,3
DA:416,3
DA:417,3
DA:418,2
DA:419,0
DA:420,2
DA:421,2
DA:422,1
DA:424,1
DA:425,3
DA:429,3
DA:430,3
DA:431,3
DA:432,3
DA:433,3
DA:434,3
DA:435,3
DA:436,2
DA:437,2
DA:438,2
DA:439,4
DA:440,2
DA:441,1
DA:442,1
DA:443,1
DA:445,2
DA:446,3
DA:450,0
DA:451,0
DA:452,0
DA:453,0
DA:454,0
DA:455,0
DA:456,0
DA:457,0
DA:459,0
DA:460,0
DA:461,0
DA:462,0
DA:463,0
DA:464,0
DA:465,0
DA:466,0
DA:467,0
DA:468,0
DA:471,2
DA:472,2
DA:473,1
DA:474,1
DA:476,1
DA:477,1
DA:478,1
DA:479,1
DA:480,1
DA:482,1
DA:483,0
DA:484,1
DA:486,1
DA:487,1
DA:488,1
DA:489,1
DA:490,0
DA:491,0
DA:492,1
DA:493,0
DA:494,1
DA:495,1
DA:497,1
DA:498,1
DA:499,2
DA:522,0
DA:523,0
DA:524,0
DA:525,0
DA:526,0
DA:527,0
DA:528,0
DA:529,0
DA:530,0
DA:531,0
DA:532,0
DA:533,0
DA:534,0
DA:535,0
DA:538,0
DA:539,0
DA:540,0
DA:541,0
DA:542,0
DA:543,0
DA:544,0
DA:545,0
DA:546,0
DA:547,0
DA:548,0
DA:549,0
DA:550,0
DA:553,0
DA:554,0
DA:555,0
DA:556,0
DA:557,0
DA:558,0
DA:559,0
DA:560,0
DA:561,0
DA:563,0
DA:564,0
DA:565,0
DA:566,0
DA:567,0
DA:568,0
DA:569,0
DA:570,0
DA:573,0
DA:574,0
DA:575,0
DA:576,0
DA:577,0
DA:578,0
DA:579,0
DA:580,0
DA:581,0
DA:582,0
DA:584,0
DA:585,0
DA:586,0
DA:587,0
DA:588,0
DA:589,0
DA:590,0
DA:591,0
DA:592,0
DA:595,0
DA:596,0
DA:597,0
DA:598,0
DA:599,0
DA:600,0
DA:601,0
DA:602,0
DA:603,0
DA:604,0
DA:605,0
DA:606,0
DA:607,0
DA:608,0
DA:609,0
DA:610,0
DA:611,0
DA:612,0
DA:615,0
DA:617,0
DA:618,0
DA:620,0
DA:621,0
DA:622,0
DA:623,0
DA:624,0
DA:625,0
DA:626,0
DA:627,0
DA:630,0
DA:631,0
DA:632,0
DA:633,0
DA:634,0
DA:635,0
DA:636,0
DA:637,0
DA:639,0
DA:640,0
DA:642,0
DA:643,0
DA:644,0
DA:645,0
DA:646,0
DA:647,0
DA:648,0
DA:649,0
DA:650,0
DA:651,0
DA:652,0
DA:653,0
DA:654,0
DA:655,0
DA:656,0
DA:657,0
DA:658,0
DA:659,0
DA:660,0
DA:661,0
DA:662,0
DA:663,0
DA:664,0
DA:665,0
DA:666,0
DA:667,0
DA:668,0
DA:669,0
DA:671,0
DA:674,0
DA:675,0
DA:676,0
DA:677,0
DA:678,0
DA:679,0
DA:680,0
DA:681,0
DA:682,0
DA:683,0
DA:684,0
DA:685,0
DA:687,0
DA:689,0
DA:690,0
DA:691,0
DA:698,1
DA:699,1
DA:700,1
DA:701,1
DA:702,1
DA:703,1
DA:704,1
DA:705,1
DA:707,1
DA:708,1
DA:710,1
DA:711,1
DA:712,1
DA:713,1
DA:714,1
DA:715,1
DA:716,1
DA:717,1
DA:718,1
DA:719,1
DA:720,1
DA:721,1
DA:723,1
DA:726,1
DA:729,1
DA:732,1
DA:733,1
DA:736,1
DA:737,1
DA:739,1
DA:740,1
DA:741,1
DA:742,1
DA:743,1
DA:744,1
DA:745,1
DA:746,1
DA:747,1
DA:748,1
DA:749,1
DA:751,1
DA:754,1
DA:755,1
DA:760,1
DA:763,1
DA:764,1
DA:767,1
DA:768,1
DA:771,1
DA:772,1
DA:773,1
DA:774,1
DA:775,1
DA:776,1
DA:777,1
DA:778,1
DA:779,1
DA:780,1
DA:781,1
DA:782,1
DA:783,1
DA:784,1
DA:785,1
DA:786,1
DA:787,1
DA:789,1
DA:792,1
DA:795,1
DA:796,1
DA:797,1
DA:798,1
DA:799,1
DA:800,1
DA:801,1
DA:802,1
DA:803,1
DA:804,1
DA:805,1
DA:806,1
DA:808,1
DA:811,1
DA:812,1
BRF:0
BRH:0
LF:363
LH:158
end_of_record
SF:/home/eastgate/Development/ecoPrimals/nestgate/code/crates/nestgate-api/src/handlers/dashboard_types.rs
FN:134,_RNCNvMs_NtNtCs5HKDRulWIag_12nestgate_api8handlers15dashboard_typesNtB6_14DashboardState21clear_resolved_alerts0Ba_
FN:34,_RNvMNtNtCs5HKDRulWIag_12nestgate_api8handlers15dashboard_typesNtB2_18DashboardTimeRange10last_hours
FN:72,_RNvMNtNtCs5HKDRulWIag_12nestgate_api8handlers15dashboard_typesNtB2_18DashboardTimeRange11data_points
FN:24,_RNvMNtNtCs5HKDRulWIag_12nestgate_api8handlers15dashboard_typesNtB2_18DashboardTimeRange3new
FN:58,_RNvMNtNtCs5HKDRulWIag_12nestgate_api8handlers15dashboard_typesNtB2_18DashboardTimeRange8duration
FN:66,_RNvMNtNtCs5HKDRulWIag_12nestgate_api8handlers15dashboard_typesNtB2_18DashboardTimeRange8is_valid
FN:82,_RNvMNtNtCs5HKDRulWIag_12nestgate_api8handlers15dashboard_typesNtB2_18DashboardTimeRange9intervals
FN:46,_RNvMNtNtCs5HKDRulWIag_12nestgate_api8handlers15dashboard_typesNtB2_18DashboardTimeRange9last_days
FN:122,_RNvMs_NtNtCs5HKDRulWIag_12nestgate_api8handlers15dashboard_typesNtB4_14DashboardState14update_metrics
FN:133,_RNvMs_NtNtCs5HKDRulWIag_12nestgate_api8handlers15dashboard_typesNtB4_14DashboardState21clear_resolved_alerts
FN:112,_RNvMs_NtNtCs5HKDRulWIag_12nestgate_api8handlers15dashboard_typesNtB4_14DashboardState3new
FN:128,_RNvMs_NtNtCs5HKDRulWIag_12nestgate_api8handlers15dashboard_typesNtB4_14DashboardState9add_alert
FN:139,_RNvXs0_NtNtCs5HKDRulWIag_12nestgate_api8handlers15dashboard_typesNtB5_14DashboardStateNtNtCs5GmCzIpY9Qj_4core7default7Default7default
FN:207,_RNvXs1_NtNtCs5HKDRulWIag_12nestgate_api8handlers15dashboard_typesNtB5_15DashboardConfigNtNtCs5GmCzIpY9Qj_4core7default7Default7default
FNDA:0,_RNCNvMs_NtNtCs5HKDRulWIag_12nestgate_api8handlers15dashboard_typesNtB6_14DashboardState21clear_resolved_alerts0Ba_
FNDA:0,_RNvMNtNtCs5HKDRulWIag_12nestgate_api8handlers15dashboard_typesNtB2_18DashboardTimeRange10last_hours
FNDA:0,_RNvMNtNtCs5HKDRulWIag_12nestgate_api8handlers15dashboard_typesNtB2_18DashboardTimeRange11data_points
FNDA:0,_RNvMNtNtCs5HKDRulWIag_12nestgate_api8handlers15dashboard_typesNtB2_18DashboardTimeRange3new
FNDA:0,_RNvMNtNtCs5HKDRulWIag_12nestgate_api8handlers15dashboard_typesNtB2_18DashboardTimeRange8duration
FNDA:0,_RNvMNtNtCs5HKDRulWIag_12nestgate_api8handlers15dashboard_typesNtB2_18DashboardTimeRange8is_valid
FNDA:0,_RNvMNtNtCs5HKDRulWIag_12nestgate_api8handlers15dashboard_typesNtB2_18DashboardTimeRange9intervals
FNDA:0,_RNvMNtNtCs5HKDRulWIag_12nestgate_api8handlers15dashboard_typesNtB2_18DashboardTimeRange9last_days
FNDA:0,_RNvMs_NtNtCs5HKDRulWIag_12nestgate_api8handlers15dashboard_typesNtB4_14DashboardState14update_metrics
FNDA:0,_RNvMs_NtNtCs5HKDRulWIag_12nestgate_api8handlers15dashboard_typesNtB4_14DashboardState21clear_resolved_alerts
FNDA:0,_RNvMs_NtNtCs5HKDRulWIag_12nestgate_api8handlers15dashboard_typesNtB4_14DashboardState3new
FNDA:0,_RNvMs_NtNtCs5HKDRulWIag_12nestgate_api8handlers15dashboard_typesNtB4_14DashboardState9add_alert
FNDA:0,_RNvXs0_NtNtCs5HKDRulWIag_12nestgate_api8handlers15dashboard_typesNtB5_14DashboardStateNtNtCs5GmCzIpY9Qj_4core7default7Default7default
FNDA:0,_RNvXs1_NtNtCs5HKDRulWIag_12nestgate_api8handlers15dashboard_typesNtB5_15DashboardConfigNtNtCs5GmCzIpY9Qj_4core7default7Default7default
FNF:14
FNH:0
DA:24,0
DA:25,0
DA:26,0
DA:27,0
DA:28,0
DA:29,0
DA:30,0
DA:34,0
DA:35,0
DA:36,0
DA:37,0
DA:38,0
DA:39,0
DA:40,0
DA:41,0
DA:42,0
DA:46,0
DA:47,0
DA:48,0
DA:49,0
DA:50,0
DA:51,0
DA:52,0
DA:53,0
DA:54,0
DA:58,0
DA:59,0
DA:60,0
DA:61,0
DA:62,0
DA:66,0
DA:67,0
DA:68,0
DA:72,0
DA:73,0
DA:74,0
DA:75,0
DA:76,0
DA:77,0
DA:78,0
DA:82,0
DA:83,0
DA:84,0
DA:86,0
DA:87,0
DA:88,0
DA:89,0
DA:90,0
DA:93,0
DA:94,0
DA:112,0
DA:113,0
DA:114,0
DA:115,0
DA:116,0
DA:117,0
DA:118,0
DA:119,0
DA:122,0
DA:123,0
DA:124,0
DA:125,0
DA:128,0
DA:129,0
DA:130,0
DA:133,0
DA:134,0
DA:135,0
DA:139,0
DA:140,0
DA:141,0
DA:207,0
DA:208,0
DA:209,0
DA:210,0
DA:211,0
DA:212,0
DA:213,0
DA:215,0
DA:216,0
DA:217,0
DA:218,0
DA:219,0
DA:220,0
DA:221,0
DA:222,0
BRF:0
BRH:0
LF:87
LH:0
end_of_record
SF:/home/eastgate/Development/ecoPrimals/nestgate/code/crates/nestgate-api/src/handlers/health.rs
FN:5,_RNvNtNtCs5HKDRulWIag_12nestgate_api8handlers6health12health_check
FN:14,_RNvNtNtNtCs5HKDRulWIag_12nestgate_api8handlers6health5testss_28test_health_check_returns_ok
FN:24,_RNvNtNtNtCs5HKDRulWIag_12nestgate_api8handlers6health5testss_32test_health_check_is_lightweight
FNDA:2,_RNvNtNtCs5HKDRulWIag_12nestgate_api8handlers6health12health_check
FNDA:1,_RNvNtNtNtCs5HKDRulWIag_12nestgate_api8handlers6health5testss_28test_health_check_returns_ok
FNDA:1,_RNvNtNtNtCs5HKDRulWIag_12nestgate_api8handlers6health5testss_32test_health_check_is_lightweight
FNF:3
FNH:3
DA:5,2
DA:6,2
DA:7,2
DA:14,1
DA:15,1
DA:17,1
DA:18,1
DA:21,1
DA:24,1
DA:26,1
DA:27,1
DA:28,1
DA:30,1
DA:31,1
DA:32,0
DA:35,1
BRF:0
BRH:0
LF:16
LH:15
end_of_record
SF:/home/eastgate/Development/ecoPrimals/nestgate/code/crates/nestgate-api/src/handlers/load_testing/config.rs
FN:118,_RNvXNtNtNtCs5HKDRulWIag_12nestgate_api8handlers12load_testing6configNtB2_14LoadTestConfigNtNtCs5GmCzIpY9Qj_4core7default7Default7default
FN:143,_RNvXs0_NtNtNtCs5HKDRulWIag_12nestgate_api8handlers12load_testing6configNtB5_21PerformanceThresholdsNtNtCs5GmCzIpY9Qj_4core7default7Default7default
FN:132,_RNvXs_NtNtNtCs5HKDRulWIag_12nestgate_api8handlers12load_testing6configNtB4_14TestDataConfigNtNtCs5GmCzIpY9Qj_4core7default7Default7default
FNDA:0,_RNvXNtNtNtCs5HKDRulWIag_12nestgate_api8handlers12load_testing6configNtB2_14LoadTestConfigNtNtCs5GmCzIpY9Qj_4core7default7Default7default
FNDA:0,_RNvXs0_NtNtNtCs5HKDRulWIag_12nestgate_api8handlers12load_testing6configNtB5_21PerformanceThresholdsNtNtCs5GmCzIpY9Qj_4core7default7Default7default
FNDA:0,_RNvXs_NtNtNtCs5HKDRulWIag_12nestgate_api8handlers12load_testing6configNtB4_14TestDataConfigNtNtCs5GmCzIpY9Qj_4core7default7Default7default
FNF:3
FNH:0
DA:118,0
DA:119,0
DA:120,0
DA:121,0
DA:122,0
DA:123,0
DA:124,0
DA:125,0
DA:126,0
DA:127,0
DA:128,0
DA:132,0
DA:133,0
DA:134,0
DA:135,0
DA:136,0
DA:137,0
DA:138,0
DA:139,0
DA:143,0
DA:144,0
DA:145,0
DA:146,0
DA:147,0
DA:148,0
DA:149,0
DA:150,0
BRF:0
BRH:0
LF:27
LH:0
end_of_record
SF:/home/eastgate/Development/ecoPrimals/nestgate/code/crates/nestgate-api/src/handlers/load_testing/metrics.rs
FN:51,_RNvXNtNtNtCs5HKDRulWIag_12nestgate_api8handlers12load_testing7metricsNtB2_16PerformanceStatsNtNtCs5GmCzIpY9Qj_4core7default7Default7default
FN:62,_RNvXs_NtNtNtCs5HKDRulWIag_12nestgate_api8handlers12load_testing7metricsNtB4_17ResponseTimeStatsNtNtCs5GmCzIpY9Qj_4core7default7Default7default
FNDA:0,_RNvXNtNtNtCs5HKDRulWIag_12nestgate_api8handlers12load_testing7metricsNtB2_16PerformanceStatsNtNtCs5GmCzIpY9Qj_4core7default7Default7default
FNDA:0,_RNvXs_NtNtNtCs5HKDRulWIag_12nestgate_api8handlers12load_testing7metricsNtB4_17ResponseTimeStatsNtNtCs5GmCzIpY9Qj_4core7default7Default7default
FNF:2
FNH:0
DA:51,0
DA:52,0
DA:53,0
DA:54,0
DA:55,0
DA:56,0
DA:57,0
DA:58,0
DA:62,0
DA:63,0
DA:64,0
DA:65,0
DA:66,0
DA:67,0
DA:68,0
DA:69,0
DA:70,0
DA:71,0
BRF:0
BRH:0
LF:18
LH:0
end_of_record
SF:/home/eastgate/Development/ecoPrimals/nestgate/code/crates/nestgate-api/src/handlers/load_testing/mod.rs
FN:61,_RNCNvNtNtCs5HKDRulWIag_12nestgate_api8handlers12load_testing15start_load_test0B7_
FN:108,_RNCNvNtNtCs5HKDRulWIag_12nestgate_api8handlers12load_testing21get_load_test_history0B7_
FN:81,_RNCNvNtNtCs5HKDRulWIag_12nestgate_api8handlers12load_testing21get_load_test_results0B7_
FN:131,_RNCNvNtNtCs5HKDRulWIag_12nestgate_api8handlers12load_testing25get_performance_baselines0B7_
FN:59,_RNvNtNtCs5HKDRulWIag_12nestgate_api8handlers12load_testing15start_load_test
FN:108,_RNvNtNtCs5HKDRulWIag_12nestgate_api8handlers12load_testing21get_load_test_history
FN:81,_RNvNtNtCs5HKDRulWIag_12nestgate_api8handlers12load_testing21get_load_test_results
FN:131,_RNvNtNtCs5HKDRulWIag_12nestgate_api8handlers12load_testing25get_performance_baselines
FNDA:0,_RNCNvNtNtCs5HKDRulWIag_12nestgate_api8handlers12load_testing15start_load_test0B7_
FNDA:0,_RNCNvNtNtCs5HKDRulWIag_12nestgate_api8handlers12load_testing21get_load_test_history0B7_
FNDA:0,_RNCNvNtNtCs5HKDRulWIag_12nestgate_api8handlers12load_testing21get_load_test_results0B7_
FNDA:0,_RNCNvNtNtCs5HKDRulWIag_12nestgate_api8handlers12load_testing25get_performance_baselines0B7_
FNDA:0,_RNvNtNtCs5HKDRulWIag_12nestgate_api8handlers12load_testing15start_load_test
FNDA:0,_RNvNtNtCs5HKDRulWIag_12nestgate_api8handlers12load_testing21get_load_test_history
FNDA:0,_RNvNtNtCs5HKDRulWIag_12nestgate_api8handlers12load_testing21get_load_test_results
FNDA:0,_RNvNtNtCs5HKDRulWIag_12nestgate_api8handlers12load_testing25get_performance_baselines
FNF:8
FNH:0
DA:59,0
DA:60,0
DA:61,0
DA:62,0
DA:63,0
DA:64,0
DA:65,0
DA:66,0
DA:67,0
DA:68,0
DA:69,0
DA:70,0
DA:71,0
DA:72,0
DA:74,0
DA:75,0
DA:81,0
DA:82,0
DA:83,0
DA:84,0
DA:85,0
DA:86,0
DA:87,0
DA:88,0
DA:89,0
DA:90,0
DA:91,0
DA:92,0
DA:93,0
DA:94,0
DA:95,0
DA:96,0
DA:97,0
DA:98,0
DA:101,0
DA:102,0
DA:108,0
DA:109,0
DA:110,0
DA:111,0
DA:112,0
DA:113,0
DA:114,0
DA:115,0
DA:116,0
DA:117,0
DA:118,0
DA:119,0
DA:120,0
DA:121,0
DA:122,0
DA:124,0
DA:125,0
DA:131,0
DA:132,0
DA:133,0
DA:134,0
DA:135,0
DA:136,0
DA:137,0
DA:138,0
DA:139,0
DA:140,0
DA:141,0
DA:142,0
DA:143,0
DA:144,0
DA:145,0
DA:146,0
DA:149,0
DA:150,0
BRF:0
BRH:0
LF:75
LH:0
end_of_record
SF:/home/eastgate/Development/ecoPrimals/nestgate/code/crates/nestgate-api/src/handlers/load_testing/scenarios.rs
FN:15,_RNvMNtNtNtCs5HKDRulWIag_12nestgate_api8handlers12load_testing9scenariosNtB2_14ScenarioRunner3new
FN:28,_RNvMNtNtNtCs5HKDRulWIag_12nestgate_api8handlers12load_testing9scenariosNtB2_14ScenarioRunner3run
FNDA:0,_RNvMNtNtNtCs5HKDRulWIag_12nestgate_api8handlers12load_testing9scenariosNtB2_14ScenarioRunner3new
FNDA:0,_RNvMNtNtNtCs5HKDRulWIag_12nestgate_api8handlers12load_testing9scenariosNtB2_14ScenarioRunner3run
FNF:2
FNH:0
DA:15,0
DA:16,0
DA:17,0
DA:28,0
DA:30,0
DA:31,0
DA:32,0
DA:33,0
DA:34,0
DA:35,0
DA:36,0
DA:37,0
DA:38,0
BRF:0
BRH:0
LF:13
LH:0
end_of_record
SF:/home/eastgate/Development/ecoPrimals/nestgate/code/crates/nestgate-api/src/handlers/metrics_collector.rs
FN:261,_RNCNCNvMNtNtCs5HKDRulWIag_12nestgate_api8handlers17metrics_collectorNtB6_24RealTimeMetricsCollector19get_current_metrics0s_0Ba_
FN:471,_RNCNvMNtNtCs5HKDRulWIag_12nestgate_api8handlers17metrics_collectorNtB4_24RealTimeMetricsCollector16get_real_disk_io0B8_
FN:325,_RNCNvMNtNtCs5HKDRulWIag_12nestgate_api8handlers17metrics_collectorNtB4_24RealTimeMetricsCollector18get_real_cpu_usage0B8_
FN:238,_RNCNvMNtNtCs5HKDRulWIag_12nestgate_api8handlers17metrics_collectorNtB4_24RealTimeMetricsCollector19get_current_metrics0B8_
FN:416,_RNCNvMNtNtCs5HKDRulWIag_12nestgate_api8handlers17metrics_collectorNtB4_24RealTimeMetricsCollector19get_real_network_io0B8_
FN:360,_RNCNvMNtNtCs5HKDRulWIag_12nestgate_api8handlers17metrics_collectorNtB4_24RealTimeMetricsCollector20get_real_memory_info0B8_
FN:589,_RNCNvMNtNtCs5HKDRulWIag_12nestgate_api8handlers17metrics_collectorNtB4_24RealTimeMetricsCollector23collect_zfs_cache_stats0B8_
FN:532,_RNCNvMNtNtCs5HKDRulWIag_12nestgate_api8handlers17metrics_collectorNtB4_24RealTimeMetricsCollector24collect_zfs_pool_metrics0B8_
FN:299,_RNCNvMNtNtCs5HKDRulWIag_12nestgate_api8handlers17metrics_collectorNtB4_24RealTimeMetricsCollector27collect_real_system_metrics0B8_
FN:471,_RNvMNtNtCs5HKDRulWIag_12nestgate_api8handlers17metrics_collectorNtB2_24RealTimeMetricsCollector16get_real_disk_io
FN:224,_RNvMNtNtCs5HKDRulWIag_12nestgate_api8handlers17metrics_collectorNtB2_24RealTimeMetricsCollector16start_collection
FN:716,_RNvMNtNtCs5HKDRulWIag_12nestgate_api8handlers17metrics_collectorNtB2_24RealTimeMetricsCollector17get_cache_metrics
FN:325,_RNvMNtNtCs5HKDRulWIag_12nestgate_api8handlers17metrics_collectorNtB2_24RealTimeMetricsCollector18get_real_cpu_usage
FN:238,_RNvMNtNtCs5HKDRulWIag_12nestgate_api8handlers17metrics_collectorNtB2_24RealTimeMetricsCollector19get_current_metrics
FN:645,_RNvMNtNtCs5HKDRulWIag_12nestgate_api8handlers17metrics_collectorNtB2_24RealTimeMetricsCollector19get_historical_data
FN:416,_RNvMNtNtCs5HKDRulWIag_12nestgate_api8handlers17metrics_collectorNtB2_24RealTimeMetricsCollector19get_real_network_io
FN:685,_RNvMNtNtCs5HKDRulWIag_12nestgate_api8handlers17metrics_collectorNtB2_24RealTimeMetricsCollector20get_all_pool_metrics
FN:360,_RNvMNtNtCs5HKDRulWIag_12nestgate_api8handlers17metrics_collectorNtB2_24RealTimeMetricsCollector20get_real_memory_info
FN:663,_RNvMNtNtCs5HKDRulWIag_12nestgate_api8handlers17metrics_collectorNtB2_24RealTimeMetricsCollector20get_system_resources
FN:699,_RNvMNtNtCs5HKDRulWIag_12nestgate_api8handlers17metrics_collectorNtB2_24RealTimeMetricsCollector22get_io_historical_data
FN:589,_RNvMNtNtCs5HKDRulWIag_12nestgate_api8handlers17metrics_collectorNtB2_24RealTimeMetricsCollector23collect_zfs_cache_stats
FN:532,_RNvMNtNtCs5HKDRulWIag_12nestgate_api8handlers17metrics_collectorNtB2_24RealTimeMetricsCollector24collect_zfs_pool_metrics
FN:299,_RNvMNtNtCs5HKDRulWIag_12nestgate_api8handlers17metrics_collectorNtB2_24RealTimeMetricsCollector27collect_real_system_metrics
FN:744,_RNvMNtNtCs5HKDRulWIag_12nestgate_api8handlers17metrics_collectorNtB2_24RealTimeMetricsCollector28get_capacity_historical_data
FN:730,_RNvMNtNtCs5HKDRulWIag_12nestgate_api8handlers17metrics_collectorNtB2_24RealTimeMetricsCollector33get_comprehensive_historical_data
FN:219,_RNvMNtNtCs5HKDRulWIag_12nestgate_api8handlers17metrics_collectorNtB2_24RealTimeMetricsCollector3new
FN:774,_RNvXs0_NtNtCs5HKDRulWIag_12nestgate_api8handlers17metrics_collectorNtB5_21MetricsCollectorStateNtNtCs5GmCzIpY9Qj_4core7default7Default7default
FN:755,_RNvXs_NtNtCs5HKDRulWIag_12nestgate_api8handlers17metrics_collectorNtB4_24RealTimeMetricsCollectorNtNtCs5GmCzIpY9Qj_4core7default7Default7default
FNDA:0,_RNCNCNvMNtNtCs5HKDRulWIag_12nestgate_api8handlers17metrics_collectorNtB6_24RealTimeMetricsCollector19get_current_metrics0s_0Ba_
FNDA:0,_RNCNvMNtNtCs5HKDRulWIag_12nestgate_api8handlers17metrics_collectorNtB4_24RealTimeMetricsCollector16get_real_disk_io0B8_
FNDA:0,_RNCNvMNtNtCs5HKDRulWIag_12nestgate_api8handlers17metrics_collectorNtB4_24RealTimeMetricsCollector18get_real_cpu_usage0B8_
FNDA:0,_RNCNvMNtNtCs5HKDRulWIag_12nestgate_api8handlers17metrics_collectorNtB4_24RealTimeMetricsCollector19get_current_metrics0B8_
FNDA:0,_RNCNvMNtNtCs5HKDRulWIag_12nestgate_api8handlers17metrics_collectorNtB4_24RealTimeMetricsCollector19get_real_network_io0B8_
FNDA:0,_RNCNvMNtNtCs5HKDRulWIag_12nestgate_api8handlers17metrics_collectorNtB4_24RealTimeMetricsCollector20get_real_memory_info0B8_
FNDA:0,_RNCNvMNtNtCs5HKDRulWIag_12nestgate_api8handlers17metrics_collectorNtB4_24RealTimeMetricsCollector23collect_zfs_cache_stats0B8_
FNDA:0,_RNCNvMNtNtCs5HKDRulWIag_12nestgate_api8handlers17metrics_collectorNtB4_24RealTimeMetricsCollector24collect_zfs_pool_metrics0B8_
FNDA:0,_RNCNvMNtNtCs5HKDRulWIag_12nestgate_api8handlers17metrics_collectorNtB4_24RealTimeMetricsCollector27collect_real_system_metrics0B8_
FNDA:0,_RNvMNtNtCs5HKDRulWIag_12nestgate_api8handlers17metrics_collectorNtB2_24RealTimeMetricsCollector16get_real_disk_io
FNDA:0,_RNvMNtNtCs5HKDRulWIag_12nestgate_api8handlers17metrics_collectorNtB2_24RealTimeMetricsCollector16start_collection
FNDA:0,_RNvMNtNtCs5HKDRulWIag_12nestgate_api8handlers17metrics_collectorNtB2_24RealTimeMetricsCollector17get_cache_metrics
FNDA:0,_RNvMNtNtCs5HKDRulWIag_12nestgate_api8handlers17metrics_collectorNtB2_24RealTimeMetricsCollector18get_real_cpu_usage
FNDA:0,_RNvMNtNtCs5HKDRulWIag_12nestgate_api8handlers17metrics_collectorNtB2_24RealTimeMetricsCollector19get_current_metrics
FNDA:0,_RNvMNtNtCs5HKDRulWIag_12nestgate_api8handlers17metrics_collectorNtB2_24RealTimeMetricsCollector19get_historical_data
FNDA:0,_RNvMNtNtCs5HKDRulWIag_12nestgate_api8handlers17metrics_collectorNtB2_24RealTimeMetricsCollector19get_real_network_io
FNDA:0,_RNvMNtNtCs5HKDRulWIag_12nestgate_api8handlers17metrics_collectorNtB2_24RealTimeMetricsCollector20get_all_pool_metrics
FNDA:0,_RNvMNtNtCs5HKDRulWIag_12nestgate_api8handlers17metrics_collectorNtB2_24RealTimeMetricsCollector20get_real_memory_info
FNDA:0,_RNvMNtNtCs5HKDRulWIag_12nestgate_api8handlers17metrics_collectorNtB2_24RealTimeMetricsCollector20get_system_resources
FNDA:0,_RNvMNtNtCs5HKDRulWIag_12nestgate_api8handlers17metrics_collectorNtB2_24RealTimeMetricsCollector22get_io_historical_data
FNDA:0,_RNvMNtNtCs5HKDRulWIag_12nestgate_api8handlers17metrics_collectorNtB2_24RealTimeMetricsCollector23collect_zfs_cache_stats
FNDA:0,_RNvMNtNtCs5HKDRulWIag_12nestgate_api8handlers17metrics_collectorNtB2_24RealTimeMetricsCollector24collect_zfs_pool_metrics
FNDA:0,_RNvMNtNtCs5HKDRulWIag_12nestgate_api8handlers17metrics_collectorNtB2_24RealTimeMetricsCollector27collect_real_system_metrics
FNDA:0,_RNvMNtNtCs5HKDRulWIag_12nestgate_api8handlers17metrics_collectorNtB2_24RealTimeMetricsCollector28get_capacity_historical_data
FNDA:0,_RNvMNtNtCs5HKDRulWIag_12nestgate_api8handlers17metrics_collectorNtB2_24RealTimeMetricsCollector33get_comprehensive_historical_data
FNDA:0,_RNvMNtNtCs5HKDRulWIag_12nestgate_api8handlers17metrics_collectorNtB2_24RealTimeMetricsCollector3new
FNDA:0,_RNvXs0_NtNtCs5HKDRulWIag_12nestgate_api8handlers17metrics_collectorNtB5_21MetricsCollectorStateNtNtCs5GmCzIpY9Qj_4core7default7Default7default
FNDA:0,_RNvXs_NtNtCs5HKDRulWIag_12nestgate_api8handlers17metrics_collectorNtB4_24RealTimeMetricsCollectorNtNtCs5GmCzIpY9Qj_4core7default7Default7default
FNF:28
FNH:0
DA:219,0
DA:220,0
DA:221,0
DA:224,0
DA:226,0
DA:228,0
DA:238,0
DA:239,0
DA:242,0
DA:245,0
DA:246,0
DA:247,0
DA:250,0
DA:251,0
DA:254,0
DA:256,0
DA:257,0
DA:259,0
DA:260,0
DA:261,0
DA:262,0
DA:266,0
DA:268,0
DA:269,0
DA:272,0
DA:273,0
DA:276,0
DA:277,0
DA:278,0
DA:281,0
DA:282,0
DA:285,0
DA:286,0
DA:287,0
DA:288,0
DA:289,0
DA:290,0
DA:291,0
DA:292,0
DA:293,0
DA:294,0
DA:295,0
DA:296,0
DA:299,0
DA:300,0
DA:303,0
DA:306,0
DA:309,0
DA:312,0
DA:314,0
DA:315,0
DA:316,0
DA:317,0
DA:318,0
DA:319,0
DA:320,0
DA:321,0
DA:322,0
DA:325,0
DA:326,0
DA:327,0
DA:328,0
DA:329,0
DA:330,0
DA:331,0
DA:332,0
DA:333,0
DA:334,0
DA:335,0
DA:336,0
DA:337,0
DA:339,0
DA:340,0
DA:342,0
DA:343,0
DA:344,0
DA:345,0
DA:346,0
DA:347,0
DA:348,0
DA:349,0
DA:350,0
DA:352,0
DA:353,0
DA:354,0
DA:357,0
DA:360,0
DA:361,0
DA:362,0
DA:363,0
DA:364,0
DA:365,0
DA:366,0
DA:367,0
DA:369,0
DA:370,0
DA:371,0
DA:372,0
DA:373,0
DA:375,0
DA:376,0
DA:377,0
DA:378,0
DA:379,0
DA:380,0
DA:381,0
DA:383,0
DA:387,0
DA:388,0
DA:389,0
DA:391,0
DA:392,0
DA:393,0
DA:395,0
DA:396,0
DA:398,0
DA:399,0
DA:402,0
DA:403,0
DA:405,0
DA:406,0
DA:408,0
DA:409,0
DA:410,0
DA:413,0
DA:416,0
DA:417,0
DA:418,0
DA:419,0
DA:420,0
DA:421,0
DA:422,0
DA:425,0
DA:426,0
DA:427,0
DA:429,0
DA:430,0
DA:431,0
DA:434,0
DA:435,0
DA:438,0
DA:439,0
DA:440,0
DA:443,0
DA:444,0
DA:445,0
DA:446,0
DA:447,0
DA:448,0
DA:451,0
DA:452,0
DA:453,0
DA:454,0
DA:455,0
DA:456,0
DA:458,0
DA:459,0
DA:460,0
DA:461,0
DA:462,0
DA:463,0
DA:464,0
DA:465,0
DA:468,0
DA:471,0
DA:472,0
DA:473,0
DA:474,0
DA:475,0
DA:476,0
DA:477,0
DA:479,0
DA:480,0
DA:481,0
DA:483,0
DA:484,0
DA:485,0
DA:488,0
DA:489,0
DA:492,0
DA:493,0
DA:495,0
DA:496,0
DA:499,0
DA:500,0
DA:501,0
DA:504,0
DA:505,0
DA:506,0
DA:507,0
DA:508,0
DA:509,0
DA:512,0
DA:513,0
DA:514,0
DA:515,0
DA:516,0
DA:517,0
DA:519,0
DA:520,0
DA:521,0
DA:522,0
DA:523,0
DA:524,0
DA:525,0
DA:526,0
DA:529,0
DA:532,0
DA:534,0
DA:535,0
DA:536,0
DA:537,0
DA:539,0
DA:540,0
DA:541,0
DA:543,0
DA:544,0
DA:545,0
DA:546,0
DA:547,0
DA:548,0
DA:549,0
DA:550,0
DA:551,0
DA:553,0
DA:555,0
DA:557,0
DA:558,0
DA:559,0
DA:560,0
DA:561,0
DA:562,0
DA:563,0
DA:564,0
DA:565,0
DA:566,0
DA:567,0
DA:568,0
DA:569,0
DA:570,0
DA:571,0
DA:574,0
DA:575,0
DA:576,0
DA:577,0
DA:579,0
DA:582,0
DA:583,0
DA:586,0
DA:589,0
DA:591,0
DA:592,0
DA:593,0
DA:594,0
DA:595,0
DA:597,0
DA:598,0
DA:599,0
DA:600,0
DA:601,0
DA:602,0
DA:603,0
DA:604,0
DA:605,0
DA:607,0
DA:610,0
DA:611,0
DA:612,0
DA:614,0
DA:617,0
DA:618,0
DA:619,0
DA:621,0
DA:624,0
DA:625,0
DA:630,0
DA:632,0
DA:633,0
DA:635,0
DA:645,0
DA:646,0
DA:647,0
DA:648,0
DA:649,0
DA:651,0
DA:652,0
DA:653,0
DA:663,0
DA:665,0
DA:666,0
DA:667,0
DA:668,0
DA:669,0
DA:670,0
DA:671,0
DA:672,0
DA:673,0
DA:674,0
DA:675,0
DA:685,0
DA:687,0
DA:688,0
DA:689,0
DA:699,0
DA:700,0
DA:701,0
DA:702,0
DA:704,0
DA:705,0
DA:706,0
DA:716,0
DA:718,0
DA:719,0
DA:720,0
DA:730,0
DA:732,0
DA:733,0
DA:734,0
DA:744,0
DA:745,0
DA:746,0
DA:747,0
DA:749,0
DA:750,0
DA:751,0
DA:755,0
DA:756,0
DA:757,0
DA:774,0
DA:775,0
DA:776,0
DA:777,0
DA:778,0
DA:779,0
DA:780,0
DA:781,0
DA:782,0
BRF:0
BRH:0
LF:346
LH:0
end_of_record
SF:/home/eastgate/Development/ecoPrimals/nestgate/code/crates/nestgate-api/src/handlers/mod.rs
FN:301,_RNvMs1_NtCs5HKDRulWIag_12nestgate_api8handlersNtB5_17ComplianceHandler3new
FN:325,_RNvMs3_NtCs5HKDRulWIag_12nestgate_api8handlersNtB5_13HealthHandler3new
FN:346,_RNvMs5_NtCs5HKDRulWIag_12nestgate_api8handlersNtB5_15LoadTestHandler3new
FN:369,_RNvMs7_NtCs5HKDRulWIag_12nestgate_api8handlersNtB5_16MetricsCollector3new
FN:392,_RNvMs9_NtCs5HKDRulWIag_12nestgate_api8handlersNtB5_19PerformanceAnalyzer3new
FN:278,_RNvMs_NtCs5HKDRulWIag_12nestgate_api8handlersNtB4_14AIFirstHandler3new
FN:415,_RNvMsb_NtCs5HKDRulWIag_12nestgate_api8handlersNtB5_14StorageHandler3new
FN:438,_RNvMsd_NtCs5HKDRulWIag_12nestgate_api8handlersNtB5_16WorkspaceManager3new
FN:461,_RNvMsf_NtCs5HKDRulWIag_12nestgate_api8handlersNtB5_10ZfsHandler3new
FN:486,_RNvMsh_NtCs5HKDRulWIag_12nestgate_api8handlersNtB5_17ComplianceManager3new
FN:513,_RNvMsj_NtCs5HKDRulWIag_12nestgate_api8handlersNtB5_15LoadTestManager3new
FN:538,_RNvMsl_NtCs5HKDRulWIag_12nestgate_api8handlersNtB5_26PerformanceAnalyzerManager3new
FN:563,_RNvMsn_NtCs5HKDRulWIag_12nestgate_api8handlersNtB5_23WorkspaceManagerWrapper3new
FN:589,_RNvMsp_NtCs5HKDRulWIag_12nestgate_api8handlersNtB5_10ZfsManager3new
FN:614,_RNvMsr_NtCs5HKDRulWIag_12nestgate_api8handlersNtB5_9ApiRouter3new
FN:251,_RNvNtCs5HKDRulWIag_12nestgate_api8handlers18handler_categories
FN:231,_RNvNtCs5HKDRulWIag_12nestgate_api8handlers20is_handler_available
FN:270,_RNvXNtCs5HKDRulWIag_12nestgate_api8handlersNtB2_14AIFirstHandlerNtNtCs5GmCzIpY9Qj_4core7default7Default7default
FN:293,_RNvXs0_NtCs5HKDRulWIag_12nestgate_api8handlersNtB5_17ComplianceHandlerNtNtCs5GmCzIpY9Qj_4core7default7Default7default
FN:317,_RNvXs2_NtCs5HKDRulWIag_12nestgate_api8handlersNtB5_13HealthHandlerNtNtCs5GmCzIpY9Qj_4core7default7Default7default
FN:338,_RNvXs4_NtCs5HKDRulWIag_12nestgate_api8handlersNtB5_15LoadTestHandlerNtNtCs5GmCzIpY9Qj_4core7default7Default7default
FN:361,_RNvXs6_NtCs5HKDRulWIag_12nestgate_api8handlersNtB5_16MetricsCollectorNtNtCs5GmCzIpY9Qj_4core7default7Default7default
FN:384,_RNvXs8_NtCs5HKDRulWIag_12nestgate_api8handlersNtB5_19PerformanceAnalyzerNtNtCs5GmCzIpY9Qj_4core7default7Default7default
FN:407,_RNvXsa_NtCs5HKDRulWIag_12nestgate_api8handlersNtB5_14StorageHandlerNtNtCs5GmCzIpY9Qj_4core7default7Default7default
FN:430,_RNvXsc_NtCs5HKDRulWIag_12nestgate_api8handlersNtB5_16WorkspaceManagerNtNtCs5GmCzIpY9Qj_4core7default7Default7default
FN:453,_RNvXse_NtCs5HKDRulWIag_12nestgate_api8handlersNtB5_10ZfsHandlerNtNtCs5GmCzIpY9Qj_4core7default7Default7default
FN:478,_RNvXsg_NtCs5HKDRulWIag_12nestgate_api8handlersNtB5_17ComplianceManagerNtNtCs5GmCzIpY9Qj_4core7default7Default7default
FN:505,_RNvXsi_NtCs5HKDRulWIag_12nestgate_api8handlersNtB5_15LoadTestManagerNtNtCs5GmCzIpY9Qj_4core7default7Default7default
FN:530,_RNvXsk_NtCs5HKDRulWIag_12nestgate_api8handlersNtB5_26PerformanceAnalyzerManagerNtNtCs5GmCzIpY9Qj_4core7default7Default7default
FN:555,_RNvXsm_NtCs5HKDRulWIag_12nestgate_api8handlersNtB5_23WorkspaceManagerWrapperNtNtCs5GmCzIpY9Qj_4core7default7Default7default
FN:581,_RNvXso_NtCs5HKDRulWIag_12nestgate_api8handlersNtB5_10ZfsManagerNtNtCs5GmCzIpY9Qj_4core7default7Default7default
FN:606,_RNvXsq_NtCs5HKDRulWIag_12nestgate_api8handlersNtB5_9ApiRouterNtNtCs5GmCzIpY9Qj_4core7default7Default7default
FNDA:0,_RNvMs1_NtCs5HKDRulWIag_12nestgate_api8handlersNtB5_17ComplianceHandler3new
FNDA:0,_RNvMs3_NtCs5HKDRulWIag_12nestgate_api8handlersNtB5_13HealthHandler3new
FNDA:0,_RNvMs5_NtCs5HKDRulWIag_12nestgate_api8handlersNtB5_15LoadTestHandler3new
FNDA:0,_RNvMs7_NtCs5HKDRulWIag_12nestgate_api8handlersNtB5_16MetricsCollector3new
FNDA:0,_RNvMs9_NtCs5HKDRulWIag_12nestgate_api8handlersNtB5_19PerformanceAnalyzer3new
FNDA:0,_RNvMs_NtCs5HKDRulWIag_12nestgate_api8handlersNtB4_14AIFirstHandler3new
FNDA:0,_RNvMsb_NtCs5HKDRulWIag_12nestgate_api8handlersNtB5_14StorageHandler3new
FNDA:0,_RNvMsd_NtCs5HKDRulWIag_12nestgate_api8handlersNtB5_16WorkspaceManager3new
FNDA:0,_RNvMsf_NtCs5HKDRulWIag_12nestgate_api8handlersNtB5_10ZfsHandler3new
FNDA:0,_RNvMsh_NtCs5HKDRulWIag_12nestgate_api8handlersNtB5_17ComplianceManager3new
FNDA:0,_RNvMsj_NtCs5HKDRulWIag_12nestgate_api8handlersNtB5_15LoadTestManager3new
FNDA:0,_RNvMsl_NtCs5HKDRulWIag_12nestgate_api8handlersNtB5_26PerformanceAnalyzerManager3new
FNDA:0,_RNvMsn_NtCs5HKDRulWIag_12nestgate_api8handlersNtB5_23WorkspaceManagerWrapper3new
FNDA:0,_RNvMsp_NtCs5HKDRulWIag_12nestgate_api8handlersNtB5_10ZfsManager3new
FNDA:0,_RNvMsr_NtCs5HKDRulWIag_12nestgate_api8handlersNtB5_9ApiRouter3new
FNDA:0,_RNvNtCs5HKDRulWIag_12nestgate_api8handlers18handler_categories
FNDA:0,_RNvNtCs5HKDRulWIag_12nestgate_api8handlers20is_handler_available
FNDA:0,_RNvXNtCs5HKDRulWIag_12nestgate_api8handlersNtB2_14AIFirstHandlerNtNtCs5GmCzIpY9Qj_4core7default7Default7default
FNDA:0,_RNvXs0_NtCs5HKDRulWIag_12nestgate_api8handlersNtB5_17ComplianceHandlerNtNtCs5GmCzIpY9Qj_4core7default7Default7default
FNDA:0,_RNvXs2_NtCs5HKDRulWIag_12nestgate_api8handlersNtB5_13HealthHandlerNtNtCs5GmCzIpY9Qj_4core7default7Default7default
FNDA:0,_RNvXs4_NtCs5HKDRulWIag_12nestgate_api8handlersNtB5_15LoadTestHandlerNtNtCs5GmCzIpY9Qj_4core7default7Default7default
FNDA:0,_RNvXs6_NtCs5HKDRulWIag_12nestgate_api8handlersNtB5_16MetricsCollectorNtNtCs5GmCzIpY9Qj_4core7default7Default7default
FNDA:0,_RNvXs8_NtCs5HKDRulWIag_12nestgate_api8handlersNtB5_19PerformanceAnalyzerNtNtCs5GmCzIpY9Qj_4core7default7Default7default
FNDA:0,_RNvXsa_NtCs5HKDRulWIag_12nestgate_api8handlersNtB5_14StorageHandlerNtNtCs5GmCzIpY9Qj_4core7default7Default7default
FNDA:0,_RNvXsc_NtCs5HKDRulWIag_12nestgate_api8handlersNtB5_16WorkspaceManagerNtNtCs5GmCzIpY9Qj_4core7default7Default7default
FNDA:0,_RNvXse_NtCs5HKDRulWIag_12nestgate_api8handlersNtB5_10ZfsHandlerNtNtCs5GmCzIpY9Qj_4core7default7Default7default
FNDA:0,_RNvXsg_NtCs5HKDRulWIag_12nestgate_api8handlersNtB5_17ComplianceManagerNtNtCs5GmCzIpY9Qj_4core7default7Default7default
FNDA:0,_RNvXsi_NtCs5HKDRulWIag_12nestgate_api8handlersNtB5_15LoadTestManagerNtNtCs5GmCzIpY9Qj_4core7default7Default7default
FNDA:0,_RNvXsk_NtCs5HKDRulWIag_12nestgate_api8handlersNtB5_26PerformanceAnalyzerManagerNtNtCs5GmCzIpY9Qj_4core7default7Default7default
FNDA:0,_RNvXsm_NtCs5HKDRulWIag_12nestgate_api8handlersNtB5_23WorkspaceManagerWrapperNtNtCs5GmCzIpY9Qj_4core7default7Default7default
FNDA:0,_RNvXso_NtCs5HKDRulWIag_12nestgate_api8handlersNtB5_10ZfsManagerNtNtCs5GmCzIpY9Qj_4core7default7Default7default
FNDA:0,_RNvXsq_NtCs5HKDRulWIag_12nestgate_api8handlersNtB5_9ApiRouterNtNtCs5GmCzIpY9Qj_4core7default7Default7default
FNF:32
FNH:0
DA:231,0
DA:243,0
DA:244,0
DA:251,0
DA:252,0
DA:253,0
DA:254,0
DA:255,0
DA:256,0
DA:258,0
DA:270,0
DA:271,0
DA:272,0
DA:278,0
DA:279,0
DA:280,0
DA:281,0
DA:282,0
DA:293,0
DA:294,0
DA:295,0
DA:301,0
DA:302,0
DA:303,0
DA:304,0
DA:305,0
DA:306,0
DA:307,0
DA:317,0
DA:318,0
DA:319,0
DA:325,0
DA:326,0
DA:327,0
DA:338,0
DA:339,0
DA:340,0
DA:346,0
DA:347,0
DA:348,0
DA:349,0
DA:350,0
DA:361,0
DA:362,0
DA:363,0
DA:369,0
DA:370,0
DA:371,0
DA:372,0
DA:373,0
DA:384,0
DA:385,0
DA:386,0
DA:392,0
DA:393,0
DA:394,0
DA:395,0
DA:396,0
DA:407,0
DA:408,0
DA:409,0
DA:415,0
DA:416,0
DA:417,0
DA:418,0
DA:419,0
DA:430,0
DA:431,0
DA:432,0
DA:438,0
DA:439,0
DA:440,0
DA:441,0
DA:442,0
DA:453,0
DA:454,0
DA:455,0
DA:461,0
DA:462,0
DA:463,0
DA:464,0
DA:465,0
DA:478,0
DA:479,0
DA:480,0
DA:486,0
DA:487,0
DA:488,0
DA:489,0
DA:490,0
DA:505,0
DA:506,0
DA:507,0
DA:513,0
DA:514,0
DA:515,0
DA:516,0
DA:517,0
DA:530,0
DA:531,0
DA:532,0
DA:538,0
DA:539,0
DA:540,0
DA:541,0
DA:542,0
DA:555,0
DA:556,0
DA:557,0
DA:563,0
DA:564,0
DA:565,0
DA:566,0
DA:567,0
DA:581,0
DA:582,0
DA:583,0
DA:589,0
DA:590,0
DA:591,0
DA:592,0
DA:593,0
DA:606,0
DA:607,0
DA:608,0
DA:614,0
DA:615,0
DA:616,0
DA:617,0
DA:618,0
BRF:0
BRH:0
LF:130
LH:0
end_of_record
SF:/home/eastgate/Development/ecoPrimals/nestgate/code/crates/nestgate-api/src/handlers/performance_analytics.rs
FN:93,_RNCNvNtNtCs5HKDRulWIag_12nestgate_api8handlers21performance_analytics22get_performance_alerts0B7_
FN:74,_RNCNvNtNtCs5HKDRulWIag_12nestgate_api8handlers21performance_analytics23get_performance_metrics0B7_
FN:116,_RNCNvNtNtCs5HKDRulWIag_12nestgate_api8handlers21performance_analytics31get_performance_recommendations0B7_
FN:93,_RNvNtNtCs5HKDRulWIag_12nestgate_api8handlers21performance_analytics22get_performance_alerts
FN:74,_RNvNtNtCs5HKDRulWIag_12nestgate_api8handlers21performance_analytics23get_performance_metrics
FN:115,_RNvNtNtCs5HKDRulWIag_12nestgate_api8handlers21performance_analytics31get_performance_recommendations
FNDA:0,_RNCNvNtNtCs5HKDRulWIag_12nestgate_api8handlers21performance_analytics22get_performance_alerts0B7_
FNDA:0,_RNCNvNtNtCs5HKDRulWIag_12nestgate_api8handlers21performance_analytics23get_performance_metrics0B7_
FNDA:0,_RNCNvNtNtCs5HKDRulWIag_12nestgate_api8handlers21performance_analytics31get_performance_recommendations0B7_
FNDA:0,_RNvNtNtCs5HKDRulWIag_12nestgate_api8handlers21performance_analytics22get_performance_alerts
FNDA:0,_RNvNtNtCs5HKDRulWIag_12nestgate_api8handlers21performance_analytics23get_performance_metrics
FNDA:0,_RNvNtNtCs5HKDRulWIag_12nestgate_api8handlers21performance_analytics31get_performance_recommendations
FNF:6
FNH:0
DA:74,0
DA:75,0
DA:76,0
DA:77,0
DA:78,0
DA:79,0
DA:81,0
DA:82,0
DA:83,0
DA:84,0
DA:86,0
DA:87,0
DA:93,0
DA:94,0
DA:95,0
DA:96,0
DA:97,0
DA:98,0
DA:99,0
DA:100,0
DA:101,0
DA:102,0
DA:103,0
DA:104,0
DA:105,0
DA:106,0
DA:109,0
DA:110,0
DA:115,0
DA:116,0
DA:117,0
DA:118,0
DA:119,0
DA:120,0
DA:121,0
DA:122,0
DA:123,0
DA:124,0
DA:125,0
DA:126,0
DA:127,0
DA:128,0
DA:129,0
DA:130,0
DA:131,0
DA:134,0
DA:135,0
BRF:0
BRH:0
LF:50
LH:0
end_of_record
SF:/home/eastgate/Development/ecoPrimals/nestgate/code/crates/nestgate-api/src/handlers/performance_analyzer/analyzer.rs
FN:52,_RNvMNtNtNtCs5HKDRulWIag_12nestgate_api8handlers20performance_analyzer8analyzerNtB2_19PerformanceAnalyzer11analyze_cpu
FN:77,_RNvMNtNtNtCs5HKDRulWIag_12nestgate_api8handlers20performance_analyzer8analyzerNtB2_19PerformanceAnalyzer12analyze_disk
FN:68,_RNvMNtNtNtCs5HKDRulWIag_12nestgate_api8handlers20performance_analyzer8analyzerNtB2_19PerformanceAnalyzer14analyze_memory
FN:30,_RNvMNtNtNtCs5HKDRulWIag_12nestgate_api8handlers20performance_analyzer8analyzerNtB2_19PerformanceAnalyzer15analyze_metrics
FN:89,_RNvMNtNtNtCs5HKDRulWIag_12nestgate_api8handlers20performance_analyzer8analyzerNtB2_19PerformanceAnalyzer15analyze_network
FN:42,_RNvMNtNtNtCs5HKDRulWIag_12nestgate_api8handlers20performance_analyzer8analyzerNtB2_19PerformanceAnalyzer23calculate_overall_score
FN:104,_RNvMNtNtNtCs5HKDRulWIag_12nestgate_api8handlers20performance_analyzer8analyzerNtB2_19PerformanceAnalyzer24generate_recommendations
FN:18,_RNvMNtNtNtCs5HKDRulWIag_12nestgate_api8handlers20performance_analyzer8analyzerNtB2_19PerformanceAnalyzer3new
FN:124,_RNvXs_NtNtNtCs5HKDRulWIag_12nestgate_api8handlers20performance_analyzer8analyzerNtB4_14AnalyzerConfigNtNtCs5GmCzIpY9Qj_4core7default7Default7default
FNDA:0,_RNvMNtNtNtCs5HKDRulWIag_12nestgate_api8handlers20performance_analyzer8analyzerNtB2_19PerformanceAnalyzer11analyze_cpu
FNDA:0,_RNvMNtNtNtCs5HKDRulWIag_12nestgate_api8handlers20performance_analyzer8analyzerNtB2_19PerformanceAnalyzer12analyze_disk
FNDA:0,_RNvMNtNtNtCs5HKDRulWIag_12nestgate_api8handlers20performance_analyzer8analyzerNtB2_19PerformanceAnalyzer14analyze_memory
FNDA:0,_RNvMNtNtNtCs5HKDRulWIag_12nestgate_api8handlers20performance_analyzer8analyzerNtB2_19PerformanceAnalyzer15analyze_metrics
FNDA:0,_RNvMNtNtNtCs5HKDRulWIag_12nestgate_api8handlers20performance_analyzer8analyzerNtB2_19PerformanceAnalyzer15analyze_network
FNDA:0,_RNvMNtNtNtCs5HKDRulWIag_12nestgate_api8handlers20performance_analyzer8analyzerNtB2_19PerformanceAnalyzer23calculate_overall_score
FNDA:0,_RNvMNtNtNtCs5HKDRulWIag_12nestgate_api8handlers20performance_analyzer8analyzerNtB2_19PerformanceAnalyzer24generate_recommendations
FNDA:0,_RNvMNtNtNtCs5HKDRulWIag_12nestgate_api8handlers20performance_analyzer8analyzerNtB2_19PerformanceAnalyzer3new
FNDA:0,_RNvXs_NtNtNtCs5HKDRulWIag_12nestgate_api8handlers20performance_analyzer8analyzerNtB4_14AnalyzerConfigNtNtCs5GmCzIpY9Qj_4core7default7Default7default
FNF:9
FNH:0
DA:18,0
DA:19,0
DA:20,0
DA:30,0
DA:31,0
DA:32,0
DA:33,0
DA:34,0
DA:35,0
DA:36,0
DA:37,0
DA:38,0
DA:39,0
DA:40,0
DA:42,0
DA:44,0
DA:45,0
DA:46,0
DA:47,0
DA:49,0
DA:50,0
DA:52,0
DA:53,0
DA:54,0
DA:55,0
DA:56,0
DA:58,0
DA:61,0
DA:62,0
DA:63,0
DA:64,0
DA:65,0
DA:66,0
DA:68,0
DA:70,0
DA:71,0
DA:72,0
DA:73,0
DA:74,0
DA:75,0
DA:77,0
DA:78,0
DA:79,0
DA:80,0
DA:81,0
DA:82,0
DA:83,0
DA:84,0
DA:85,0
DA:86,0
DA:87,0
DA:89,0
DA:90,0
DA:91,0
DA:92,0
DA:93,0
DA:94,0
DA:95,0
DA:96,0
DA:97,0
DA:98,0
DA:99,0
DA:100,0
DA:101,0
DA:102,0
DA:104,0
DA:105,0
DA:106,0
DA:107,0
DA:109,0
DA:124,0
DA:125,0
DA:126,0
DA:127,0
DA:128,0
DA:129,0
DA:130,0
BRF:0
BRH:0
LF:77
LH:0
end_of_record
SF:/home/eastgate/Development/ecoPrimals/nestgate/code/crates/nestgate-api/src/handlers/performance_analyzer/collectors.rs
FN:133,_RNCNCNvMs_NtNtNtCs5HKDRulWIag_12nestgate_api8handlers20performance_analyzer10collectorsNtB8_14BatchCollector13collect_batch00Be_
FN:36,_RNCNvMNtNtNtCs5HKDRulWIag_12nestgate_api8handlers20performance_analyzer10collectorsNtB4_13DataCollector16start_collection0Ba_
FN:62,_RNCNvMNtNtNtCs5HKDRulWIag_12nestgate_api8handlers20performance_analyzer10collectorsNtB4_13DataCollector19collect_all_metrics0Ba_
FN:74,_RNCNvMNtNtNtCs5HKDRulWIag_12nestgate_api8handlers20performance_analyzer10collectorsNtB4_13DataCollector19get_latest_snapshot0Ba_
FN:128,_RNCNvMs_NtNtNtCs5HKDRulWIag_12nestgate_api8handlers20performance_analyzer10collectorsNtB6_14BatchCollector13collect_batch0Bc_
FN:36,_RNvMNtNtNtCs5HKDRulWIag_12nestgate_api8handlers20performance_analyzer10collectorsNtB2_13DataCollector16start_collection
FN:62,_RNvMNtNtNtCs5HKDRulWIag_12nestgate_api8handlers20performance_analyzer10collectorsNtB2_13DataCollector19collect_all_metrics
FN:74,_RNvMNtNtNtCs5HKDRulWIag_12nestgate_api8handlers20performance_analyzer10collectorsNtB2_13DataCollector19get_latest_snapshot
FN:21,_RNvMNtNtNtCs5HKDRulWIag_12nestgate_api8handlers20performance_analyzer10collectorsNtB2_13DataCollector3new
FN:128,_RNvMs_NtNtNtCs5HKDRulWIag_12nestgate_api8handlers20performance_analyzer10collectorsNtB4_14BatchCollector13collect_batch
FN:108,_RNvMs_NtNtNtCs5HKDRulWIag_12nestgate_api8handlers20performance_analyzer10collectorsNtB4_14BatchCollector3new
FNDA:0,_RNCNCNvMs_NtNtNtCs5HKDRulWIag_12nestgate_api8handlers20performance_analyzer10collectorsNtB8_14BatchCollector13collect_batch00Be_
FNDA:0,_RNCNvMNtNtNtCs5HKDRulWIag_12nestgate_api8handlers20performance_analyzer10collectorsNtB4_13DataCollector16start_collection0Ba_
FNDA:0,_RNCNvMNtNtNtCs5HKDRulWIag_12nestgate_api8handlers20performance_analyzer10collectorsNtB4_13DataCollector19collect_all_metrics0Ba_
FNDA:0,_RNCNvMNtNtNtCs5HKDRulWIag_12nestgate_api8handlers20performance_analyzer10collectorsNtB4_13DataCollector19get_latest_snapshot0Ba_
FNDA:0,_RNCNvMs_NtNtNtCs5HKDRulWIag_12nestgate_api8handlers20performance_analyzer10collectorsNtB6_14BatchCollector13collect_batch0Bc_
FNDA:0,_RNvMNtNtNtCs5HKDRulWIag_12nestgate_api8handlers20performance_analyzer10collectorsNtB2_13DataCollector16start_collection
FNDA:0,_RNvMNtNtNtCs5HKDRulWIag_12nestgate_api8handlers20performance_analyzer10collectorsNtB2_13DataCollector19collect_all_metrics
FNDA:0,_RNvMNtNtNtCs5HKDRulWIag_12nestgate_api8handlers20performance_analyzer10collectorsNtB2_13DataCollector19get_latest_snapshot
FNDA:0,_RNvMNtNtNtCs5HKDRulWIag_12nestgate_api8handlers20performance_analyzer10collectorsNtB2_13DataCollector3new
FNDA:0,_RNvMs_NtNtNtCs5HKDRulWIag_12nestgate_api8handlers20performance_analyzer10collectorsNtB4_14BatchCollector13collect_batch
FNDA:0,_RNvMs_NtNtNtCs5HKDRulWIag_12nestgate_api8handlers20performance_analyzer10collectorsNtB4_14BatchCollector3new
FNF:11
FNH:0
DA:21,0
DA:22,0
DA:23,0
DA:24,0
DA:25,0
DA:26,0
DA:36,0
DA:37,0
DA:40,0
DA:42,0
DA:43,0
DA:44,0
DA:47,0
DA:48,0
DA:62,0
DA:63,0
DA:64,0
DA:74,0
DA:75,0
DA:77,0
DA:78,0
DA:79,0
DA:80,0
DA:81,0
DA:82,0
DA:108,0
DA:109,0
DA:110,0
DA:111,0
DA:112,0
DA:114,0
DA:115,0
DA:116,0
DA:117,0
DA:118,0
DA:128,0
DA:129,0
DA:131,0
DA:132,0
DA:133,0
DA:134,0
DA:135,0
DA:138,0
DA:139,0
DA:140,0
DA:141,0
DA:142,0
DA:143,0
DA:147,0
DA:148,0
BRF:0
BRH:0
LF:55
LH:0
end_of_record
SF:/home/eastgate/Development/ecoPrimals/nestgate/code/crates/nestgate-api/src/handlers/performance_analyzer/metrics.rs
FN:39,_RNCNvMNtNtNtCs5HKDRulWIag_12nestgate_api8handlers20performance_analyzer7metricsNtB4_22SystemMetricsCollector13get_cpu_usage0Ba_
FN:29,_RNCNvMNtNtNtCs5HKDRulWIag_12nestgate_api8handlers20performance_analyzer7metricsNtB4_22SystemMetricsCollector15collect_metrics0Ba_
FN:44,_RNCNvMNtNtNtCs5HKDRulWIag_12nestgate_api8handlers20performance_analyzer7metricsNtB4_22SystemMetricsCollector16get_memory_usage0Ba_
FN:49,_RNCNvMNtNtNtCs5HKDRulWIag_12nestgate_api8handlers20performance_analyzer7metricsNtB4_22SystemMetricsCollector19get_disk_io_metrics0Ba_
FN:58,_RNCNvMNtNtNtCs5HKDRulWIag_12nestgate_api8handlers20performance_analyzer7metricsNtB4_22SystemMetricsCollector19get_network_metrics0Ba_
FN:39,_RNvMNtNtNtCs5HKDRulWIag_12nestgate_api8handlers20performance_analyzer7metricsNtB2_22SystemMetricsCollector13get_cpu_usage
FN:29,_RNvMNtNtNtCs5HKDRulWIag_12nestgate_api8handlers20performance_analyzer7metricsNtB2_22SystemMetricsCollector15collect_metrics
FN:44,_RNvMNtNtNtCs5HKDRulWIag_12nestgate_api8handlers20performance_analyzer7metricsNtB2_22SystemMetricsCollector16get_memory_usage
FN:49,_RNvMNtNtNtCs5HKDRulWIag_12nestgate_api8handlers20performance_analyzer7metricsNtB2_22SystemMetricsCollector19get_disk_io_metrics
FN:58,_RNvMNtNtNtCs5HKDRulWIag_12nestgate_api8handlers20performance_analyzer7metricsNtB2_22SystemMetricsCollector19get_network_metrics
FN:17,_RNvMNtNtNtCs5HKDRulWIag_12nestgate_api8handlers20performance_analyzer7metricsNtB2_22SystemMetricsCollector3new
FNDA:0,_RNCNvMNtNtNtCs5HKDRulWIag_12nestgate_api8handlers20performance_analyzer7metricsNtB4_22SystemMetricsCollector13get_cpu_usage0Ba_
FNDA:0,_RNCNvMNtNtNtCs5HKDRulWIag_12nestgate_api8handlers20performance_analyzer7metricsNtB4_22SystemMetricsCollector15collect_metrics0Ba_
FNDA:0,_RNCNvMNtNtNtCs5HKDRulWIag_12nestgate_api8handlers20performance_analyzer7metricsNtB4_22SystemMetricsCollector16get_memory_usage0Ba_
FNDA:0,_RNCNvMNtNtNtCs5HKDRulWIag_12nestgate_api8handlers20performance_analyzer7metricsNtB4_22SystemMetricsCollector19get_disk_io_metrics0Ba_
FNDA:0,_RNCNvMNtNtNtCs5HKDRulWIag_12nestgate_api8handlers20performance_analyzer7metricsNtB4_22SystemMetricsCollector19get_network_metrics0Ba_
FNDA:0,_RNvMNtNtNtCs5HKDRulWIag_12nestgate_api8handlers20performance_analyzer7metricsNtB2_22SystemMetricsCollector13get_cpu_usage
FNDA:0,_RNvMNtNtNtCs5HKDRulWIag_12nestgate_api8handlers20performance_analyzer7metricsNtB2_22SystemMetricsCollector15collect_metrics
FNDA:0,_RNvMNtNtNtCs5HKDRulWIag_12nestgate_api8handlers20performance_analyzer7metricsNtB2_22SystemMetricsCollector16get_memory_usage
FNDA:0,_RNvMNtNtNtCs5HKDRulWIag_12nestgate_api8handlers20performance_analyzer7metricsNtB2_22SystemMetricsCollector19get_disk_io_metrics
FNDA:0,_RNvMNtNtNtCs5HKDRulWIag_12nestgate_api8handlers20performance_analyzer7metricsNtB2_22SystemMetricsCollector19get_network_metrics
FNDA:0,_RNvMNtNtNtCs5HKDRulWIag_12nestgate_api8handlers20performance_analyzer7metricsNtB2_22SystemMetricsCollector3new
FNF:11
FNH:0
DA:17,0
DA:18,0
DA:19,0
DA:29,0
DA:31,0
DA:32,0
DA:33,0
DA:34,0
DA:35,0
DA:37,0
DA:39,0
DA:41,0
DA:42,0
DA:44,0
DA:46,0
DA:47,0
DA:49,0
DA:50,0
DA:51,0
DA:52,0
DA:53,0
DA:54,0
DA:55,0
DA:56,0
DA:58,0
DA:59,0
DA:60,0
DA:61,0
DA:62,0
DA:63,0
DA:64,0
DA:65,0
BRF:0
BRH:0
LF:37
LH:0
end_of_record
SF:/home/eastgate/Development/ecoPrimals/nestgate/code/crates/nestgate-api/src/handlers/performance_analyzer/reports.rs
FN:155,_RNCNvMNtNtNtCs5HKDRulWIag_12nestgate_api8handlers20performance_analyzer7reportsNtB4_15ReportGenerator19generate_csv_report0Ba_
FN:60,_RNCNvMNtNtNtCs5HKDRulWIag_12nestgate_api8handlers20performance_analyzer7reportsNtB4_15ReportGenerator24determine_overall_status0Ba_
FN:65,_RNCNvMNtNtNtCs5HKDRulWIag_12nestgate_api8handlers20performance_analyzer7reportsNtB4_15ReportGenerator24determine_overall_statuss_0Ba_
FN:135,_RNCNvMNtNtNtCs5HKDRulWIag_12nestgate_api8handlers20performance_analyzer7reportsNtB4_15ReportGenerator24generate_markdown_report0Ba_
FN:25,_RNvMNtNtNtCs5HKDRulWIag_12nestgate_api8handlers20performance_analyzer7reportsNtB2_15ReportGenerator15generate_report
FN:73,_RNvMNtNtNtCs5HKDRulWIag_12nestgate_api8handlers20performance_analyzer7reportsNtB2_15ReportGenerator16generate_summary
FN:148,_RNvMNtNtNtCs5HKDRulWIag_12nestgate_api8handlers20performance_analyzer7reportsNtB2_15ReportGenerator19generate_csv_report
FN:139,_RNvMNtNtNtCs5HKDRulWIag_12nestgate_api8handlers20performance_analyzer7reportsNtB2_15ReportGenerator20generate_html_report
FN:39,_RNvMNtNtNtCs5HKDRulWIag_12nestgate_api8handlers20performance_analyzer7reportsNtB2_15ReportGenerator21generate_multi_format
FN:50,_RNvMNtNtNtCs5HKDRulWIag_12nestgate_api8handlers20performance_analyzer7reportsNtB2_15ReportGenerator24determine_overall_status
FN:127,_RNvMNtNtNtCs5HKDRulWIag_12nestgate_api8handlers20performance_analyzer7reportsNtB2_15ReportGenerator24generate_markdown_report
FN:82,_RNvMNtNtNtCs5HKDRulWIag_12nestgate_api8handlers20performance_analyzer7reportsNtB2_15ReportGenerator26generate_component_reports
FN:19,_RNvMNtNtNtCs5HKDRulWIag_12nestgate_api8handlers20performance_analyzer7reportsNtB2_15ReportGenerator3new
FN:176,_RNvXs_NtNtNtCs5HKDRulWIag_12nestgate_api8handlers20performance_analyzer7reportsNtB4_12ReportConfigNtNtCs5GmCzIpY9Qj_4core7default7Default7default
FNDA:0,_RNCNvMNtNtNtCs5HKDRulWIag_12nestgate_api8handlers20performance_analyzer7reportsNtB4_15ReportGenerator19generate_csv_report0Ba_
FNDA:0,_RNCNvMNtNtNtCs5HKDRulWIag_12nestgate_api8handlers20performance_analyzer7reportsNtB4_15ReportGenerator24determine_overall_status0Ba_
FNDA:0,_RNCNvMNtNtNtCs5HKDRulWIag_12nestgate_api8handlers20performance_analyzer7reportsNtB4_15ReportGenerator24determine_overall_statuss_0Ba_
FNDA:0,_RNCNvMNtNtNtCs5HKDRulWIag_12nestgate_api8handlers20performance_analyzer7reportsNtB4_15ReportGenerator24generate_markdown_report0Ba_
FNDA:0,_RNvMNtNtNtCs5HKDRulWIag_12nestgate_api8handlers20performance_analyzer7reportsNtB2_15ReportGenerator15generate_report
FNDA:0,_RNvMNtNtNtCs5HKDRulWIag_12nestgate_api8handlers20performance_analyzer7reportsNtB2_15ReportGenerator16generate_summary
FNDA:0,_RNvMNtNtNtCs5HKDRulWIag_12nestgate_api8handlers20performance_analyzer7reportsNtB2_15ReportGenerator19generate_csv_report
FNDA:0,_RNvMNtNtNtCs5HKDRulWIag_12nestgate_api8handlers20performance_analyzer7reportsNtB2_15ReportGenerator20generate_html_report
FNDA:0,_RNvMNtNtNtCs5HKDRulWIag_12nestgate_api8handlers20performance_analyzer7reportsNtB2_15ReportGenerator21generate_multi_format
FNDA:0,_RNvMNtNtNtCs5HKDRulWIag_12nestgate_api8handlers20performance_analyzer7reportsNtB2_15ReportGenerator24determine_overall_status
FNDA:0,_RNvMNtNtNtCs5HKDRulWIag_12nestgate_api8handlers20performance_analyzer7reportsNtB2_15ReportGenerator24generate_markdown_report
FNDA:0,_RNvMNtNtNtCs5HKDRulWIag_12nestgate_api8handlers20performance_analyzer7reportsNtB2_15ReportGenerator26generate_component_reports
FNDA:0,_RNvMNtNtNtCs5HKDRulWIag_12nestgate_api8handlers20performance_analyzer7reportsNtB2_15ReportGenerator3new
FNDA:0,_RNvXs_NtNtNtCs5HKDRulWIag_12nestgate_api8handlers20performance_analyzer7reportsNtB4_12ReportConfigNtNtCs5GmCzIpY9Qj_4core7default7Default7default
FNF:14
FNH:0
DA:19,0
DA:20,0
DA:21,0
DA:25,0
DA:26,0
DA:27,0
DA:28,0
DA:29,0
DA:30,0
DA:31,0
DA:32,0
DA:33,0
DA:34,0
DA:35,0
DA:39,0
DA:40,0
DA:42,0
DA:43,0
DA:44,0
DA:45,0
DA:46,0
DA:47,0
DA:48,0
DA:50,0
DA:51,0
DA:52,0
DA:53,0
DA:54,0
DA:55,0
DA:56,0
DA:58,0
DA:59,0
DA:60,0
DA:62,0
DA:63,0
DA:64,0
DA:65,0
DA:67,0
DA:69,0
DA:71,0
DA:73,0
DA:74,0
DA:75,0
DA:78,0
DA:80,0
DA:82,0
DA:83,0
DA:84,0
DA:85,0
DA:86,0
DA:88,0
DA:89,0
DA:90,0
DA:91,0
DA:92,0
DA:93,0
DA:94,0
DA:97,0
DA:98,0
DA:99,0
DA:100,0
DA:101,0
DA:102,0
DA:103,0
DA:106,0
DA:107,0
DA:108,0
DA:109,0
DA:110,0
DA:111,0
DA:112,0
DA:115,0
DA:116,0
DA:117,0
DA:118,0
DA:119,0
DA:120,0
DA:121,0
DA:124,0
DA:125,0
DA:127,0
DA:128,0
DA:129,0
DA:135,0
DA:137,0
DA:139,0
DA:140,0
DA:141,0
DA:146,0
DA:148,0
DA:149,0
DA:150,0
DA:151,0
DA:152,0
DA:153,0
DA:154,0
DA:155,0
DA:158,0
DA:159,0
DA:161,0
DA:176,0
DA:177,0
DA:178,0
DA:179,0
DA:180,0
DA:181,0
DA:182,0
BRF:0
BRH:0
LF:110
LH:0
end_of_record
SF:/home/eastgate/Development/ecoPrimals/nestgate/code/crates/nestgate-api/src/handlers/performance_analyzer/types.rs
FN:150,_RNvXNtNtNtCs5HKDRulWIag_12nestgate_api8handlers20performance_analyzer5typesNtB2_25PerformanceAnalysisConfigNtNtCs5GmCzIpY9Qj_4core7default7Default7default
FNDA:0,_RNvXNtNtNtCs5HKDRulWIag_12nestgate_api8handlers20performance_analyzer5typesNtB2_25PerformanceAnalysisConfigNtNtCs5GmCzIpY9Qj_4core7default7Default7default
FNF:1
FNH:0
DA:150,0
DA:151,0
DA:152,0
DA:153,0
DA:154,0
DA:155,0
DA:156,0
DA:157,0
DA:158,0
DA:159,0
DA:160,0
BRF:0
BRH:0
LF:11
LH:0
end_of_record
SF:/home/eastgate/Development/ecoPrimals/nestgate/code/crates/nestgate-api/src/handlers/performance_dashboard/handlers.rs
FN:67,_RNCNvMNtNtNtCs5HKDRulWIag_12nestgate_api8handlers21performance_dashboard8handlersNtB4_20PerformanceDashboard12get_overview0Ba_
FN:179,_RNCNvNtNtNtCs5HKDRulWIag_12nestgate_api8handlers21performance_dashboard8handlers22get_dashboard_overview0B9_
FN:67,_RNvMNtNtNtCs5HKDRulWIag_12nestgate_api8handlers21performance_dashboard8handlersNtB2_20PerformanceDashboard12get_overview
FN:153,_RNvMNtNtNtCs5HKDRulWIag_12nestgate_api8handlers21performance_dashboard8handlersNtB2_20PerformanceDashboard24stream_dashboard_metrics
FN:44,_RNvMNtNtNtCs5HKDRulWIag_12nestgate_api8handlers21performance_dashboard8handlersNtB2_20PerformanceDashboard3new
FN:176,_RNvNtNtNtCs5HKDRulWIag_12nestgate_api8handlers21performance_dashboard8handlers22get_dashboard_overview
FN:198,_RNvNtNtNtCs5HKDRulWIag_12nestgate_api8handlers21performance_dashboard8handlers24get_performance_analysis
FN:185,_RNvNtNtNtCs5HKDRulWIag_12nestgate_api8handlers21performance_dashboard8handlers24stream_dashboard_metrics
FNDA:0,_RNCNvMNtNtNtCs5HKDRulWIag_12nestgate_api8handlers21performance_dashboard8handlersNtB4_20PerformanceDashboard12get_overview0Ba_
FNDA:0,_RNCNvNtNtNtCs5HKDRulWIag_12nestgate_api8handlers21performance_dashboard8handlers22get_dashboard_overview0B9_
FNDA:0,_RNvMNtNtNtCs5HKDRulWIag_12nestgate_api8handlers21performance_dashboard8handlersNtB2_20PerformanceDashboard12get_overview
FNDA:0,_RNvMNtNtNtCs5HKDRulWIag_12nestgate_api8handlers21performance_dashboard8handlersNtB2_20PerformanceDashboard24stream_dashboard_metrics
FNDA:0,_RNvMNtNtNtCs5HKDRulWIag_12nestgate_api8handlers21performance_dashboard8handlersNtB2_20PerformanceDashboard3new
FNDA:0,_RNvNtNtNtCs5HKDRulWIag_12nestgate_api8handlers21performance_dashboard8handlers22get_dashboard_overview
FNDA:0,_RNvNtNtNtCs5HKDRulWIag_12nestgate_api8handlers21performance_dashboard8handlers24get_performance_analysis
FNDA:0,_RNvNtNtNtCs5HKDRulWIag_12nestgate_api8handlers21performance_dashboard8handlers24stream_dashboard_metrics
FNF:8
FNH:0
DA:44,0
DA:45,0
DA:46,0
DA:47,0
DA:48,0
DA:49,0
DA:50,0
DA:51,0
DA:52,0
DA:53,0
DA:54,0
DA:55,0
DA:56,0
DA:57,0
DA:67,0
DA:69,0
DA:72,0
DA:73,0
DA:74,0
DA:75,0
DA:76,0
DA:77,0
DA:78,0
DA:81,0
DA:82,0
DA:83,0
DA:85,0
DA:86,0
DA:87,0
DA:88,0
DA:89,0
DA:90,0
DA:91,0
DA:92,0
DA:93,0
DA:94,0
DA:95,0
DA:96,0
DA:97,0
DA:98,0
DA:99,0
DA:100,0
DA:101,0
DA:102,0
DA:103,0
DA:104,0
DA:105,0
DA:106,0
DA:107,0
DA:108,0
DA:109,0
DA:110,0
DA:111,0
DA:112,0
DA:113,0
DA:114,0
DA:115,0
DA:116,0
DA:117,0
DA:118,0
DA:119,0
DA:120,0
DA:121,0
DA:122,0
DA:123,0
DA:124,0
DA:125,0
DA:126,0
DA:127,0
DA:128,0
DA:129,0
DA:130,0
DA:131,0
DA:132,0
DA:133,0
DA:134,0
DA:135,0
DA:136,0
DA:137,0
DA:138,0
DA:139,0
DA:140,0
DA:141,0
DA:142,0
DA:143,0
DA:144,0
DA:145,0
DA:146,0
DA:147,0
DA:149,0
DA:150,0
DA:153,0
DA:154,0
DA:155,0
DA:158,0
DA:159,0
DA:160,0
DA:162,0
DA:163,0
DA:176,0
DA:177,0
DA:178,0
DA:179,0
DA:180,0
DA:181,0
DA:182,0
DA:185,0
DA:186,0
DA:187,0
DA:190,0
DA:191,0
DA:192,0
DA:194,0
DA:195,0
DA:198,0
DA:199,0
DA:200,0
DA:201,0
DA:203,0
DA:204,0
DA:205,0
DA:206,0
BRF:0
BRH:0
LF:124
LH:0
end_of_record
SF:/home/eastgate/Development/ecoPrimals/nestgate/code/crates/nestgate-api/src/handlers/performance_dashboard/metrics.rs
FN:290,_RNCNCNvMNtNtNtCs5HKDRulWIag_12nestgate_api8handlers21performance_dashboard7metricsNtB6_24RealTimeMetricsCollector13get_cpu_usage00Bc_
FN:110,_RNCNCNvMNtNtNtCs5HKDRulWIag_12nestgate_api8handlers21performance_dashboard7metricsNtB6_24RealTimeMetricsCollector19collect_all_metrics00Bc_
FN:385,_RNCNvMNtNtNtCs5HKDRulWIag_12nestgate_api8handlers21performance_dashboard7metricsNtB4_24RealTimeMetricsCollector11get_disk_io0Ba_
FN:281,_RNCNvMNtNtNtCs5HKDRulWIag_12nestgate_api8handlers21performance_dashboard7metricsNtB4_24RealTimeMetricsCollector13get_cpu_usage0Ba_
FN:345,_RNCNvMNtNtNtCs5HKDRulWIag_12nestgate_api8handlers21performance_dashboard7metricsNtB4_24RealTimeMetricsCollector14get_network_io0Ba_
FN:305,_RNCNvMNtNtNtCs5HKDRulWIag_12nestgate_api8handlers21performance_dashboard7metricsNtB4_24RealTimeMetricsCollector15get_memory_info0Ba_
FN:38,_RNCNvMNtNtNtCs5HKDRulWIag_12nestgate_api8handlers21performance_dashboard7metricsNtB4_24RealTimeMetricsCollector16start_collection0Ba_
FN:92,_RNCNvMNtNtNtCs5HKDRulWIag_12nestgate_api8handlers21performance_dashboard7metricsNtB4_24RealTimeMetricsCollector19collect_all_metrics0Ba_
FN:68,_RNCNvMNtNtNtCs5HKDRulWIag_12nestgate_api8handlers21performance_dashboard7metricsNtB4_24RealTimeMetricsCollector19get_current_metrics0Ba_
FN:163,_RNCNvMNtNtNtCs5HKDRulWIag_12nestgate_api8handlers21performance_dashboard7metricsNtB4_24RealTimeMetricsCollector20collect_pool_metrics0Ba_
FN:428,_RNCNvMNtNtNtCs5HKDRulWIag_12nestgate_api8handlers21performance_dashboard7metricsNtB4_24RealTimeMetricsCollector22collect_arc_statistics0Ba_
FN:134,_RNCNvMNtNtNtCs5HKDRulWIag_12nestgate_api8handlers21performance_dashboard7metricsNtB4_24RealTimeMetricsCollector22collect_system_metrics0Ba_
FN:522,_RNCNvMNtNtNtCs5HKDRulWIag_12nestgate_api8handlers21performance_dashboard7metricsNtB4_24RealTimeMetricsCollector22get_pool_capacity_info0Ba_
FN:468,_RNCNvMNtNtNtCs5HKDRulWIag_12nestgate_api8handlers21performance_dashboard7metricsNtB4_24RealTimeMetricsCollector27calculate_compression_ratio0Ba_
FN:206,_RNCNvMNtNtNtCs5HKDRulWIag_12nestgate_api8handlers21performance_dashboard7metricsNtB4_24RealTimeMetricsCollector27collect_single_pool_metrics0Ba_
FN:385,_RNvMNtNtNtCs5HKDRulWIag_12nestgate_api8handlers21performance_dashboard7metricsNtB2_24RealTimeMetricsCollector11get_disk_io
FN:281,_RNvMNtNtNtCs5HKDRulWIag_12nestgate_api8handlers21performance_dashboard7metricsNtB2_24RealTimeMetricsCollector13get_cpu_usage
FN:345,_RNvMNtNtNtCs5HKDRulWIag_12nestgate_api8handlers21performance_dashboard7metricsNtB2_24RealTimeMetricsCollector14get_network_io
FN:305,_RNvMNtNtNtCs5HKDRulWIag_12nestgate_api8handlers21performance_dashboard7metricsNtB2_24RealTimeMetricsCollector15get_memory_info
FN:38,_RNvMNtNtNtCs5HKDRulWIag_12nestgate_api8handlers21performance_dashboard7metricsNtB2_24RealTimeMetricsCollector16start_collection
FN:548,_RNvMNtNtNtCs5HKDRulWIag_12nestgate_api8handlers21performance_dashboard7metricsNtB2_24RealTimeMetricsCollector17parse_size_string
FN:92,_RNvMNtNtNtCs5HKDRulWIag_12nestgate_api8handlers21performance_dashboard7metricsNtB2_24RealTimeMetricsCollector19collect_all_metrics
FN:68,_RNvMNtNtNtCs5HKDRulWIag_12nestgate_api8handlers21performance_dashboard7metricsNtB2_24RealTimeMetricsCollector19get_current_metrics
FN:163,_RNvMNtNtNtCs5HKDRulWIag_12nestgate_api8handlers21performance_dashboard7metricsNtB2_24RealTimeMetricsCollector20collect_pool_metrics
FN:428,_RNvMNtNtNtCs5HKDRulWIag_12nestgate_api8handlers21performance_dashboard7metricsNtB2_24RealTimeMetricsCollector22collect_arc_statistics
FN:134,_RNvMNtNtNtCs5HKDRulWIag_12nestgate_api8handlers21performance_dashboard7metricsNtB2_24RealTimeMetricsCollector22collect_system_metrics
FN:522,_RNvMNtNtNtCs5HKDRulWIag_12nestgate_api8handlers21performance_dashboard7metricsNtB2_24RealTimeMetricsCollector22get_pool_capacity_info
FN:498,_RNvMNtNtNtCs5HKDRulWIag_12nestgate_api8handlers21performance_dashboard7metricsNtB2_24RealTimeMetricsCollector27calculate_average_latencies
FN:468,_RNvMNtNtNtCs5HKDRulWIag_12nestgate_api8handlers21performance_dashboard7metricsNtB2_24RealTimeMetricsCollector27calculate_compression_ratio
FN:206,_RNvMNtNtNtCs5HKDRulWIag_12nestgate_api8handlers21performance_dashboard7metricsNtB2_24RealTimeMetricsCollector27collect_single_pool_metrics
FN:30,_RNvMNtNtNtCs5HKDRulWIag_12nestgate_api8handlers21performance_dashboard7metricsNtB2_24RealTimeMetricsCollector3new
FN:579,_RNvXs_NtNtNtCs5HKDRulWIag_12nestgate_api8handlers21performance_dashboard7metricsNtB4_24RealTimeMetricsCollectorNtNtCs5GmCzIpY9Qj_4core7default7Default7default
FNDA:0,_RNCNCNvMNtNtNtCs5HKDRulWIag_12nestgate_api8handlers21performance_dashboard7metricsNtB6_24RealTimeMetricsCollector13get_cpu_usage00Bc_
FNDA:0,_RNCNCNvMNtNtNtCs5HKDRulWIag_12nestgate_api8handlers21performance_dashboard7metricsNtB6_24RealTimeMetricsCollector19collect_all_metrics00Bc_
FNDA:0,_RNCNvMNtNtNtCs5HKDRulWIag_12nestgate_api8handlers21performance_dashboard7metricsNtB4_24RealTimeMetricsCollector11get_disk_io0Ba_
FNDA:0,_RNCNvMNtNtNtCs5HKDRulWIag_12nestgate_api8handlers21performance_dashboard7metricsNtB4_24RealTimeMetricsCollector13get_cpu_usage0Ba_
FNDA:0,_RNCNvMNtNtNtCs5HKDRulWIag_12nestgate_api8handlers21performance_dashboard7metricsNtB4_24RealTimeMetricsCollector14get_network_io0Ba_
FNDA:0,_RNCNvMNtNtNtCs5HKDRulWIag_12nestgate_api8handlers21performance_dashboard7metricsNtB4_24RealTimeMetricsCollector15get_memory_info0Ba_
FNDA:0,_RNCNvMNtNtNtCs5HKDRulWIag_12nestgate_api8handlers21performance_dashboard7metricsNtB4_24RealTimeMetricsCollector16start_collection0Ba_
FNDA:0,_RNCNvMNtNtNtCs5HKDRulWIag_12nestgate_api8handlers21performance_dashboard7metricsNtB4_24RealTimeMetricsCollector19collect_all_metrics0Ba_
FNDA:0,_RNCNvMNtNtNtCs5HKDRulWIag_12nestgate_api8handlers21performance_dashboard7metricsNtB4_24RealTimeMetricsCollector19get_current_metrics0Ba_
FNDA:0,_RNCNvMNtNtNtCs5HKDRulWIag_12nestgate_api8handlers21performance_dashboard7metricsNtB4_24RealTimeMetricsCollector20collect_pool_metrics0Ba_
FNDA:0,_RNCNvMNtNtNtCs5HKDRulWIag_12nestgate_api8handlers21performance_dashboard7metricsNtB4_24RealTimeMetricsCollector22collect_arc_statistics0Ba_
FNDA:0,_RNCNvMNtNtNtCs5HKDRulWIag_12nestgate_api8handlers21performance_dashboard7metricsNtB4_24RealTimeMetricsCollector22collect_system_metrics0Ba_
FNDA:0,_RNCNvMNtNtNtCs5HKDRulWIag_12nestgate_api8handlers21performance_dashboard7metricsNtB4_24RealTimeMetricsCollector22get_pool_capacity_info0Ba_
FNDA:0,_RNCNvMNtNtNtCs5HKDRulWIag_12nestgate_api8handlers21performance_dashboard7metricsNtB4_24RealTimeMetricsCollector27calculate_compression_ratio0Ba_
FNDA:0,_RNCNvMNtNtNtCs5HKDRulWIag_12nestgate_api8handlers21performance_dashboard7metricsNtB4_24RealTimeMetricsCollector27collect_single_pool_metrics0Ba_
FNDA:0,_RNvMNtNtNtCs5HKDRulWIag_12nestgate_api8handlers21performance_dashboard7metricsNtB2_24RealTimeMetricsCollector11get_disk_io
FNDA:0,_RNvMNtNtNtCs5HKDRulWIag_12nestgate_api8handlers21performance_dashboard7metricsNtB2_24RealTimeMetricsCollector13get_cpu_usage
FNDA:0,_RNvMNtNtNtCs5HKDRulWIag_12nestgate_api8handlers21performance_dashboard7metricsNtB2_24RealTimeMetricsCollector14get_network_io
FNDA:0,_RNvMNtNtNtCs5HKDRulWIag_12nestgate_api8handlers21performance_dashboard7metricsNtB2_24RealTimeMetricsCollector15get_memory_info
FNDA:0,_RNvMNtNtNtCs5HKDRulWIag_12nestgate_api8handlers21performance_dashboard7metricsNtB2_24RealTimeMetricsCollector16start_collection
FNDA:0,_RNvMNtNtNtCs5HKDRulWIag_12nestgate_api8handlers21performance_dashboard7metricsNtB2_24RealTimeMetricsCollector17parse_size_string
FNDA:0,_RNvMNtNtNtCs5HKDRulWIag_12nestgate_api8handlers21performance_dashboard7metricsNtB2_24RealTimeMetricsCollector19collect_all_metrics
FNDA:0,_RNvMNtNtNtCs5HKDRulWIag_12nestgate_api8handlers21performance_dashboard7metricsNtB2_24RealTimeMetricsCollector19get_current_metrics
FNDA:0,_RNvMNtNtNtCs5HKDRulWIag_12nestgate_api8handlers21performance_dashboard7metricsNtB2_24RealTimeMetricsCollector20collect_pool_metrics
FNDA:0,_RNvMNtNtNtCs5HKDRulWIag_12nestgate_api8handlers21performance_dashboard7metricsNtB2_24RealTimeMetricsCollector22collect_arc_statistics
FNDA:0,_RNvMNtNtNtCs5HKDRulWIag_12nestgate_api8handlers21performance_dashboard7metricsNtB2_24RealTimeMetricsCollector22collect_system_metrics
FNDA:0,_RNvMNtNtNtCs5HKDRulWIag_12nestgate_api8handlers21performance_dashboard7metricsNtB2_24RealTimeMetricsCollector22get_pool_capacity_info
FNDA:0,_RNvMNtNtNtCs5HKDRulWIag_12nestgate_api8handlers21performance_dashboard7metricsNtB2_24RealTimeMetricsCollector27calculate_average_latencies
FNDA:0,_RNvMNtNtNtCs5HKDRulWIag_12nestgate_api8handlers21performance_dashboard7metricsNtB2_24RealTimeMetricsCollector27calculate_compression_ratio
FNDA:0,_RNvMNtNtNtCs5HKDRulWIag_12nestgate_api8handlers21performance_dashboard7metricsNtB2_24RealTimeMetricsCollector27collect_single_pool_metrics
FNDA:0,_RNvMNtNtNtCs5HKDRulWIag_12nestgate_api8handlers21performance_dashboard7metricsNtB2_24RealTimeMetricsCollector3new
FNDA:0,_RNvXs_NtNtNtCs5HKDRulWIag_12nestgate_api8handlers21performance_dashboard7metricsNtB4_24RealTimeMetricsCollectorNtNtCs5GmCzIpY9Qj_4core7default7Default7default
FNF:32
FNH:0
DA:30,0
DA:31,0
DA:32,0
DA:33,0
DA:34,0
DA:35,0
DA:38,0
DA:39,0
DA:42,0
DA:44,0
DA:45,0
DA:46,0
DA:47,0
DA:48,0
DA:49,0
DA:50,0
DA:51,0
DA:52,0
DA:53,0
DA:54,0
DA:68,0
DA:69,0
DA:73,0
DA:74,0
DA:75,0
DA:76,0
DA:77,0
DA:79,0
DA:81,0
DA:82,0
DA:83,0
DA:84,0
DA:88,0
DA:89,0
DA:92,0
DA:93,0
DA:96,0
DA:99,0
DA:102,0
DA:105,0
DA:108,0
DA:109,0
DA:110,0
DA:111,0
DA:114,0
DA:115,0
DA:118,0
DA:119,0
DA:120,0
DA:121,0
DA:122,0
DA:123,0
DA:124,0
DA:125,0
DA:126,0
DA:127,0
DA:128,0
DA:130,0
DA:131,0
DA:134,0
DA:135,0
DA:138,0
DA:141,0
DA:144,0
DA:147,0
DA:149,0
DA:150,0
DA:151,0
DA:152,0
DA:153,0
DA:154,0
DA:155,0
DA:156,0
DA:157,0
DA:159,0
DA:160,0
DA:163,0
DA:164,0
DA:166,0
DA:169,0
DA:170,0
DA:171,0
DA:172,0
DA:174,0
DA:175,0
DA:176,0
DA:178,0
DA:179,0
DA:180,0
DA:181,0
DA:182,0
DA:185,0
DA:186,0
DA:187,0
DA:190,0
DA:191,0
DA:192,0
DA:193,0
DA:196,0
DA:197,0
DA:202,0
DA:203,0
DA:206,0
DA:207,0
DA:210,0
DA:211,0
DA:212,0
DA:213,0
DA:215,0
DA:216,0
DA:217,0
DA:218,0
DA:219,0
DA:221,0
DA:222,0
DA:223,0
DA:226,0
DA:227,0
DA:228,0
DA:229,0
DA:230,0
DA:231,0
DA:232,0
DA:235,0
DA:236,0
DA:237,0
DA:238,0
DA:241,0
DA:242,0
DA:243,0
DA:244,0
DA:245,0
DA:246,0
DA:247,0
DA:248,0
DA:249,0
DA:250,0
DA:251,0
DA:253,0
DA:254,0
DA:257,0
DA:258,0
DA:261,0
DA:262,0
DA:263,0
DA:264,0
DA:265,0
DA:266,0
DA:267,0
DA:268,0
DA:269,0
DA:271,0
DA:275,0
DA:276,0
DA:278,0
DA:281,0
DA:282,0
DA:283,0
DA:284,0
DA:285,0
DA:286,0
DA:287,0
DA:288,0
DA:289,0
DA:290,0
DA:291,0
DA:293,0
DA:294,0
DA:295,0
DA:296,0
DA:297,0
DA:298,0
DA:299,0
DA:301,0
DA:302,0
DA:305,0
DA:306,0
DA:307,0
DA:308,0
DA:309,0
DA:310,0
DA:311,0
DA:313,0
DA:314,0
DA:315,0
DA:316,0
DA:317,0
DA:318,0
DA:319,0
DA:320,0
DA:321,0
DA:322,0
DA:323,0
DA:325,0
DA:329,0
DA:330,0
DA:331,0
DA:333,0
DA:334,0
DA:335,0
DA:336,0
DA:337,0
DA:338,0
DA:341,0
DA:342,0
DA:345,0
DA:346,0
DA:347,0
DA:348,0
DA:349,0
DA:351,0
DA:352,0
DA:354,0
DA:355,0
DA:356,0
DA:359,0
DA:360,0
DA:361,0
DA:363,0
DA:364,0
DA:365,0
DA:366,0
DA:368,0
DA:369,0
DA:370,0
DA:371,0
DA:372,0
DA:374,0
DA:376,0
DA:377,0
DA:378,0
DA:379,0
DA:380,0
DA:381,0
DA:382,0
DA:385,0
DA:386,0
DA:387,0
DA:388,0
DA:389,0
DA:391,0
DA:392,0
DA:393,0
DA:394,0
DA:395,0
DA:398,0
DA:399,0
DA:400,0
DA:402,0
DA:403,0
DA:405,0
DA:406,0
DA:407,0
DA:408,0
DA:411,0
DA:412,0
DA:413,0
DA:414,0
DA:415,0
DA:417,0
DA:419,0
DA:420,0
DA:421,0
DA:422,0
DA:423,0
DA:424,0
DA:425,0
DA:428,0
DA:429,0
DA:430,0
DA:433,0
DA:434,0
DA:435,0
DA:436,0
DA:437,0
DA:439,0
DA:440,0
DA:441,0
DA:442,0
DA:443,0
DA:444,0
DA:445,0
DA:446,0
DA:447,0
DA:448,0
DA:450,0
DA:453,0
DA:454,0
DA:455,0
DA:456,0
DA:458,0
DA:459,0
DA:460,0
DA:461,0
DA:462,0
DA:464,0
DA:465,0
DA:468,0
DA:469,0
DA:470,0
DA:471,0
DA:472,0
DA:474,0
DA:475,0
DA:476,0
DA:477,0
DA:478,0
DA:480,0
DA:481,0
DA:482,0
DA:483,0
DA:484,0
DA:485,0
DA:488,0
DA:489,0
DA:490,0
DA:491,0
DA:492,0
DA:494,0
DA:495,0
DA:498,0
DA:499,0
DA:500,0
DA:501,0
DA:504,0
DA:505,0
DA:507,0
DA:508,0
DA:510,0
DA:512,0
DA:513,0
DA:515,0
DA:518,0
DA:519,0
DA:522,0
DA:523,0
DA:524,0
DA:525,0
DA:526,0
DA:528,0
DA:529,0
DA:530,0
DA:531,0
DA:532,0
DA:533,0
DA:534,0
DA:535,0
DA:536,0
DA:538,0
DA:539,0
DA:540,0
DA:541,0
DA:542,0
DA:544,0
DA:545,0
DA:548,0
DA:549,0
DA:550,0
DA:551,0
DA:552,0
DA:554,0
DA:555,0
DA:556,0
DA:558,0
DA:561,0
DA:562,0
DA:563,0
DA:564,0
DA:565,0
DA:566,0
DA:567,0
DA:568,0
DA:571,0
DA:573,0
DA:575,0
DA:579,0
DA:580,0
DA:581,0
BRF:0
BRH:0
LF:393
LH:0
end_of_record
SF:/home/eastgate/Development/ecoPrimals/nestgate/code/crates/nestgate-api/src/handlers/performance_dashboard/optimizer.rs
FN:29,_RNvMNtNtNtCs5HKDRulWIag_12nestgate_api8handlers21performance_dashboard9optimizerNtB2_27OptimizationEngineInterface19get_recommendations
FN:15,_RNvMNtNtNtCs5HKDRulWIag_12nestgate_api8handlers21performance_dashboard9optimizerNtB2_27OptimizationEngineInterface3new
FN:36,_RNvXs_NtNtNtCs5HKDRulWIag_12nestgate_api8handlers21performance_dashboard9optimizerNtB4_27OptimizationEngineInterfaceNtNtCs5GmCzIpY9Qj_4core7default7Default7default
FNDA:0,_RNvMNtNtNtCs5HKDRulWIag_12nestgate_api8handlers21performance_dashboard9optimizerNtB2_27OptimizationEngineInterface19get_recommendations
FNDA:0,_RNvMNtNtNtCs5HKDRulWIag_12nestgate_api8handlers21performance_dashboard9optimizerNtB2_27OptimizationEngineInterface3new
FNDA:0,_RNvXs_NtNtNtCs5HKDRulWIag_12nestgate_api8handlers21performance_dashboard9optimizerNtB4_27OptimizationEngineInterfaceNtNtCs5GmCzIpY9Qj_4core7default7Default7default
FNF:3
FNH:0
DA:15,0
DA:16,0
DA:17,0
DA:18,0
DA:19,0
DA:29,0
DA:31,0
DA:32,0
DA:36,0
DA:37,0
DA:38,0
BRF:0
BRH:0
LF:11
LH:0
end_of_record
SF:/home/eastgate/Development/ecoPrimals/nestgate/code/crates/nestgate-api/src/handlers/status.rs
FN:26,_RNvNtNtCs5HKDRulWIag_12nestgate_api8handlers6status10get_status
FN:22,_RNvNtNtCs5HKDRulWIag_12nestgate_api8handlers6status17initialize_uptime
FN:102,_RNvNtNtNtCs5HKDRulWIag_12nestgate_api8handlers6status5testss_22test_initialize_uptime
FN:52,_RNvNtNtNtCs5HKDRulWIag_12nestgate_api8handlers6status5testss_28test_system_status_structure
FN:114,_RNvNtNtNtCs5HKDRulWIag_12nestgate_api8handlers6status5testss_31test_get_status_returns_healthy
FN:67,_RNvNtNtNtCs5HKDRulWIag_12nestgate_api8handlers6status5testss_32test_system_status_serialization
FN:85,_RNvNtNtNtCs5HKDRulWIag_12nestgate_api8handlers6status5testss_34test_system_status_deserialization
FNDA:1,_RNvNtNtCs5HKDRulWIag_12nestgate_api8handlers6status10get_status
FNDA:2,_RNvNtNtCs5HKDRulWIag_12nestgate_api8handlers6status17initialize_uptime
FNDA:1,_RNvNtNtNtCs5HKDRulWIag_12nestgate_api8handlers6status5testss_22test_initialize_uptime
FNDA:1,_RNvNtNtNtCs5HKDRulWIag_12nestgate_api8handlers6status5testss_28test_system_status_structure
FNDA:1,_RNvNtNtNtCs5HKDRulWIag_12nestgate_api8handlers6status5testss_31test_get_status_returns_healthy
FNDA:1,_RNvNtNtNtCs5HKDRulWIag_12nestgate_api8handlers6status5testss_32test_system_status_serialization
FNDA:1,_RNvNtNtNtCs5HKDRulWIag_12nestgate_api8handlers6status5testss_34test_system_status_deserialization
FNF:7
FNH:7
DA:22,2
DA:23,2
DA:24,2
DA:26,1
DA:27,1
DA:28,1
DA:29,1
DA:30,1
DA:31,1
DA:32,1
DA:34,1
DA:35,1
DA:36,1
DA:37,1
DA:39,1
DA:40,1
DA:41,1
DA:42,1
DA:43,1
DA:44,1
DA:45,1
DA:52,1
DA:53,1
DA:54,1
DA:55,1
DA:56,1
DA:57,1
DA:58,1
DA:60,1
DA:61,1
DA:62,1
DA:63,1
DA:64,1
DA:67,1
DA:68,1
DA:69,1
DA:70,1
DA:71,1
DA:72,1
DA:73,1
DA:75,1
DA:76,1
DA:78,1
DA:79,1
DA:80,1
DA:81,1
DA:82,1
DA:85,1
DA:86,1
DA:87,1
DA:88,1
DA:89,1
DA:90,1
DA:91,1
DA:93,1
DA:94,1
DA:96,1
DA:97,1
DA:98,1
DA:99,1
DA:102,1
DA:104,1
DA:107,1
DA:108,1
DA:109,0
DA:111,1
DA:114,1
DA:116,1
DA:118,1
DA:119,1
DA:121,1
DA:122,1
DA:123,1
DA:124,1
BRF:0
BRH:0
LF:74
LH:73
end_of_record
SF:/home/eastgate/Development/ecoPrimals/nestgate/code/crates/nestgate-api/src/handlers/storage.rs
FN:530,_RNCNCNvNtNtCs5HKDRulWIag_12nestgate_api8handlers7storage26collect_real_zfs_snapshots00B9_
FN:455,_RNCNCNvNtNtCs5HKDRulWIag_12nestgate_api8handlers7storage28create_fallback_home_dataset00B9_
FN:103,_RNCNvNtNtCs5HKDRulWIag_12nestgate_api8handlers7storage17get_storage_pools0B7_
FN:176,_RNCNvNtNtCs5HKDRulWIag_12nestgate_api8handlers7storage19get_storage_metrics0B7_
FN:128,_RNCNvNtNtCs5HKDRulWIag_12nestgate_api8handlers7storage20get_storage_datasets0B7_
FN:153,_RNCNvNtNtCs5HKDRulWIag_12nestgate_api8handlers7storage21get_storage_snapshots0B7_
FN:248,_RNCNvNtNtCs5HKDRulWIag_12nestgate_api8handlers7storage26collect_real_storage_pools0B7_
FN:471,_RNCNvNtNtCs5HKDRulWIag_12nestgate_api8handlers7storage26collect_real_zfs_snapshots0B7_
FN:454,_RNCNvNtNtCs5HKDRulWIag_12nestgate_api8handlers7storage28create_fallback_home_dataset0B7_
FN:384,_RNCNvNtNtCs5HKDRulWIag_12nestgate_api8handlers7storage29collect_real_storage_datasets0B7_
FN:556,_RNCNvNtNtCs5HKDRulWIag_12nestgate_api8handlers7storage32collect_fallback_storage_metrics0B7_
FN:622,_RNvMs1_NtNtCs5HKDRulWIag_12nestgate_api8handlers7storageNtB5_14StorageManager3new
FN:103,_RNvNtNtCs5HKDRulWIag_12nestgate_api8handlers7storage17get_storage_pools
FN:354,_RNvNtNtCs5HKDRulWIag_12nestgate_api8handlers7storage17parse_size_string
FN:432,_RNvNtNtCs5HKDRulWIag_12nestgate_api8handlers7storage19get_directory_usage
FN:176,_RNvNtNtCs5HKDRulWIag_12nestgate_api8handlers7storage19get_storage_metrics
FN:128,_RNvNtNtCs5HKDRulWIag_12nestgate_api8handlers7storage20get_storage_datasets
FN:537,_RNvNtNtCs5HKDRulWIag_12nestgate_api8handlers7storage20parse_bandwidth_unit
FN:153,_RNvNtNtCs5HKDRulWIag_12nestgate_api8handlers7storage21get_storage_snapshots
FN:299,_RNvNtNtCs5HKDRulWIag_12nestgate_api8handlers7storage25create_fallback_root_pool
FN:336,_RNvNtNtCs5HKDRulWIag_12nestgate_api8handlers7storage25should_include_filesystem
FN:247,_RNvNtNtCs5HKDRulWIag_12nestgate_api8handlers7storage26collect_real_storage_pools
FN:470,_RNvNtNtCs5HKDRulWIag_12nestgate_api8handlers7storage26collect_real_zfs_snapshots
FN:454,_RNvNtNtCs5HKDRulWIag_12nestgate_api8handlers7storage28create_fallback_home_dataset
FN:383,_RNvNtNtCs5HKDRulWIag_12nestgate_api8handlers7storage29collect_real_storage_datasets
FN:556,_RNvNtNtCs5HKDRulWIag_12nestgate_api8handlers7storage32collect_fallback_storage_metrics
FN:614,_RNvXs0_NtNtCs5HKDRulWIag_12nestgate_api8handlers7storageNtB5_14StorageManagerNtNtCs5GmCzIpY9Qj_4core7default7Default7default
FN:22,_RNvMs_NtNtCs5HKDRulWIag_12nestgate_api8handlers7storageNtB4_14StorageHandler3new
FN:14,_RNvXNtNtCs5HKDRulWIag_12nestgate_api8handlers7storageNtB2_14StorageHandlerNtNtCs5GmCzIpY9Qj_4core7default7Default7default
FNDA:0,_RNCNCNvNtNtCs5HKDRulWIag_12nestgate_api8handlers7storage26collect_real_zfs_snapshots00B9_
FNDA:0,_RNCNCNvNtNtCs5HKDRulWIag_12nestgate_api8handlers7storage28create_fallback_home_dataset00B9_
FNDA:0,_RNCNvNtNtCs5HKDRulWIag_12nestgate_api8handlers7storage17get_storage_pools0B7_
FNDA:0,_RNCNvNtNtCs5HKDRulWIag_12nestgate_api8handlers7storage19get_storage_metrics0B7_
FNDA:0,_RNCNvNtNtCs5HKDRulWIag_12nestgate_api8handlers7storage20get_storage_datasets0B7_
FNDA:0,_RNCNvNtNtCs5HKDRulWIag_12nestgate_api8handlers7storage21get_storage_snapshots0B7_
FNDA:0,_RNCNvNtNtCs5HKDRulWIag_12nestgate_api8handlers7storage26collect_real_storage_pools0B7_
FNDA:0,_RNCNvNtNtCs5HKDRulWIag_12nestgate_api8handlers7storage26collect_real_zfs_snapshots0B7_
FNDA:0,_RNCNvNtNtCs5HKDRulWIag_12nestgate_api8handlers7storage28create_fallback_home_dataset0B7_
FNDA:0,_RNCNvNtNtCs5HKDRulWIag_12nestgate_api8handlers7storage29collect_real_storage_datasets0B7_
FNDA:0,_RNCNvNtNtCs5HKDRulWIag_12nestgate_api8handlers7storage32collect_fallback_storage_metrics0B7_
FNDA:0,_RNvMs1_NtNtCs5HKDRulWIag_12nestgate_api8handlers7storageNtB5_14StorageManager3new
FNDA:0,_RNvNtNtCs5HKDRulWIag_12nestgate_api8handlers7storage17get_storage_pools
FNDA:0,_RNvNtNtCs5HKDRulWIag_12nestgate_api8handlers7storage17parse_size_string
FNDA:0,_RNvNtNtCs5HKDRulWIag_12nestgate_api8handlers7storage19get_directory_usage
FNDA:0,_RNvNtNtCs5HKDRulWIag_12nestgate_api8handlers7storage19get_storage_metrics
FNDA:0,_RNvNtNtCs5HKDRulWIag_12nestgate_api8handlers7storage20get_storage_datasets
FNDA:0,_RNvNtNtCs5HKDRulWIag_12nestgate_api8handlers7storage20parse_bandwidth_unit
FNDA:0,_RNvNtNtCs5HKDRulWIag_12nestgate_api8handlers7storage21get_storage_snapshots
FNDA:0,_RNvNtNtCs5HKDRulWIag_12nestgate_api8handlers7storage25create_fallback_root_pool
FNDA:0,_RNvNtNtCs5HKDRulWIag_12nestgate_api8handlers7storage25should_include_filesystem
FNDA:0,_RNvNtNtCs5HKDRulWIag_12nestgate_api8handlers7storage26collect_real_storage_pools
FNDA:0,_RNvNtNtCs5HKDRulWIag_12nestgate_api8handlers7storage26collect_real_zfs_snapshots
FNDA:0,_RNvNtNtCs5HKDRulWIag_12nestgate_api8handlers7storage28create_fallback_home_dataset
FNDA:0,_RNvNtNtCs5HKDRulWIag_12nestgate_api8handlers7storage29collect_real_storage_datasets
FNDA:0,_RNvNtNtCs5HKDRulWIag_12nestgate_api8handlers7storage32collect_fallback_storage_metrics
FNDA:0,_RNvXs0_NtNtCs5HKDRulWIag_12nestgate_api8handlers7storageNtB5_14StorageManagerNtNtCs5GmCzIpY9Qj_4core7default7Default7default
FNDA:4,_RNvMs_NtNtCs5HKDRulWIag_12nestgate_api8handlers7storageNtB4_14StorageHandler3new
FNDA:1,_RNvXNtNtCs5HKDRulWIag_12nestgate_api8handlers7storageNtB2_14StorageHandlerNtNtCs5GmCzIpY9Qj_4core7default7Default7default
FNF:29
FNH:2
DA:14,1
DA:15,1
DA:16,1
DA:22,4
DA:23,4
DA:24,4
DA:103,0
DA:104,0
DA:105,0
DA:106,0
DA:107,0
DA:108,0
DA:109,0
DA:110,0
DA:111,0
DA:112,0
DA:113,0
DA:114,0
DA:115,0
DA:116,0
DA:117,0
DA:118,0
DA:121,0
DA:122,0
DA:128,0
DA:129,0
DA:130,0
DA:131,0
DA:132,0
DA:133,0
DA:134,0
DA:135,0
DA:136,0
DA:137,0
DA:138,0
DA:139,0
DA:140,0
DA:141,0
DA:142,0
DA:143,0
DA:146,0
DA:147,0
DA:153,0
DA:154,0
DA:155,0
DA:156,0
DA:157,0
DA:158,0
DA:159,0
DA:160,0
DA:161,0
DA:162,0
DA:163,0
DA:164,0
DA:165,0
DA:166,0
DA:169,0
DA:170,0
DA:176,0
DA:177,0
DA:178,0
DA:179,0
DA:180,0
DA:181,0
DA:182,0
DA:183,0
DA:184,0
DA:185,0
DA:186,0
DA:187,0
DA:189,0
DA:190,0
DA:247,0
DA:248,0
DA:251,0
DA:254,0
DA:255,0
DA:256,0
DA:258,0
DA:260,0
DA:262,0
DA:263,0
DA:264,0
DA:265,0
DA:266,0
DA:267,0
DA:268,0
DA:269,0
DA:272,0
DA:273,0
DA:274,0
DA:275,0
DA:276,0
DA:277,0
DA:278,0
DA:279,0
DA:280,0
DA:281,0
DA:282,0
DA:283,0
DA:284,0
DA:285,0
DA:286,0
DA:287,0
DA:290,0
DA:291,0
DA:292,0
DA:293,0
DA:295,0
DA:296,0
DA:299,0
DA:301,0
DA:303,0
DA:304,0
DA:305,0
DA:306,0
DA:307,0
DA:308,0
DA:309,0
DA:310,0
DA:312,0
DA:315,0
DA:318,0
DA:321,0
DA:324,0
DA:325,0
DA:326,0
DA:327,0
DA:328,0
DA:329,0
DA:330,0
DA:331,0
DA:332,0
DA:333,0
DA:336,0
DA:338,0
DA:339,0
DA:340,0
DA:341,0
DA:342,0
DA:343,0
DA:344,0
DA:345,0
DA:346,0
DA:347,0
DA:348,0
DA:349,0
DA:350,0
DA:351,0
DA:352,0
DA:354,0
DA:355,0
DA:356,0
DA:357,0
DA:358,0
DA:359,0
DA:360,0
DA:361,0
DA:363,0
DA:366,0
DA:367,0
DA:368,0
DA:369,0
DA:370,0
DA:371,0
DA:372,0
DA:373,0
DA:375,0
DA:377,0
DA:379,0
DA:383,0
DA:384,0
DA:386,0
DA:388,0
DA:389,0
DA:392,0
DA:393,0
DA:394,0
DA:395,0
DA:396,0
DA:397,0
DA:398,0
DA:399,0
DA:400,0
DA:401,0
DA:402,0
DA:403,0
DA:404,0
DA:405,0
DA:409,0
DA:410,0
DA:411,0
DA:412,0
DA:413,0
DA:414,0
DA:415,0
DA:416,0
DA:417,0
DA:418,0
DA:419,0
DA:420,0
DA:421,0
DA:423,0
DA:424,0
DA:425,0
DA:427,0
DA:428,0
DA:432,0
DA:433,0
DA:434,0
DA:436,0
DA:438,0
DA:439,0
DA:440,0
DA:441,0
DA:442,0
DA:443,0
DA:444,0
DA:445,0
DA:446,0
DA:447,0
DA:449,0
DA:450,0
DA:454,0
DA:455,0
DA:456,0
DA:457,0
DA:458,0
DA:459,0
DA:460,0
DA:461,0
DA:462,0
DA:463,0
DA:464,0
DA:465,0
DA:466,0
DA:470,0
DA:471,0
DA:472,0
DA:473,0
DA:474,0
DA:475,0
DA:476,0
DA:477,0
DA:478,0
DA:479,0
DA:480,0
DA:481,0
DA:482,0
DA:483,0
DA:484,0
DA:485,0
DA:486,0
DA:488,0
DA:489,0
DA:491,0
DA:493,0
DA:494,0
DA:495,0
DA:496,0
DA:497,0
DA:498,0
DA:501,0
DA:502,0
DA:504,0
DA:508,0
DA:509,0
DA:510,0
DA:512,0
DA:513,0
DA:516,0
DA:519,0
DA:520,0
DA:521,0
DA:522,0
DA:523,0
DA:524,0
DA:525,0
DA:526,0
DA:530,0
DA:532,0
DA:533,0
DA:537,0
DA:538,0
DA:539,0
DA:540,0
DA:541,0
DA:542,0
DA:543,0
DA:544,0
DA:545,0
DA:546,0
DA:548,0
DA:551,0
DA:552,0
DA:556,0
DA:558,0
DA:559,0
DA:560,0
DA:561,0
DA:563,0
DA:564,0
DA:565,0
DA:567,0
DA:568,0
DA:569,0
DA:570,0
DA:571,0
DA:572,0
DA:574,0
DA:575,0
DA:576,0
DA:577,0
DA:578,0
DA:581,0
DA:582,0
DA:583,0
DA:584,0
DA:585,0
DA:588,0
DA:589,0
DA:590,0
DA:591,0
DA:592,0
DA:594,0
DA:595,0
DA:596,0
DA:597,0
DA:598,0
DA:599,0
DA:600,0
DA:601,0
DA:602,0
DA:603,0
DA:604,0
DA:605,0
DA:614,0
DA:615,0
DA:616,0
DA:622,0
DA:623,0
DA:624,0
BRF:0
BRH:0
LF:353
LH:6
end_of_record
SF:/home/eastgate/Development/ecoPrimals/nestgate/code/crates/nestgate-api/src/handlers/storage_tests.rs
FN:111,_RNvNtNtNtCs5HKDRulWIag_12nestgate_api8handlers13storage_tests5testss_23test_storage_pool_clone
FN:35,_RNvNtNtNtCs5HKDRulWIag_12nestgate_api8handlers13storage_tests5testss_26test_storage_handler_clone
FN:314,_RNvNtNtNtCs5HKDRulWIag_12nestgate_api8handlers13storage_tests5testss_26test_storage_metrics_clone
FN:48,_RNvNtNtNtCs5HKDRulWIag_12nestgate_api8handlers13storage_tests5testss_26test_storage_pool_creation
FN:24,_RNvNtNtNtCs5HKDRulWIag_12nestgate_api8handlers13storage_tests5testss_28test_storage_handler_default
FN:131,_RNvNtNtNtCs5HKDRulWIag_12nestgate_api8handlers13storage_tests5testss_29test_storage_dataset_creation
FN:15,_RNvNtNtNtCs5HKDRulWIag_12nestgate_api8handlers13storage_tests5testss_29test_storage_handler_creation
FN:247,_RNvNtNtNtCs5HKDRulWIag_12nestgate_api8handlers13storage_tests5testss_29test_storage_metrics_creation
FN:335,_RNvNtNtNtCs5HKDRulWIag_12nestgate_api8handlers13storage_tests5testss_29test_storage_pool_zero_values
FN:193,_RNvNtNtNtCs5HKDRulWIag_12nestgate_api8handlers13storage_tests5testss_30test_storage_snapshot_creation
FN:69,_RNvNtNtNtCs5HKDRulWIag_12nestgate_api8handlers13storage_tests5testss_31test_storage_pool_serialization
FN:90,_RNvNtNtNtCs5HKDRulWIag_12nestgate_api8handlers13storage_tests5testss_33test_storage_pool_deserialization
FN:150,_RNvNtNtNtCs5HKDRulWIag_12nestgate_api8handlers13storage_tests5testss_34test_storage_dataset_serialization
FN:269,_RNvNtNtNtCs5HKDRulWIag_12nestgate_api8handlers13storage_tests5testss_34test_storage_metrics_serialization
FN:387,_RNvNtNtNtCs5HKDRulWIag_12nestgate_api8handlers13storage_tests5testss_34test_storage_snapshot_unicode_name
FN:368,_RNvNtNtNtCs5HKDRulWIag_12nestgate_api8handlers13storage_tests5testss_35test_storage_metrics_zero_resources
FN:209,_RNvNtNtNtCs5HKDRulWIag_12nestgate_api8handlers13storage_tests5testss_35test_storage_snapshot_serialization
FN:171,_RNvNtNtNtCs5HKDRulWIag_12nestgate_api8handlers13storage_tests5testss_36test_storage_dataset_deserialization
FN:291,_RNvNtNtNtCs5HKDRulWIag_12nestgate_api8handlers13storage_tests5testss_36test_storage_metrics_deserialization
FN:227,_RNvNtNtNtCs5HKDRulWIag_12nestgate_api8handlers13storage_tests5testss_37test_storage_snapshot_deserialization
FN:352,_RNvNtNtNtCs5HKDRulWIag_12nestgate_api8handlers13storage_tests5testss_38test_storage_dataset_empty_mount_point
FN:403,_RNvNtNtNtCs5HKDRulWIag_12nestgate_api8handlers13storage_tests5testss_38test_storage_pool_capacity_calculation
FN:430,_RNvNtNtNtCs5HKDRulWIag_12nestgate_api8handlers13storage_tests5testss_40test_storage_dataset_capacity_validation
FNDA:1,_RNvNtNtNtCs5HKDRulWIag_12nestgate_api8handlers13storage_tests5testss_23test_storage_pool_clone
FNDA:1,_RNvNtNtNtCs5HKDRulWIag_12nestgate_api8handlers13storage_tests5testss_26test_storage_handler_clone
FNDA:1,_RNvNtNtNtCs5HKDRulWIag_12nestgate_api8handlers13storage_tests5testss_26test_storage_metrics_clone
FNDA:1,_RNvNtNtNtCs5HKDRulWIag_12nestgate_api8handlers13storage_tests5testss_26test_storage_pool_creation
FNDA:1,_RNvNtNtNtCs5HKDRulWIag_12nestgate_api8handlers13storage_tests5testss_28test_storage_handler_default
FNDA:1,_RNvNtNtNtCs5HKDRulWIag_12nestgate_api8handlers13storage_tests5testss_29test_storage_dataset_creation
FNDA:1,_RNvNtNtNtCs5HKDRulWIag_12nestgate_api8handlers13storage_tests5testss_29test_storage_handler_creation
FNDA:1,_RNvNtNtNtCs5HKDRulWIag_12nestgate_api8handlers13storage_tests5testss_29test_storage_metrics_creation
FNDA:1,_RNvNtNtNtCs5HKDRulWIag_12nestgate_api8handlers13storage_tests5testss_29test_storage_pool_zero_values
FNDA:1,_RNvNtNtNtCs5HKDRulWIag_12nestgate_api8handlers13storage_tests5testss_30test_storage_snapshot_creation
FNDA:1,_RNvNtNtNtCs5HKDRulWIag_12nestgate_api8handlers13storage_tests5testss_31test_storage_pool_serialization
FNDA:1,_RNvNtNtNtCs5HKDRulWIag_12nestgate_api8handlers13storage_tests5testss_33test_storage_pool_deserialization
FNDA:1,_RNvNtNtNtCs5HKDRulWIag_12nestgate_api8handlers13storage_tests5testss_34test_storage_dataset_serialization
FNDA:1,_RNvNtNtNtCs5HKDRulWIag_12nestgate_api8handlers13storage_tests5testss_34test_storage_metrics_serialization
FNDA:1,_RNvNtNtNtCs5HKDRulWIag_12nestgate_api8handlers13storage_tests5testss_34test_storage_snapshot_unicode_name
FNDA:1,_RNvNtNtNtCs5HKDRulWIag_12nestgate_api8handlers13storage_tests5testss_35test_storage_metrics_zero_resources
FNDA:1,_RNvNtNtNtCs5HKDRulWIag_12nestgate_api8handlers13storage_tests5testss_35test_storage_snapshot_serialization
FNDA:1,_RNvNtNtNtCs5HKDRulWIag_12nestgate_api8handlers13storage_tests5testss_36test_storage_dataset_deserialization
FNDA:1,_RNvNtNtNtCs5HKDRulWIag_12nestgate_api8handlers13storage_tests5testss_36test_storage_metrics_deserialization
FNDA:1,_RNvNtNtNtCs5HKDRulWIag_12nestgate_api8handlers13storage_tests5testss_37test_storage_snapshot_deserialization
FNDA:1,_RNvNtNtNtCs5HKDRulWIag_12nestgate_api8handlers13storage_tests5testss_38test_storage_dataset_empty_mount_point
FNDA:1,_RNvNtNtNtCs5HKDRulWIag_12nestgate_api8handlers13storage_tests5testss_38test_storage_pool_capacity_calculation
FNDA:1,_RNvNtNtNtCs5HKDRulWIag_12nestgate_api8handlers13storage_tests5testss_40test_storage_dataset_capacity_validation
FNF:23
FNH:23
DA:15,1
DA:16,1
DA:17,1
DA:18,1
DA:19,0
DA:21,1
DA:24,1
DA:25,1
DA:26,1
DA:28,1
DA:29,1
DA:30,1
DA:32,1
DA:35,1
DA:36,1
DA:37,1
DA:39,1
DA:40,1
DA:41,1
DA:43,1
DA:48,1
DA:49,1
DA:50,1
DA:51,1
DA:52,1
DA:53,1
DA:54,1
DA:55,1
DA:56,1
DA:57,1
DA:59,1
DA:60,1
DA:61,1
DA:62,1
DA:63,1
DA:64,1
DA:65,1
DA:66,1
DA:69,1
DA:70,1
DA:71,1
DA:72,1
DA:73,1
DA:74,1
DA:75,1
DA:76,1
DA:77,1
DA:78,1
DA:80,1
DA:81,1
DA:83,1
DA:84,1
DA:85,1
DA:86,1
DA:87,1
DA:90,1
DA:91,1
DA:92,1
DA:93,1
DA:94,1
DA:95,1
DA:96,1
DA:97,1
DA:98,1
DA:99,1
DA:101,1
DA:102,1
DA:104,1
DA:105,1
DA:106,1
DA:107,1
DA:108,1
DA:111,1
DA:112,1
DA:113,1
DA:114,1
DA:115,1
DA:116,1
DA:117,1
DA:118,1
DA:119,1
DA:120,1
DA:122,1
DA:123,1
DA:124,1
DA:125,1
DA:126,1
DA:131,1
DA:132,1
DA:133,1
DA:134,1
DA:135,1
DA:136,1
DA:137,1
DA:138,1
DA:139,1
DA:140,1
DA:142,1
DA:143,1
DA:144,1
DA:145,1
DA:146,1
DA:147,1
DA:150,1
DA:151,1
DA:152,1
DA:153,1
DA:154,1
DA:155,1
DA:156,1
DA:157,1
DA:158,1
DA:159,1
DA:161,1
DA:162,1
DA:164,1
DA:165,1
DA:166,1
DA:167,1
DA:168,1
DA:171,1
DA:172,1
DA:173,1
DA:174,1
DA:175,1
DA:176,1
DA:177,1
DA:178,1
DA:179,1
DA:180,1
DA:182,1
DA:183,1
DA:185,1
DA:186,1
DA:187,1
DA:188,1
DA:193,1
DA:194,1
DA:195,1
DA:196,1
DA:197,1
DA:198,1
DA:199,1
DA:200,1
DA:202,1
DA:203,1
DA:204,1
DA:205,1
DA:206,1
DA:209,1
DA:210,1
DA:211,1
DA:212,1
DA:213,1
DA:214,1
DA:215,1
DA:216,1
DA:218,1
DA:219,1
DA:221,1
DA:222,1
DA:223,1
DA:224,1
DA:227,1
DA:228,1
DA:229,1
DA:230,1
DA:231,1
DA:232,1
DA:233,1
DA:234,1
DA:236,1
DA:237,1
DA:239,1
DA:240,1
DA:241,1
DA:242,1
DA:247,1
DA:248,1
DA:249,1
DA:250,1
DA:251,1
DA:252,1
DA:253,1
DA:254,1
DA:255,1
DA:256,1
DA:257,1
DA:258,1
DA:260,1
DA:261,1
DA:262,1
DA:263,1
DA:264,1
DA:265,1
DA:266,1
DA:269,1
DA:270,1
DA:271,1
DA:272,1
DA:273,1
DA:274,1
DA:275,1
DA:276,1
DA:277,1
DA:278,1
DA:279,1
DA:280,1
DA:282,1
DA:283,1
DA:285,1
DA:286,1
DA:287,1
DA:288,1
DA:291,1
DA:292,1
DA:293,1
DA:294,1
DA:295,1
DA:296,1
DA:297,1
DA:298,1
DA:299,1
DA:300,1
DA:301,1
DA:302,1
DA:304,1
DA:305,1
DA:307,1
DA:308,1
DA:309,1
DA:310,1
DA:311,1
DA:314,1
DA:315,1
DA:316,1
DA:317,1
DA:318,1
DA:319,1
DA:320,1
DA:321,1
DA:322,1
DA:323,1
DA:324,1
DA:325,1
DA:327,1
DA:328,1
DA:329,1
DA:330,1
DA:335,1
DA:336,1
DA:337,1
DA:338,1
DA:339,1
DA:340,1
DA:341,1
DA:342,1
DA:343,1
DA:344,1
DA:346,1
DA:347,1
DA:348,1
DA:349,1
DA:352,1
DA:353,1
DA:354,1
DA:355,1
DA:356,1
DA:357,1
DA:358,1
DA:359,1
DA:360,1
DA:361,1
DA:363,1
DA:364,1
DA:365,1
DA:368,1
DA:369,1
DA:370,1
DA:371,1
DA:372,1
DA:373,1
DA:374,1
DA:375,1
DA:376,1
DA:377,1
DA:378,1
DA:379,1
DA:381,1
DA:382,1
DA:383,1
DA:384,1
DA:387,1
DA:388,1
DA:389,1
DA:390,1
DA:391,1
DA:392,1
DA:393,1
DA:394,1
DA:396,1
DA:397,1
DA:398,1
DA:403,1
DA:404,1
DA:405,1
DA:406,1
DA:407,1
DA:408,1
DA:409,1
DA:410,1
DA:411,1
DA:412,1
DA:415,1
DA:416,1
DA:418,0
DA:422,1
DA:423,1
DA:424,1
DA:425,0
DA:427,1
DA:430,1
DA:431,1
DA:432,1
DA:433,1
DA:434,1
DA:435,1
DA:436,1
DA:437,1
DA:438,1
DA:439,1
DA:442,1
DA:443,1
DA:445,0
DA:447,1
BRF:0
BRH:0
LF:335
LH:331
end_of_record
SF:/home/eastgate/Development/ecoPrimals/nestgate/code/crates/nestgate-api/src/handlers/workspace_management/collaboration.rs
FN:11,_RNvNtNtNtCs5HKDRulWIag_12nestgate_api8handlers20workspace_management13collaboration15share_workspace
FN:24,_RNvNtNtNtCs5HKDRulWIag_12nestgate_api8handlers20workspace_management13collaboration17unshare_workspace
FNDA:0,_RNvNtNtNtCs5HKDRulWIag_12nestgate_api8handlers20workspace_management13collaboration15share_workspace
FNDA:0,_RNvNtNtNtCs5HKDRulWIag_12nestgate_api8handlers20workspace_management13collaboration17unshare_workspace
FNF:2
FNH:0
DA:11,0
DA:12,0
DA:19,0
DA:20,0
DA:24,0
DA:25,0
DA:31,0
DA:32,0
BRF:0
BRH:0
LF:8
LH:0
end_of_record
SF:/home/eastgate/Development/ecoPrimals/nestgate/code/crates/nestgate-api/src/handlers/workspace_management/crud.rs
FN:218,_RNCNCNvNtNtNtCs5HKDRulWIag_12nestgate_api8handlers20workspace_management4crud13get_workspace00Bb_
FN:269,_RNCNCNvNtNtNtCs5HKDRulWIag_12nestgate_api8handlers20workspace_management4crud13get_workspace0s_0Bb_
FN:19,_RNCNCNvNtNtNtCs5HKDRulWIag_12nestgate_api8handlers20workspace_management4crud14get_workspaces00Bb_
FN:119,_RNCNCNvNtNtNtCs5HKDRulWIag_12nestgate_api8handlers20workspace_management4crud16create_workspace00Bb_
FN:141,_RNCNCNvNtNtNtCs5HKDRulWIag_12nestgate_api8handlers20workspace_management4crud16create_workspace0s0_0Bb_
FN:151,_RNCNCNvNtNtNtCs5HKDRulWIag_12nestgate_api8handlers20workspace_management4crud16create_workspace0s1_0Bb_
FN:163,_RNCNCNvNtNtNtCs5HKDRulWIag_12nestgate_api8handlers20workspace_management4crud16create_workspace0s2_0Bb_
FN:127,_RNCNCNvNtNtNtCs5HKDRulWIag_12nestgate_api8handlers20workspace_management4crud16create_workspace0s_0Bb_
FN:527,_RNCNCNvNtNtNtCs5HKDRulWIag_12nestgate_api8handlers20workspace_management4crud21get_workspace_details00Bb_
FN:323,_RNCNCNvNtNtNtCs5HKDRulWIag_12nestgate_api8handlers20workspace_management4crud23update_workspace_config00Bb_
FN:355,_RNCNCNvNtNtNtCs5HKDRulWIag_12nestgate_api8handlers20workspace_management4crud23update_workspace_config0s0_0Bb_
FN:377,_RNCNCNvNtNtNtCs5HKDRulWIag_12nestgate_api8handlers20workspace_management4crud23update_workspace_config0s1_0Bb_
FN:330,_RNCNCNvNtNtNtCs5HKDRulWIag_12nestgate_api8handlers20workspace_management4crud23update_workspace_config0s_0Bb_
FN:209,_RNCNvNtNtNtCs5HKDRulWIag_12nestgate_api8handlers20workspace_management4crud13get_workspace0B9_
FN:16,_RNCNvNtNtNtCs5HKDRulWIag_12nestgate_api8handlers20workspace_management4crud14get_workspaces0B9_
FN:115,_RNCNvNtNtNtCs5HKDRulWIag_12nestgate_api8handlers20workspace_management4crud16create_workspace0B9_
FN:432,_RNCNvNtNtNtCs5HKDRulWIag_12nestgate_api8handlers20workspace_management4crud16delete_workspace0B9_
FN:565,_RNCNvNtNtNtCs5HKDRulWIag_12nestgate_api8handlers20workspace_management4crud18get_snapshot_count0B9_
FN:525,_RNCNvNtNtNtCs5HKDRulWIag_12nestgate_api8handlers20workspace_management4crud21get_workspace_details0B9_
FN:311,_RNCNvNtNtNtCs5HKDRulWIag_12nestgate_api8handlers20workspace_management4crud23update_workspace_config0B9_
FN:491,_RNCNvNtNtNtCs5HKDRulWIag_12nestgate_api8handlers20workspace_management4crud24get_workspace_properties0B9_
FN:581,_RNvNtNtNtCs5HKDRulWIag_12nestgate_api8handlers20workspace_management4crud10parse_size
FN:209,_RNvNtNtNtCs5HKDRulWIag_12nestgate_api8handlers20workspace_management4crud13get_workspace
FN:16,_RNvNtNtNtCs5HKDRulWIag_12nestgate_api8handlers20workspace_management4crud14get_workspaces
FN:115,_RNvNtNtNtCs5HKDRulWIag_12nestgate_api8handlers20workspace_management4crud16create_workspace
FN:432,_RNvNtNtNtCs5HKDRulWIag_12nestgate_api8handlers20workspace_management4crud16delete_workspace
FN:565,_RNvNtNtNtCs5HKDRulWIag_12nestgate_api8handlers20workspace_management4crud18get_snapshot_count
FN:525,_RNvNtNtNtCs5HKDRulWIag_12nestgate_api8handlers20workspace_management4crud21get_workspace_details
FN:308,_RNvNtNtNtCs5HKDRulWIag_12nestgate_api8handlers20workspace_management4crud23update_workspace_config
FN:491,_RNvNtNtNtCs5HKDRulWIag_12nestgate_api8handlers20workspace_management4crud24get_workspace_properties
FNDA:0,_RNCNCNvNtNtNtCs5HKDRulWIag_12nestgate_api8handlers20workspace_management4crud13get_workspace00Bb_
FNDA:0,_RNCNCNvNtNtNtCs5HKDRulWIag_12nestgate_api8handlers20workspace_management4crud13get_workspace0s_0Bb_
FNDA:0,_RNCNCNvNtNtNtCs5HKDRulWIag_12nestgate_api8handlers20workspace_management4crud14get_workspaces00Bb_
FNDA:0,_RNCNCNvNtNtNtCs5HKDRulWIag_12nestgate_api8handlers20workspace_management4crud16create_workspace00Bb_
FNDA:0,_RNCNCNvNtNtNtCs5HKDRulWIag_12nestgate_api8handlers20workspace_management4crud16create_workspace0s0_0Bb_
FNDA:0,_RNCNCNvNtNtNtCs5HKDRulWIag_12nestgate_api8handlers20workspace_management4crud16create_workspace0s1_0Bb_
FNDA:0,_RNCNCNvNtNtNtCs5HKDRulWIag_12nestgate_api8handlers20workspace_management4crud16create_workspace0s2_0Bb_
FNDA:0,_RNCNCNvNtNtNtCs5HKDRulWIag_12nestgate_api8handlers20workspace_management4crud16create_workspace0s_0Bb_
FNDA:0,_RNCNCNvNtNtNtCs5HKDRulWIag_12nestgate_api8handlers20workspace_management4crud21get_workspace_details00Bb_
FNDA:0,_RNCNCNvNtNtNtCs5HKDRulWIag_12nestgate_api8handlers20workspace_management4crud23update_workspace_config00Bb_
FNDA:0,_RNCNCNvNtNtNtCs5HKDRulWIag_12nestgate_api8handlers20workspace_management4crud23update_workspace_config0s0_0Bb_
FNDA:0,_RNCNCNvNtNtNtCs5HKDRulWIag_12nestgate_api8handlers20workspace_management4crud23update_workspace_config0s1_0Bb_
FNDA:0,_RNCNCNvNtNtNtCs5HKDRulWIag_12nestgate_api8handlers20workspace_management4crud23update_workspace_config0s_0Bb_
FNDA:0,_RNCNvNtNtNtCs5HKDRulWIag_12nestgate_api8handlers20workspace_management4crud13get_workspace0B9_
FNDA:0,_RNCNvNtNtNtCs5HKDRulWIag_12nestgate_api8handlers20workspace_management4crud14get_workspaces0B9_
FNDA:0,_RNCNvNtNtNtCs5HKDRulWIag_12nestgate_api8handlers20workspace_management4crud16create_workspace0B9_
FNDA:0,_RNCNvNtNtNtCs5HKDRulWIag_12nestgate_api8handlers20workspace_management4crud16delete_workspace0B9_
FNDA:0,_RNCNvNtNtNtCs5HKDRulWIag_12nestgate_api8handlers20workspace_management4crud18get_snapshot_count0B9_
FNDA:0,_RNCNvNtNtNtCs5HKDRulWIag_12nestgate_api8handlers20workspace_management4crud21get_workspace_details0B9_
FNDA:0,_RNCNvNtNtNtCs5HKDRulWIag_12nestgate_api8handlers20workspace_management4crud23update_workspace_config0B9_
FNDA:0,_RNCNvNtNtNtCs5HKDRulWIag_12nestgate_api8handlers20workspace_management4crud24get_workspace_properties0B9_
FNDA:0,_RNvNtNtNtCs5HKDRulWIag_12nestgate_api8handlers20workspace_management4crud10parse_size
FNDA:0,_RNvNtNtNtCs5HKDRulWIag_12nestgate_api8handlers20workspace_management4crud13get_workspace
FNDA:0,_RNvNtNtNtCs5HKDRulWIag_12nestgate_api8handlers20workspace_management4crud14get_workspaces
FNDA:0,_RNvNtNtNtCs5HKDRulWIag_12nestgate_api8handlers20workspace_management4crud16create_workspace
FNDA:0,_RNvNtNtNtCs5HKDRulWIag_12nestgate_api8handlers20workspace_management4crud16delete_workspace
FNDA:0,_RNvNtNtNtCs5HKDRulWIag_12nestgate_api8handlers20workspace_management4crud18get_snapshot_count
FNDA:0,_RNvNtNtNtCs5HKDRulWIag_12nestgate_api8handlers20workspace_management4crud21get_workspace_details
FNDA:0,_RNvNtNtNtCs5HKDRulWIag_12nestgate_api8handlers20workspace_management4crud23update_workspace_config
FNDA:0,_RNvNtNtNtCs5HKDRulWIag_12nestgate_api8handlers20workspace_management4crud24get_workspace_properties
FNF:30
FNH:0
DA:16,0
DA:17,0
DA:18,0
DA:19,0
DA:20,0
DA:23,0
DA:24,0
DA:25,0
DA:26,0
DA:27,0
DA:28,0
DA:29,0
DA:30,0
DA:31,0
DA:32,0
DA:33,0
DA:34,0
DA:35,0
DA:36,0
DA:38,0
DA:39,0
DA:40,0
DA:41,0
DA:43,0
DA:44,0
DA:45,0
DA:46,0
DA:48,0
DA:49,0
DA:50,0
DA:51,0
DA:52,0
DA:53,0
DA:54,0
DA:55,0
DA:58,0
DA:60,0
DA:61,0
DA:62,0
DA:65,0
DA:66,0
DA:68,0
DA:69,0
DA:70,0
DA:71,0
DA:72,0
DA:73,0
DA:74,0
DA:75,0
DA:76,0
DA:77,0
DA:78,0
DA:79,0
DA:80,0
DA:82,0
DA:83,0
DA:86,0
DA:87,0
DA:88,0
DA:89,0
DA:90,0
DA:91,0
DA:92,0
DA:94,0
DA:95,0
DA:96,0
DA:99,0
DA:100,0
DA:101,0
DA:102,0
DA:103,0
DA:104,0
DA:105,0
DA:107,0
DA:108,0
DA:109,0
DA:112,0
DA:115,0
DA:116,0
DA:117,0
DA:118,0
DA:119,0
DA:120,0
DA:123,0
DA:124,0
DA:126,0
DA:127,0
DA:128,0
DA:131,0
DA:132,0
DA:133,0
DA:134,0
DA:137,0
DA:141,0
DA:142,0
DA:143,0
DA:144,0
DA:145,0
DA:146,0
DA:147,0
DA:148,0
DA:151,0
DA:152,0
DA:153,0
DA:154,0
DA:155,0
DA:156,0
DA:157,0
DA:158,0
DA:161,0
DA:162,0
DA:163,0
DA:164,0
DA:165,0
DA:166,0
DA:167,0
DA:170,0
DA:171,0
DA:172,0
DA:173,0
DA:174,0
DA:176,0
DA:178,0
DA:180,0
DA:181,0
DA:182,0
DA:185,0
DA:187,0
DA:188,0
DA:189,0
DA:190,0
DA:191,0
DA:192,0
DA:193,0
DA:194,0
DA:196,0
DA:197,0
DA:198,0
DA:199,0
DA:201,0
DA:202,0
DA:203,0
DA:206,0
DA:209,0
DA:210,0
DA:212,0
DA:213,0
DA:214,0
DA:215,0
DA:217,0
DA:218,0
DA:219,0
DA:222,0
DA:223,0
DA:224,0
DA:225,0
DA:226,0
DA:227,0
DA:228,0
DA:229,0
DA:230,0
DA:231,0
DA:233,0
DA:234,0
DA:235,0
DA:236,0
DA:238,0
DA:239,0
DA:240,0
DA:241,0
DA:242,0
DA:246,0
DA:249,0
DA:250,0
DA:251,0
DA:252,0
DA:254,0
DA:258,0
DA:259,0
DA:260,0
DA:261,0
DA:263,0
DA:266,0
DA:267,0
DA:268,0
DA:269,0
DA:271,0
DA:272,0
DA:273,0
DA:274,0
DA:275,0
DA:276,0
DA:277,0
DA:278,0
DA:279,0
DA:280,0
DA:281,0
DA:282,0
DA:283,0
DA:284,0
DA:285,0
DA:286,0
DA:287,0
DA:288,0
DA:289,0
DA:290,0
DA:292,0
DA:293,0
DA:294,0
DA:295,0
DA:298,0
DA:300,0
DA:301,0
DA:302,0
DA:305,0
DA:308,0
DA:309,0
DA:310,0
DA:311,0
DA:312,0
DA:313,0
DA:317,0
DA:318,0
DA:319,0
DA:320,0
DA:322,0
DA:323,0
DA:324,0
DA:326,0
DA:327,0
DA:330,0
DA:331,0
DA:332,0
DA:333,0
DA:334,0
DA:336,0
DA:337,0
DA:338,0
DA:339,0
DA:341,0
DA:342,0
DA:343,0
DA:344,0
DA:345,0
DA:346,0
DA:347,0
DA:348,0
DA:349,0
DA:350,0
DA:352,0
DA:355,0
DA:356,0
DA:357,0
DA:358,0
DA:359,0
DA:361,0
DA:362,0
DA:363,0
DA:364,0
DA:366,0
DA:367,0
DA:368,0
DA:369,0
DA:370,0
DA:371,0
DA:372,0
DA:374,0
DA:377,0
DA:378,0
DA:379,0
DA:380,0
DA:381,0
DA:382,0
DA:383,0
DA:384,0
DA:385,0
DA:387,0
DA:388,0
DA:389,0
DA:390,0
DA:392,0
DA:393,0
DA:394,0
DA:395,0
DA:396,0
DA:397,0
DA:398,0
DA:400,0
DA:403,0
DA:404,0
DA:405,0
DA:408,0
DA:409,0
DA:410,0
DA:411,0
DA:412,0
DA:413,0
DA:414,0
DA:415,0
DA:416,0
DA:418,0
DA:419,0
DA:420,0
DA:421,0
DA:422,0
DA:423,0
DA:424,0
DA:425,0
DA:427,0
DA:432,0
DA:433,0
DA:436,0
DA:437,0
DA:438,0
DA:439,0
DA:442,0
DA:445,0
DA:446,0
DA:447,0
DA:448,0
DA:450,0
DA:451,0
DA:453,0
DA:456,0
DA:457,0
DA:459,0
DA:460,0
DA:461,0
DA:466,0
DA:467,0
DA:468,0
DA:469,0
DA:471,0
DA:472,0
DA:473,0
DA:474,0
DA:476,0
DA:477,0
DA:478,0
DA:479,0
DA:481,0
DA:482,0
DA:483,0
DA:486,0
DA:491,0
DA:492,0
DA:493,0
DA:494,0
DA:495,0
DA:496,0
DA:497,0
DA:498,0
DA:499,0
DA:500,0
DA:501,0
DA:502,0
DA:503,0
DA:504,0
DA:505,0
DA:506,0
DA:507,0
DA:508,0
DA:509,0
DA:510,0
DA:511,0
DA:512,0
DA:514,0
DA:516,0
DA:517,0
DA:518,0
DA:519,0
DA:521,0
DA:522,0
DA:525,0
DA:526,0
DA:527,0
DA:528,0
DA:529,0
DA:530,0
DA:531,0
DA:532,0
DA:533,0
DA:534,0
DA:535,0
DA:536,0
DA:537,0
DA:538,0
DA:539,0
DA:541,0
DA:542,0
DA:543,0
DA:544,0
DA:545,0
DA:546,0
DA:547,0
DA:548,0
DA:549,0
DA:550,0
DA:552,0
DA:553,0
DA:554,0
DA:556,0
DA:557,0
DA:558,0
DA:559,0
DA:560,0
DA:562,0
DA:565,0
DA:566,0
DA:567,0
DA:568,0
DA:569,0
DA:570,0
DA:571,0
DA:572,0
DA:573,0
DA:574,0
DA:575,0
DA:577,0
DA:578,0
DA:581,0
DA:582,0
DA:583,0
DA:584,0
DA:585,0
DA:586,0
DA:587,0
DA:588,0
DA:591,0
DA:592,0
DA:593,0
DA:596,0
DA:597,0
DA:598,0
DA:599,0
DA:601,0
DA:604,0
DA:605,0
DA:606,0
DA:607,0
DA:608,0
DA:609,0
DA:610,0
DA:611,0
DA:614,0
DA:616,0
DA:618,0
BRF:0
BRH:0
LF:468
LH:0
end_of_record
SF:/home/eastgate/Development/ecoPrimals/nestgate/code/crates/nestgate-api/src/handlers/workspace_management/mod.rs
FN:83,_RNvMs_NtNtCs5HKDRulWIag_12nestgate_api8handlers20workspace_managementNtB4_16WorkspaceManager3new
FN:75,_RNvXNtNtCs5HKDRulWIag_12nestgate_api8handlers20workspace_managementNtB2_16WorkspaceManagerNtNtCs5GmCzIpY9Qj_4core7default7Default7default
FNDA:0,_RNvMs_NtNtCs5HKDRulWIag_12nestgate_api8handlers20workspace_managementNtB4_16WorkspaceManager3new
FNDA:0,_RNvXNtNtCs5HKDRulWIag_12nestgate_api8handlers20workspace_managementNtB2_16WorkspaceManagerNtNtCs5GmCzIpY9Qj_4core7default7Default7default
FNF:2
FNH:0
DA:75,0
DA:76,0
DA:77,0
DA:83,0
DA:84,0
DA:85,0
DA:86,0
DA:87,0
BRF:0
BRH:0
LF:8
LH:0
end_of_record
SF:/home/eastgate/Development/ecoPrimals/nestgate/code/crates/nestgate-api/src/handlers/workspace_management/optimization.rs
FN:14,_RNCNvNtNtNtCs5HKDRulWIag_12nestgate_api8handlers20workspace_management12optimization18optimize_workspace0B9_
FN:218,_RNCNvNtNtNtCs5HKDRulWIag_12nestgate_api8handlers20workspace_management12optimization23request_ai_optimization0B9_
FN:12,_RNvNtNtNtCs5HKDRulWIag_12nestgate_api8handlers20workspace_management12optimization18optimize_workspace
FN:144,_RNvNtNtNtCs5HKDRulWIag_12nestgate_api8handlers20workspace_management12optimization19optimize_recordsize
FN:117,_RNvNtNtNtCs5HKDRulWIag_12nestgate_api8handlers20workspace_management12optimization20optimize_compression
FN:264,_RNvNtNtNtCs5HKDRulWIag_12nestgate_api8handlers20workspace_management12optimization22get_optimization_stats
FN:200,_RNvNtNtNtCs5HKDRulWIag_12nestgate_api8handlers20workspace_management12optimization22optimize_deduplication
FN:171,_RNvNtNtNtCs5HKDRulWIag_12nestgate_api8handlers20workspace_management12optimization23optimize_cache_settings
FN:218,_RNvNtNtNtCs5HKDRulWIag_12nestgate_api8handlers20workspace_management12optimization23request_ai_optimization
FN:84,_RNvNtNtNtCs5HKDRulWIag_12nestgate_api8handlers20workspace_management12optimization24analyze_storage_patterns
FNDA:0,_RNCNvNtNtNtCs5HKDRulWIag_12nestgate_api8handlers20workspace_management12optimization18optimize_workspace0B9_
FNDA:0,_RNCNvNtNtNtCs5HKDRulWIag_12nestgate_api8handlers20workspace_management12optimization23request_ai_optimization0B9_
FNDA:0,_RNvNtNtNtCs5HKDRulWIag_12nestgate_api8handlers20workspace_management12optimization18optimize_workspace
FNDA:0,_RNvNtNtNtCs5HKDRulWIag_12nestgate_api8handlers20workspace_management12optimization19optimize_recordsize
FNDA:0,_RNvNtNtNtCs5HKDRulWIag_12nestgate_api8handlers20workspace_management12optimization20optimize_compression
FNDA:0,_RNvNtNtNtCs5HKDRulWIag_12nestgate_api8handlers20workspace_management12optimization22get_optimization_stats
FNDA:0,_RNvNtNtNtCs5HKDRulWIag_12nestgate_api8handlers20workspace_management12optimization22optimize_deduplication
FNDA:0,_RNvNtNtNtCs5HKDRulWIag_12nestgate_api8handlers20workspace_management12optimization23optimize_cache_settings
FNDA:0,_RNvNtNtNtCs5HKDRulWIag_12nestgate_api8handlers20workspace_management12optimization23request_ai_optimization
FNDA:0,_RNvNtNtNtCs5HKDRulWIag_12nestgate_api8handlers20workspace_management12optimization24analyze_storage_patterns
FNF:10
FNH:0
DA:12,0
DA:13,0
DA:14,0
DA:15,0
DA:17,0
DA:19,0
DA:20,0
DA:23,0
DA:24,0
DA:27,0
DA:28,0
DA:29,0
DA:30,0
DA:33,0
DA:34,0
DA:35,0
DA:36,0
DA:39,0
DA:40,0
DA:41,0
DA:42,0
DA:45,0
DA:46,0
DA:47,0
DA:48,0
DA:49,0
DA:52,0
DA:53,0
DA:54,0
DA:55,0
DA:56,0
DA:57,0
DA:60,0
DA:62,0
DA:63,0
DA:64,0
DA:65,0
DA:66,0
DA:67,0
DA:68,0
DA:69,0
DA:70,0
DA:71,0
DA:84,0
DA:86,0
DA:87,0
DA:90,0
DA:91,0
DA:92,0
DA:94,0
DA:95,0
DA:96,0
DA:97,0
DA:98,0
DA:99,0
DA:100,0
DA:103,0
DA:104,0
DA:105,0
DA:106,0
DA:108,0
DA:109,0
DA:110,0
DA:111,0
DA:112,0
DA:113,0
DA:114,0
DA:115,0
DA:117,0
DA:119,0
DA:120,0
DA:121,0
DA:122,0
DA:124,0
DA:128,0
DA:129,0
DA:130,0
DA:132,0
DA:133,0
DA:134,0
DA:135,0
DA:136,0
DA:137,0
DA:138,0
DA:140,0
DA:142,0
DA:144,0
DA:146,0
DA:147,0
DA:148,0
DA:149,0
DA:151,0
DA:155,0
DA:156,0
DA:157,0
DA:159,0
DA:160,0
DA:161,0
DA:162,0
DA:163,0
DA:164,0
DA:165,0
DA:167,0
DA:169,0
DA:171,0
DA:173,0
DA:174,0
DA:175,0
DA:176,0
DA:178,0
DA:182,0
DA:183,0
DA:184,0
DA:186,0
DA:187,0
DA:188,0
DA:190,0
DA:191,0
DA:192,0
DA:193,0
DA:194,0
DA:196,0
DA:198,0
DA:200,0
DA:202,0
DA:203,0
DA:204,0
DA:206,0
DA:207,0
DA:208,0
DA:210,0
DA:211,0
DA:212,0
DA:214,0
DA:216,0
DA:218,0
DA:221,0
DA:222,0
DA:226,0
DA:229,0
DA:230,0
DA:231,0
DA:232,0
DA:233,0
DA:234,0
DA:235,0
DA:236,0
DA:237,0
DA:239,0
DA:242,0
DA:243,0
DA:244,0
DA:245,0
DA:246,0
DA:247,0
DA:249,0
DA:250,0
DA:251,0
DA:252,0
DA:253,0
DA:254,0
DA:255,0
DA:256,0
DA:257,0
DA:258,0
DA:259,0
DA:261,0
DA:262,0
DA:264,0
DA:266,0
DA:267,0
DA:268,0
DA:269,0
DA:270,0
DA:271,0
DA:272,0
DA:273,0
DA:274,0
DA:275,0
DA:277,0
DA:278,0
DA:279,0
DA:280,0
DA:282,0
DA:283,0
DA:284,0
DA:285,0
DA:286,0
DA:287,0
DA:288,0
DA:289,0
DA:291,0
DA:293,0
DA:296,0
DA:297,0
DA:299,0
BRF:0
BRH:0
LF:198
LH:0
end_of_record
SF:/home/eastgate/Development/ecoPrimals/nestgate/code/crates/nestgate-api/src/handlers/workspace_management/secrets.rs
FN:14,_RNCNvNtNtNtCs5HKDRulWIag_12nestgate_api8handlers20workspace_management7secrets23create_workspace_secret0B9_
FN:12,_RNvNtNtNtCs5HKDRulWIag_12nestgate_api8handlers20workspace_management7secrets23create_workspace_secret
FNDA:0,_RNCNvNtNtNtCs5HKDRulWIag_12nestgate_api8handlers20workspace_management7secrets23create_workspace_secret0B9_
FNDA:0,_RNvNtNtNtCs5HKDRulWIag_12nestgate_api8handlers20workspace_management7secrets23create_workspace_secret
FNF:2
FNH:0
DA:12,0
DA:13,0
DA:14,0
DA:15,0
DA:17,0
DA:20,0
DA:21,0
DA:22,0
DA:23,0
DA:24,0
DA:25,0
DA:26,0
DA:27,0
DA:28,0
DA:29,0
DA:31,0
DA:32,0
DA:34,0
DA:35,0
DA:36,0
DA:37,0
DA:38,0
DA:39,0
DA:40,0
DA:43,0
BRF:0
BRH:0
LF:26
LH:0
end_of_record
SF:/home/eastgate/Development/ecoPrimals/nestgate/code/crates/nestgate-api/src/handlers/workspace_management/storage.rs
FN:126,_RNCNCNvNtNtNtCs5HKDRulWIag_12nestgate_api8handlers20workspace_management7storage20get_workspace_status00Bb_
FN:134,_RNCNCNvNtNtNtCs5HKDRulWIag_12nestgate_api8handlers20workspace_management7storage20get_workspace_status0s0_0Bb_
FN:130,_RNCNCNvNtNtNtCs5HKDRulWIag_12nestgate_api8handlers20workspace_management7storage20get_workspace_status0s_0Bb_
FN:276,_RNCNvNtNtNtCs5HKDRulWIag_12nestgate_api8handlers20workspace_management7storage15scale_workspace0B9_
FN:15,_RNCNvNtNtNtCs5HKDRulWIag_12nestgate_api8handlers20workspace_management7storage16delete_workspace0B9_
FN:180,_RNCNvNtNtNtCs5HKDRulWIag_12nestgate_api8handlers20workspace_management7storage17cleanup_workspace0B9_
FN:86,_RNCNvNtNtNtCs5HKDRulWIag_12nestgate_api8handlers20workspace_management7storage20get_workspace_status0B9_
FN:276,_RNvNtNtNtCs5HKDRulWIag_12nestgate_api8handlers20workspace_management7storage15scale_workspace
FN:15,_RNvNtNtNtCs5HKDRulWIag_12nestgate_api8handlers20workspace_management7storage16delete_workspace
FN:178,_RNvNtNtNtCs5HKDRulWIag_12nestgate_api8handlers20workspace_management7storage17cleanup_workspace
FN:84,_RNvNtNtNtCs5HKDRulWIag_12nestgate_api8handlers20workspace_management7storage20get_workspace_status
FNDA:0,_RNCNCNvNtNtNtCs5HKDRulWIag_12nestgate_api8handlers20workspace_management7storage20get_workspace_status00Bb_
FNDA:0,_RNCNCNvNtNtNtCs5HKDRulWIag_12nestgate_api8handlers20workspace_management7storage20get_workspace_status0s0_0Bb_
FNDA:0,_RNCNCNvNtNtNtCs5HKDRulWIag_12nestgate_api8handlers20workspace_management7storage20get_workspace_status0s_0Bb_
FNDA:0,_RNCNvNtNtNtCs5HKDRulWIag_12nestgate_api8handlers20workspace_management7storage15scale_workspace0B9_
FNDA:0,_RNCNvNtNtNtCs5HKDRulWIag_12nestgate_api8handlers20workspace_management7storage16delete_workspace0B9_
FNDA:0,_RNCNvNtNtNtCs5HKDRulWIag_12nestgate_api8handlers20workspace_management7storage17cleanup_workspace0B9_
FNDA:0,_RNCNvNtNtNtCs5HKDRulWIag_12nestgate_api8handlers20workspace_management7storage20get_workspace_status0B9_
FNDA:0,_RNvNtNtNtCs5HKDRulWIag_12nestgate_api8handlers20workspace_management7storage15scale_workspace
FNDA:0,_RNvNtNtNtCs5HKDRulWIag_12nestgate_api8handlers20workspace_management7storage16delete_workspace
FNDA:0,_RNvNtNtNtCs5HKDRulWIag_12nestgate_api8handlers20workspace_management7storage17cleanup_workspace
FNDA:0,_RNvNtNtNtCs5HKDRulWIag_12nestgate_api8handlers20workspace_management7storage20get_workspace_status
FNF:11
FNH:0
DA:15,0
DA:16,0
DA:18,0
DA:19,0
DA:20,0
DA:21,0
DA:23,0
DA:26,0
DA:27,0
DA:28,0
DA:29,0
DA:31,0
DA:32,0
DA:33,0
DA:34,0
DA:39,0
DA:40,0
DA:41,0
DA:42,0
DA:43,0
DA:44,0
DA:46,0
DA:47,0
DA:48,0
DA:53,0
DA:54,0
DA:55,0
DA:56,0
DA:58,0
DA:59,0
DA:60,0
DA:61,0
DA:64,0
DA:65,0
DA:66,0
DA:67,0
DA:68,0
DA:69,0
DA:71,0
DA:72,0
DA:73,0
DA:74,0
DA:76,0
DA:77,0
DA:78,0
DA:81,0
DA:84,0
DA:85,0
DA:86,0
DA:87,0
DA:89,0
DA:90,0
DA:91,0
DA:92,0
DA:94,0
DA:97,0
DA:98,0
DA:99,0
DA:100,0
DA:101,0
DA:102,0
DA:103,0
DA:104,0
DA:105,0
DA:106,0
DA:107,0
DA:108,0
DA:110,0
DA:111,0
DA:112,0
DA:113,0
DA:116,0
DA:117,0
DA:118,0
DA:119,0
DA:120,0
DA:124,0
DA:125,0
DA:126,0
DA:127,0
DA:128,0
DA:129,0
DA:130,0
DA:131,0
DA:132,0
DA:133,0
DA:134,0
DA:135,0
DA:136,0
DA:138,0
DA:140,0
DA:141,0
DA:142,0
DA:143,0
DA:144,0
DA:146,0
DA:147,0
DA:148,0
DA:149,0
DA:150,0
DA:151,0
DA:152,0
DA:153,0
DA:154,0
DA:155,0
DA:156,0
DA:157,0
DA:158,0
DA:159,0
DA:160,0
DA:161,0
DA:162,0
DA:163,0
DA:165,0
DA:166,0
DA:167,0
DA:168,0
DA:170,0
DA:171,0
DA:172,0
DA:175,0
DA:178,0
DA:179,0
DA:180,0
DA:181,0
DA:183,0
DA:184,0
DA:185,0
DA:186,0
DA:188,0
DA:189,0
DA:190,0
DA:193,0
DA:194,0
DA:195,0
DA:196,0
DA:197,0
DA:198,0
DA:199,0
DA:200,0
DA:201,0
DA:202,0
DA:203,0
DA:204,0
DA:205,0
DA:206,0
DA:208,0
DA:209,0
DA:210,0
DA:211,0
DA:213,0
DA:214,0
DA:215,0
DA:216,0
DA:219,0
DA:220,0
DA:221,0
DA:222,0
DA:223,0
DA:224,0
DA:225,0
DA:226,0
DA:227,0
DA:229,0
DA:230,0
DA:233,0
DA:234,0
DA:235,0
DA:236,0
DA:238,0
DA:239,0
DA:240,0
DA:241,0
DA:242,0
DA:245,0
DA:246,0
DA:247,0
DA:248,0
DA:250,0
DA:251,0
DA:252,0
DA:253,0
DA:255,0
DA:256,0
DA:257,0
DA:258,0
DA:259,0
DA:260,0
DA:261,0
DA:262,0
DA:263,0
DA:265,0
DA:266,0
DA:267,0
DA:268,0
DA:269,0
DA:270,0
DA:271,0
DA:272,0
DA:273,0
DA:276,0
DA:277,0
DA:279,0
DA:282,0
DA:283,0
DA:284,0
DA:285,0
DA:286,0
DA:287,0
DA:288,0
DA:289,0
DA:290,0
DA:291,0
DA:292,0
DA:293,0
DA:295,0
DA:296,0
DA:297,0
DA:298,0
DA:300,0
DA:301,0
DA:302,0
DA:303,0
DA:304,0
DA:306,0
DA:309,0
DA:312,0
DA:313,0
DA:314,0
DA:315,0
DA:316,0
DA:317,0
DA:318,0
DA:319,0
DA:320,0
DA:321,0
DA:322,0
DA:323,0
DA:324,0
DA:325,0
DA:326,0
DA:327,0
DA:328,0
DA:329,0
DA:330,0
DA:332,0
DA:335,0
DA:337,0
BRF:0
BRH:0
LF:255
LH:0
end_of_record
SF:/home/eastgate/Development/ecoPrimals/nestgate/code/crates/nestgate-api/src/handlers/workspace_management/teams.rs
FN:42,_RNCNvNtNtNtCs5HKDRulWIag_12nestgate_api8handlers20workspace_management5teams11create_team0B9_
FN:40,_RNvNtNtNtCs5HKDRulWIag_12nestgate_api8handlers20workspace_management5teams11create_team
FN:64,_RNvNtNtNtCs5HKDRulWIag_12nestgate_api8handlers20workspace_management5teams9get_teams
FNDA:0,_RNCNvNtNtNtCs5HKDRulWIag_12nestgate_api8handlers20workspace_management5teams11create_team0B9_
FNDA:0,_RNvNtNtNtCs5HKDRulWIag_12nestgate_api8handlers20workspace_management5teams11create_team
FNDA:0,_RNvNtNtNtCs5HKDRulWIag_12nestgate_api8handlers20workspace_management5teams9get_teams
FNF:3
FNH:0
DA:40,0
DA:41,0
DA:42,0
DA:43,0
DA:44,0
DA:45,0
DA:46,0
DA:47,0
DA:48,0
DA:49,0
DA:50,0
DA:51,0
DA:52,0
DA:53,0
DA:54,0
DA:55,0
DA:57,0
DA:58,0
DA:64,0
DA:65,0
DA:66,0
DA:67,0
DA:68,0
DA:69,0
DA:70,0
DA:71,0
DA:72,0
DA:73,0
DA:74,0
DA:75,0
DA:76,0
DA:77,0
DA:78,0
DA:79,0
DA:82,0
DA:83,0
BRF:0
BRH:0
LF:37
LH:0
end_of_record
SF:/home/eastgate/Development/ecoPrimals/nestgate/code/crates/nestgate-api/src/handlers/workspace_management/templates.rs
FN:26,_RNvNtNtNtCs5HKDRulWIag_12nestgate_api8handlers20workspace_management9templates24apply_workspace_template
FN:11,_RNvNtNtNtCs5HKDRulWIag_12nestgate_api8handlers20workspace_management9templates25create_workspace_template
FNDA:0,_RNvNtNtNtCs5HKDRulWIag_12nestgate_api8handlers20workspace_management9templates24apply_workspace_template
FNDA:0,_RNvNtNtNtCs5HKDRulWIag_12nestgate_api8handlers20workspace_management9templates25create_workspace_template
FNF:2
FNH:0
DA:11,0
DA:12,0
DA:13,0
DA:14,0
DA:15,0
DA:21,0
DA:22,0
DA:26,0
DA:27,0
DA:28,0
DA:29,0
DA:30,0
DA:36,0
DA:37,0
BRF:0
BRH:0
LF:14
LH:0
end_of_record
SF:/home/eastgate/Development/ecoPrimals/nestgate/code/crates/nestgate-api/src/handlers/zero_cost_api_handlers.rs
FN:124,_RNvMs_NtNtCs5HKDRulWIag_12nestgate_api8handlers22zero_cost_api_handlersINtB4_19ZeroCostPoolHandlerKj1_Ky1_E10timeout_msB8_
FN:118,_RNvMs_NtNtCs5HKDRulWIag_12nestgate_api8handlers22zero_cost_api_handlersINtB4_19ZeroCostPoolHandlerKj1_Ky1_E12max_requestsB8_
FN:109,_RNvMs_NtNtCs5HKDRulWIag_12nestgate_api8handlers22zero_cost_api_handlersINtB4_19ZeroCostPoolHandlerKj1_Ky1_E3newB8_
FN:118,_RNvMs_NtNtCs5HKDRulWIag_12nestgate_api8handlers22zero_cost_api_handlersINtB4_19ZeroCostPoolHandlerKj2710_Ky1388_E12max_requestsB8_
FN:118,_RNvMs_NtNtCs5HKDRulWIag_12nestgate_api8handlers22zero_cost_api_handlersINtB4_19ZeroCostPoolHandlerKj3e8_Ky1388_E12max_requestsB8_
FN:118,_RNvMs_NtNtCs5HKDRulWIag_12nestgate_api8handlers22zero_cost_api_handlersINtB4_19ZeroCostPoolHandlerKj3e8_Ky2710_E12max_requestsB8_
FN:109,_RNvMs_NtNtCs5HKDRulWIag_12nestgate_api8handlers22zero_cost_api_handlersINtB4_19ZeroCostPoolHandlerKj3e8_Ky2710_E3newB8_
FN:124,_RNvMs_NtNtCs5HKDRulWIag_12nestgate_api8handlers22zero_cost_api_handlersINtB4_19ZeroCostPoolHandlerKj64_Ky1388_E10timeout_msB8_
FN:118,_RNvMs_NtNtCs5HKDRulWIag_12nestgate_api8handlers22zero_cost_api_handlersINtB4_19ZeroCostPoolHandlerKj64_Ky1388_E12max_requestsB8_
FN:109,_RNvMs_NtNtCs5HKDRulWIag_12nestgate_api8handlers22zero_cost_api_handlersINtB4_19ZeroCostPoolHandlerKj64_Ky1388_E3newB8_
FN:124,_RNvMs_NtNtCs5HKDRulWIag_12nestgate_api8handlers22zero_cost_api_handlersINtB4_19ZeroCostPoolHandlerKj64_Ky2710_E10timeout_msB8_
FN:124,_RNvMs_NtNtCs5HKDRulWIag_12nestgate_api8handlers22zero_cost_api_handlersINtB4_19ZeroCostPoolHandlerKj64_Ky7530_E10timeout_msB8_
FN:118,_RNvMs_NtNtCs5HKDRulWIag_12nestgate_api8handlers22zero_cost_api_handlersINtB4_19ZeroCostPoolHandlerKja_Ky3e8_E12max_requestsB8_
FN:109,_RNvMs_NtNtCs5HKDRulWIag_12nestgate_api8handlers22zero_cost_api_handlersINtB4_19ZeroCostPoolHandlerKja_Ky3e8_E3newB8_
FN:124,_RNvMs_NtNtCs5HKDRulWIag_12nestgate_api8handlers22zero_cost_api_handlersINtB4_19ZeroCostPoolHandlerKjf4240_Ky36ee80_E10timeout_msB8_
FN:118,_RNvMs_NtNtCs5HKDRulWIag_12nestgate_api8handlers22zero_cost_api_handlersINtB4_19ZeroCostPoolHandlerKjf4240_Ky36ee80_E12max_requestsB8_
FN:109,_RNvMs_NtNtCs5HKDRulWIag_12nestgate_api8handlers22zero_cost_api_handlersINtB4_19ZeroCostPoolHandlerKjf4240_Ky36ee80_E3newB8_
FN:99,_RNvXNtNtCs5HKDRulWIag_12nestgate_api8handlers22zero_cost_api_handlersINtB2_19ZeroCostPoolHandlerKj64_Ky1388_ENtNtCs5GmCzIpY9Qj_4core7default7Default7defaultB6_
FN:258,_RINvMs_NtNtCs5HKDRulWIag_12nestgate_api8handlers22zero_cost_api_handlersINtB5_19ZeroCostPoolHandlerKpKpE15process_requestpEB9_
FN:264,_RNCINvMs_NtNtCs5HKDRulWIag_12nestgate_api8handlers22zero_cost_api_handlersINtB7_19ZeroCostPoolHandlerKpKpE15process_requestpE0Bb_
FN:271,_RNCNCINvMs_NtNtCs5HKDRulWIag_12nestgate_api8handlers22zero_cost_api_handlersINtB9_19ZeroCostPoolHandlerKpKpE15process_requestpE00Bd_
FN:533,_RNCNCNvMs2_NtNtCs5HKDRulWIag_12nestgate_api8handlers22zero_cost_api_handlersINtB9_21ZeroCostRouterBuilderKpKpE20build_zfs_api_router00Bd_
FN:547,_RNCNCNvMs2_NtNtCs5HKDRulWIag_12nestgate_api8handlers22zero_cost_api_handlersINtB9_21ZeroCostRouterBuilderKpKpE20build_zfs_api_routers0_00Bd_
FN:556,_RNCNCNvMs2_NtNtCs5HKDRulWIag_12nestgate_api8handlers22zero_cost_api_handlersINtB9_21ZeroCostRouterBuilderKpKpE20build_zfs_api_routers1_00Bd_
FN:560,_RNCNCNvMs2_NtNtCs5HKDRulWIag_12nestgate_api8handlers22zero_cost_api_handlersINtB9_21ZeroCostRouterBuilderKpKpE20build_zfs_api_routers2_00Bd_
FN:561,_RNCNCNvMs2_NtNtCs5HKDRulWIag_12nestgate_api8handlers22zero_cost_api_handlersINtB9_21ZeroCostRouterBuilderKpKpE20build_zfs_api_routers3_00Bd_
FN:540,_RNCNCNvMs2_NtNtCs5HKDRulWIag_12nestgate_api8handlers22zero_cost_api_handlersINtB9_21ZeroCostRouterBuilderKpKpE20build_zfs_api_routers_00Bd_
FN:533,_RNCNvMs2_NtNtCs5HKDRulWIag_12nestgate_api8handlers22zero_cost_api_handlersINtB7_21ZeroCostRouterBuilderKpKpE20build_zfs_api_router0Bb_
FN:549,_RNCNvMs2_NtNtCs5HKDRulWIag_12nestgate_api8handlers22zero_cost_api_handlersINtB7_21ZeroCostRouterBuilderKpKpE20build_zfs_api_routers0_0Bb_
FN:556,_RNCNvMs2_NtNtCs5HKDRulWIag_12nestgate_api8handlers22zero_cost_api_handlersINtB7_21ZeroCostRouterBuilderKpKpE20build_zfs_api_routers1_0Bb_
FN:560,_RNCNvMs2_NtNtCs5HKDRulWIag_12nestgate_api8handlers22zero_cost_api_handlersINtB7_21ZeroCostRouterBuilderKpKpE20build_zfs_api_routers2_0Bb_
FN:561,_RNCNvMs2_NtNtCs5HKDRulWIag_12nestgate_api8handlers22zero_cost_api_handlersINtB7_21ZeroCostRouterBuilderKpKpE20build_zfs_api_routers3_0Bb_
FN:540,_RNCNvMs2_NtNtCs5HKDRulWIag_12nestgate_api8handlers22zero_cost_api_handlersINtB7_21ZeroCostRouterBuilderKpKpE20build_zfs_api_routers_0Bb_
FN:602,_RNCNvMs4_NtNtCs5HKDRulWIag_12nestgate_api8handlers22zero_cost_api_handlersNtB7_19ApiHandlerBenchmark24benchmark_api_operations0Bb_
FN:218,_RNCNvMs_NtNtCs5HKDRulWIag_12nestgate_api8handlers22zero_cost_api_handlersINtB6_19ZeroCostPoolHandlerKpKpE18handle_create_pool0Ba_
FN:465,_RNCNvXININtNtCs5HKDRulWIag_12nestgate_api8handlers22zero_cost_api_handlerss0_0KpKpEINtB7_19ZeroCostPoolHandlerKpKpEINtB7_18ZeroCostApiHandlerNtNtCs3T2AbaJLHd5_10serde_json5value5ValueE14handle_request0Bb_
FN:512,_RNvMs2_NtNtCs5HKDRulWIag_12nestgate_api8handlers22zero_cost_api_handlersINtB5_21ZeroCostRouterBuilderKpKpE10max_routesB9_
FN:500,_RNvMs2_NtNtCs5HKDRulWIag_12nestgate_api8handlers22zero_cost_api_handlersINtB5_21ZeroCostRouterBuilderKpKpE13can_add_routeB9_
FN:518,_RNvMs2_NtNtCs5HKDRulWIag_12nestgate_api8handlers22zero_cost_api_handlersINtB5_21ZeroCostRouterBuilderKpKpE14max_middlewareB9_
FN:506,_RNvMs2_NtNtCs5HKDRulWIag_12nestgate_api8handlers22zero_cost_api_handlersINtB5_21ZeroCostRouterBuilderKpKpE18can_add_middlewareB9_
FN:523,_RNvMs2_NtNtCs5HKDRulWIag_12nestgate_api8handlers22zero_cost_api_handlersINtB5_21ZeroCostRouterBuilderKpKpE20build_zfs_api_routerB9_
FN:490,_RNvMs2_NtNtCs5HKDRulWIag_12nestgate_api8handlers22zero_cost_api_handlersINtB5_21ZeroCostRouterBuilderKpKpE3newB9_
FN:572,_RNvMs3_NtNtCs5HKDRulWIag_12nestgate_api8handlers22zero_cost_api_handlersNtB5_24ApiHandlerMigrationGuide15migration_steps
FN:587,_RNvMs3_NtNtCs5HKDRulWIag_12nestgate_api8handlers22zero_cost_api_handlersNtB5_24ApiHandlerMigrationGuide21expected_improvements
FN:615,_RNvMs4_NtNtCs5HKDRulWIag_12nestgate_api8handlers22zero_cost_api_handlersNtB5_19ApiHandlerBenchmark22performance_comparison
FN:602,_RNvMs4_NtNtCs5HKDRulWIag_12nestgate_api8handlers22zero_cost_api_handlersNtB5_19ApiHandlerBenchmark24benchmark_api_operations
FN:167,_RNvMs_NtNtCs5HKDRulWIag_12nestgate_api8handlers22zero_cost_api_handlersINtB4_19ZeroCostPoolHandlerKpKpE15handle_get_poolB8_
FN:136,_RNvMs_NtNtCs5HKDRulWIag_12nestgate_api8handlers22zero_cost_api_handlersINtB4_19ZeroCostPoolHandlerKpKpE17handle_list_poolsB8_
FN:204,_RNvMs_NtNtCs5HKDRulWIag_12nestgate_api8handlers22zero_cost_api_handlersINtB4_19ZeroCostPoolHandlerKpKpE18handle_create_poolB8_
FN:233,_RNvMs_NtNtCs5HKDRulWIag_12nestgate_api8handlers22zero_cost_api_handlersINtB4_19ZeroCostPoolHandlerKpKpE18handle_delete_poolB8_
FN:462,_RNvXININtNtCs5HKDRulWIag_12nestgate_api8handlers22zero_cost_api_handlerss0_0KpKpEINtB5_19ZeroCostPoolHandlerKpKpEINtB5_18ZeroCostApiHandlerNtNtCs3T2AbaJLHd5_10serde_json5value5ValueE14handle_requestB9_
FN:480,_RNvXININtNtCs5HKDRulWIag_12nestgate_api8handlers22zero_cost_api_handlerss1_0KpKpEINtB5_21ZeroCostRouterBuilderKpKpENtNtCs5GmCzIpY9Qj_4core7default7Default7defaultB9_
FNDA:1,_RNvMs_NtNtCs5HKDRulWIag_12nestgate_api8handlers22zero_cost_api_handlersINtB4_19ZeroCostPoolHandlerKj1_Ky1_E10timeout_msB8_
FNDA:1,_RNvMs_NtNtCs5HKDRulWIag_12nestgate_api8handlers22zero_cost_api_handlersINtB4_19ZeroCostPoolHandlerKj1_Ky1_E12max_requestsB8_
FNDA:1,_RNvMs_NtNtCs5HKDRulWIag_12nestgate_api8handlers22zero_cost_api_handlersINtB4_19ZeroCostPoolHandlerKj1_Ky1_E3newB8_
FNDA:1,_RNvMs_NtNtCs5HKDRulWIag_12nestgate_api8handlers22zero_cost_api_handlersINtB4_19ZeroCostPoolHandlerKj2710_Ky1388_E12max_requestsB8_
FNDA:1,_RNvMs_NtNtCs5HKDRulWIag_12nestgate_api8handlers22zero_cost_api_handlersINtB4_19ZeroCostPoolHandlerKj3e8_Ky1388_E12max_requestsB8_
FNDA:1,_RNvMs_NtNtCs5HKDRulWIag_12nestgate_api8handlers22zero_cost_api_handlersINtB4_19ZeroCostPoolHandlerKj3e8_Ky2710_E12max_requestsB8_
FNDA:1,_RNvMs_NtNtCs5HKDRulWIag_12nestgate_api8handlers22zero_cost_api_handlersINtB4_19ZeroCostPoolHandlerKj3e8_Ky2710_E3newB8_
FNDA:1,_RNvMs_NtNtCs5HKDRulWIag_12nestgate_api8handlers22zero_cost_api_handlersINtB4_19ZeroCostPoolHandlerKj64_Ky1388_E10timeout_msB8_
FNDA:2,_RNvMs_NtNtCs5HKDRulWIag_12nestgate_api8handlers22zero_cost_api_handlersINtB4_19ZeroCostPoolHandlerKj64_Ky1388_E12max_requestsB8_
FNDA:4,_RNvMs_NtNtCs5HKDRulWIag_12nestgate_api8handlers22zero_cost_api_handlersINtB4_19ZeroCostPoolHandlerKj64_Ky1388_E3newB8_
FNDA:1,_RNvMs_NtNtCs5HKDRulWIag_12nestgate_api8handlers22zero_cost_api_handlersINtB4_19ZeroCostPoolHandlerKj64_Ky2710_E10timeout_msB8_
FNDA:1,_RNvMs_NtNtCs5HKDRulWIag_12nestgate_api8handlers22zero_cost_api_handlersINtB4_19ZeroCostPoolHandlerKj64_Ky7530_E10timeout_msB8_
FNDA:1,_RNvMs_NtNtCs5HKDRulWIag_12nestgate_api8handlers22zero_cost_api_handlersINtB4_19ZeroCostPoolHandlerKja_Ky3e8_E12max_requestsB8_
FNDA:1,_RNvMs_NtNtCs5HKDRulWIag_12nestgate_api8handlers22zero_cost_api_handlersINtB4_19ZeroCostPoolHandlerKja_Ky3e8_E3newB8_
FNDA:1,_RNvMs_NtNtCs5HKDRulWIag_12nestgate_api8handlers22zero_cost_api_handlersINtB4_19ZeroCostPoolHandlerKjf4240_Ky36ee80_E10timeout_msB8_
FNDA:1,_RNvMs_NtNtCs5HKDRulWIag_12nestgate_api8handlers22zero_cost_api_handlersINtB4_19ZeroCostPoolHandlerKjf4240_Ky36ee80_E12max_requestsB8_
FNDA:1,_RNvMs_NtNtCs5HKDRulWIag_12nestgate_api8handlers22zero_cost_api_handlersINtB4_19ZeroCostPoolHandlerKjf4240_Ky36ee80_E3newB8_
FNDA:1,_RNvXNtNtCs5HKDRulWIag_12nestgate_api8handlers22zero_cost_api_handlersINtB2_19ZeroCostPoolHandlerKj64_Ky1388_ENtNtCs5GmCzIpY9Qj_4core7default7Default7defaultB6_
FNDA:0,_RINvMs_NtNtCs5HKDRulWIag_12nestgate_api8handlers22zero_cost_api_handlersINtB5_19ZeroCostPoolHandlerKpKpE15process_requestpEB9_
FNDA:0,_RNCINvMs_NtNtCs5HKDRulWIag_12nestgate_api8handlers22zero_cost_api_handlersINtB7_19ZeroCostPoolHandlerKpKpE15process_requestpE0Bb_
FNDA:0,_RNCNCINvMs_NtNtCs5HKDRulWIag_12nestgate_api8handlers22zero_cost_api_handlersINtB9_19ZeroCostPoolHandlerKpKpE15process_requestpE00Bd_
FNDA:0,_RNCNCNvMs2_NtNtCs5HKDRulWIag_12nestgate_api8handlers22zero_cost_api_handlersINtB9_21ZeroCostRouterBuilderKpKpE20build_zfs_api_router00Bd_
FNDA:0,_RNCNCNvMs2_NtNtCs5HKDRulWIag_12nestgate_api8handlers22zero_cost_api_handlersINtB9_21ZeroCostRouterBuilderKpKpE20build_zfs_api_routers0_00Bd_
FNDA:0,_RNCNCNvMs2_NtNtCs5HKDRulWIag_12nestgate_api8handlers22zero_cost_api_handlersINtB9_21ZeroCostRouterBuilderKpKpE20build_zfs_api_routers1_00Bd_
FNDA:0,_RNCNCNvMs2_NtNtCs5HKDRulWIag_12nestgate_api8handlers22zero_cost_api_handlersINtB9_21ZeroCostRouterBuilderKpKpE20build_zfs_api_routers2_00Bd_
FNDA:0,_RNCNCNvMs2_NtNtCs5HKDRulWIag_12nestgate_api8handlers22zero_cost_api_handlersINtB9_21ZeroCostRouterBuilderKpKpE20build_zfs_api_routers3_00Bd_
FNDA:0,_RNCNCNvMs2_NtNtCs5HKDRulWIag_12nestgate_api8handlers22zero_cost_api_handlersINtB9_21ZeroCostRouterBuilderKpKpE20build_zfs_api_routers_00Bd_
FNDA:0,_RNCNvMs2_NtNtCs5HKDRulWIag_12nestgate_api8handlers22zero_cost_api_handlersINtB7_21ZeroCostRouterBuilderKpKpE20build_zfs_api_router0Bb_
FNDA:0,_RNCNvMs2_NtNtCs5HKDRulWIag_12nestgate_api8handlers22zero_cost_api_handlersINtB7_21ZeroCostRouterBuilderKpKpE20build_zfs_api_routers0_0Bb_
FNDA:0,_RNCNvMs2_NtNtCs5HKDRulWIag_12nestgate_api8handlers22zero_cost_api_handlersINtB7_21ZeroCostRouterBuilderKpKpE20build_zfs_api_routers1_0Bb_
FNDA:0,_RNCNvMs2_NtNtCs5HKDRulWIag_12nestgate_api8handlers22zero_cost_api_handlersINtB7_21ZeroCostRouterBuilderKpKpE20build_zfs_api_routers2_0Bb_
FNDA:0,_RNCNvMs2_NtNtCs5HKDRulWIag_12nestgate_api8handlers22zero_cost_api_handlersINtB7_21ZeroCostRouterBuilderKpKpE20build_zfs_api_routers3_0Bb_
FNDA:0,_RNCNvMs2_NtNtCs5HKDRulWIag_12nestgate_api8handlers22zero_cost_api_handlersINtB7_21ZeroCostRouterBuilderKpKpE20build_zfs_api_routers_0Bb_
FNDA:0,_RNCNvMs4_NtNtCs5HKDRulWIag_12nestgate_api8handlers22zero_cost_api_handlersNtB7_19ApiHandlerBenchmark24benchmark_api_operations0Bb_
FNDA:0,_RNCNvMs_NtNtCs5HKDRulWIag_12nestgate_api8handlers22zero_cost_api_handlersINtB6_19ZeroCostPoolHandlerKpKpE18handle_create_pool0Ba_
FNDA:0,_RNCNvXININtNtCs5HKDRulWIag_12nestgate_api8handlers22zero_cost_api_handlerss0_0KpKpEINtB7_19ZeroCostPoolHandlerKpKpEINtB7_18ZeroCostApiHandlerNtNtCs3T2AbaJLHd5_10serde_json5value5ValueE14handle_request0Bb_
FNDA:0,_RNvMs2_NtNtCs5HKDRulWIag_12nestgate_api8handlers22zero_cost_api_handlersINtB5_21ZeroCostRouterBuilderKpKpE10max_routesB9_
FNDA:0,_RNvMs2_NtNtCs5HKDRulWIag_12nestgate_api8handlers22zero_cost_api_handlersINtB5_21ZeroCostRouterBuilderKpKpE13can_add_routeB9_
FNDA:0,_RNvMs2_NtNtCs5HKDRulWIag_12nestgate_api8handlers22zero_cost_api_handlersINtB5_21ZeroCostRouterBuilderKpKpE14max_middlewareB9_
FNDA:0,_RNvMs2_NtNtCs5HKDRulWIag_12nestgate_api8handlers22zero_cost_api_handlersINtB5_21ZeroCostRouterBuilderKpKpE18can_add_middlewareB9_
FNDA:0,_RNvMs2_NtNtCs5HKDRulWIag_12nestgate_api8handlers22zero_cost_api_handlersINtB5_21ZeroCostRouterBuilderKpKpE20build_zfs_api_routerB9_
FNDA:0,_RNvMs2_NtNtCs5HKDRulWIag_12nestgate_api8handlers22zero_cost_api_handlersINtB5_21ZeroCostRouterBuilderKpKpE3newB9_
FNDA:0,_RNvMs3_NtNtCs5HKDRulWIag_12nestgate_api8handlers22zero_cost_api_handlersNtB5_24ApiHandlerMigrationGuide15migration_steps
FNDA:0,_RNvMs3_NtNtCs5HKDRulWIag_12nestgate_api8handlers22zero_cost_api_handlersNtB5_24ApiHandlerMigrationGuide21expected_improvements
FNDA:0,_RNvMs4_NtNtCs5HKDRulWIag_12nestgate_api8handlers22zero_cost_api_handlersNtB5_19ApiHandlerBenchmark22performance_comparison
FNDA:0,_RNvMs4_NtNtCs5HKDRulWIag_12nestgate_api8handlers22zero_cost_api_handlersNtB5_19ApiHandlerBenchmark24benchmark_api_operations
FNDA:0,_RNvMs_NtNtCs5HKDRulWIag_12nestgate_api8handlers22zero_cost_api_handlersINtB4_19ZeroCostPoolHandlerKpKpE15handle_get_poolB8_
FNDA:0,_RNvMs_NtNtCs5HKDRulWIag_12nestgate_api8handlers22zero_cost_api_handlersINtB4_19ZeroCostPoolHandlerKpKpE17handle_list_poolsB8_
FNDA:0,_RNvMs_NtNtCs5HKDRulWIag_12nestgate_api8handlers22zero_cost_api_handlersINtB4_19ZeroCostPoolHandlerKpKpE18handle_create_poolB8_
FNDA:0,_RNvMs_NtNtCs5HKDRulWIag_12nestgate_api8handlers22zero_cost_api_handlersINtB4_19ZeroCostPoolHandlerKpKpE18handle_delete_poolB8_
FNDA:0,_RNvXININtNtCs5HKDRulWIag_12nestgate_api8handlers22zero_cost_api_handlerss0_0KpKpEINtB5_19ZeroCostPoolHandlerKpKpEINtB5_18ZeroCostApiHandlerNtNtCs3T2AbaJLHd5_10serde_json5value5ValueE14handle_requestB9_
FNDA:0,_RNvXININtNtCs5HKDRulWIag_12nestgate_api8handlers22zero_cost_api_handlerss1_0KpKpEINtB5_21ZeroCostRouterBuilderKpKpENtNtCs5GmCzIpY9Qj_4core7default7Default7defaultB9_
FNF:38
FNH:4
DA:99,1
DA:100,1
DA:101,1
DA:109,8
DA:110,8
DA:111,8
DA:112,8
DA:113,8
DA:114,8
DA:118,8
DA:119,8
DA:120,8
DA:124,5
DA:125,5
DA:126,5
DA:136,0
DA:138,0
DA:139,0
DA:140,0
DA:141,0
DA:142,0
DA:143,0
DA:144,0
DA:145,0
DA:147,0
DA:148,0
DA:149,0
DA:150,0
DA:151,0
DA:152,0
DA:153,0
DA:156,0
DA:157,0
DA:167,0
DA:169,0
DA:170,0
DA:171,0
DA:172,0
DA:173,0
DA:174,0
DA:175,0
DA:176,0
DA:177,0
DA:178,0
DA:179,0
DA:180,0
DA:181,0
DA:182,0
DA:183,0
DA:184,0
DA:185,0
DA:186,0
DA:187,0
DA:188,0
DA:189,0
DA:190,0
DA:191,0
DA:192,0
DA:194,0
DA:204,0
DA:205,0
DA:206,0
DA:207,0
DA:210,0
DA:213,0
DA:214,0
DA:215,0
DA:216,0
DA:217,0
DA:218,0
DA:219,0
DA:220,0
DA:223,0
DA:233,0
DA:235,0
DA:236,0
DA:237,0
DA:240,0
DA:241,0
DA:242,0
DA:243,0
DA:244,0
DA:245,0
DA:246,0
DA:248,0
DA:258,0
DA:259,0
DA:260,0
DA:261,0
DA:262,0
DA:263,0
DA:264,0
DA:265,0
DA:268,0
DA:271,0
DA:274,0
DA:275,0
DA:277,0
DA:278,0
DA:279,0
DA:280,0
DA:281,0
DA:283,0
DA:284,0
DA:285,0
DA:286,0
DA:287,0
DA:288,0
DA:289,0
DA:293,0
DA:294,0
DA:295,0
DA:297,0
DA:299,0
DA:300,0
DA:301,0
DA:302,0
DA:303,0
DA:304,0
DA:305,0
DA:306,0
DA:307,0
DA:308,0
DA:310,0
DA:462,0
DA:463,0
DA:464,0
DA:465,0
DA:466,0
DA:467,0
DA:480,0
DA:481,0
DA:482,0
DA:490,0
DA:491,0
DA:492,0
DA:493,0
DA:494,0
DA:495,0
DA:496,0
DA:500,0
DA:501,0
DA:502,0
DA:506,0
DA:507,0
DA:508,0
DA:512,0
DA:513,0
DA:514,0
DA:518,0
DA:519,0
DA:520,0
DA:523,0
DA:524,0
DA:525,0
DA:526,0
DA:527,0
DA:529,0
DA:530,0
DA:531,0
DA:532,0
DA:533,0
DA:536,0
DA:537,0
DA:538,0
DA:539,0
DA:540,0
DA:543,0
DA:544,0
DA:545,0
DA:546,0
DA:547,0
DA:548,0
DA:549,0
DA:552,0
DA:553,0
DA:554,0
DA:555,0
DA:556,0
DA:560,0
DA:561,0
DA:562,0
DA:572,0
DA:573,0
DA:574,0
DA:575,0
DA:576,0
DA:577,0
DA:578,0
DA:579,0
DA:580,0
DA:581,0
DA:583,0
DA:587,0
DA:588,0
DA:589,0
DA:590,0
DA:591,0
DA:592,0
DA:593,0
DA:602,0
DA:603,0
DA:606,0
DA:607,0
DA:610,0
DA:611,0
DA:615,0
DA:617,0
DA:618,0
DA:619,0
DA:620,0
DA:621,0
DA:623,0
DA:624,0
BRF:0
BRH:0
LF:226
LH:15
end_of_record
SF:/home/eastgate/Development/ecoPrimals/nestgate/code/crates/nestgate-api/src/handlers/zero_cost_tests.rs
FN:277,_RNvNtNtNtCs5HKDRulWIag_12nestgate_api8handlers15zero_cost_tests5testss_21test_api_status_clone
FN:254,_RNvNtNtNtCs5HKDRulWIag_12nestgate_api8handlers15zero_cost_tests5testss_21test_api_status_error
FN:126,_RNvNtNtNtCs5HKDRulWIag_12nestgate_api8handlers15zero_cost_tests5testss_22test_api_request_clone
FN:217,_RNvNtNtNtCs5HKDRulWIag_12nestgate_api8handlers15zero_cost_tests5testss_23test_api_response_clone
FN:234,_RNvNtNtNtCs5HKDRulWIag_12nestgate_api8handlers15zero_cost_tests5testss_23test_api_status_success
FN:240,_RNvNtNtNtCs5HKDRulWIag_12nestgate_api8handlers15zero_cost_tests5testss_23test_api_status_warning
FN:64,_RNvNtNtNtCs5HKDRulWIag_12nestgate_api8handlers15zero_cost_tests5testss_25test_api_request_creation
FN:141,_RNvNtNtNtCs5HKDRulWIag_12nestgate_api8handlers15zero_cost_tests5testss_25test_api_response_success
FN:25,_RNvNtNtNtCs5HKDRulWIag_12nestgate_api8handlers15zero_cost_tests5testss_25test_pool_handler_default
FN:16,_RNvNtNtNtCs5HKDRulWIag_12nestgate_api8handlers15zero_cost_tests5testss_26test_pool_handler_creation
FN:177,_RNvNtNtNtCs5HKDRulWIag_12nestgate_api8handlers15zero_cost_tests5testss_28test_api_response_with_error
FN:270,_RNvNtNtNtCs5HKDRulWIag_12nestgate_api8handlers15zero_cost_tests5testss_29test_api_status_serialization
FN:94,_RNvNtNtNtCs5HKDRulWIag_12nestgate_api8handlers15zero_cost_tests5testss_30test_api_request_serialization
FN:77,_RNvNtNtNtCs5HKDRulWIag_12nestgate_api8handlers15zero_cost_tests5testss_30test_api_request_with_metadata
FN:156,_RNvNtNtNtCs5HKDRulWIag_12nestgate_api8handlers15zero_cost_tests5testss_30test_api_response_with_warning
FN:294,_RNvNtNtNtCs5HKDRulWIag_12nestgate_api8handlers15zero_cost_tests5testss_31test_api_request_empty_metadata
FN:199,_RNvNtNtNtCs5HKDRulWIag_12nestgate_api8handlers15zero_cost_tests5testss_31test_api_response_serialization
FN:362,_RNvNtNtNtCs5HKDRulWIag_12nestgate_api8handlers15zero_cost_tests5testss_31test_api_status_warning_unicode
FN:44,_RNvNtNtNtCs5HKDRulWIag_12nestgate_api8handlers15zero_cost_tests5testss_31test_pool_handler_const_timeout
FN:110,_RNvNtNtNtCs5HKDRulWIag_12nestgate_api8handlers15zero_cost_tests5testss_32test_api_request_deserialization
FN:333,_RNvNtNtNtCs5HKDRulWIag_12nestgate_api8handlers15zero_cost_tests5testss_32test_pool_handler_extreme_config
FN:346,_RNvNtNtNtCs5HKDRulWIag_12nestgate_api8handlers15zero_cost_tests5testss_35test_api_status_error_empty_strings
FN:51,_RNvNtNtNtCs5HKDRulWIag_12nestgate_api8handlers15zero_cost_tests5testss_35test_pool_handler_different_configs
FN:37,_RNvNtNtNtCs5HKDRulWIag_12nestgate_api8handlers15zero_cost_tests5testss_36test_pool_handler_const_max_requests
FN:307,_RNvNtNtNtCs5HKDRulWIag_12nestgate_api8handlers15zero_cost_tests5testss_38test_api_response_zero_processing_time
FN:320,_RNvNtNtNtCs5HKDRulWIag_12nestgate_api8handlers15zero_cost_tests5testss_39test_api_response_large_processing_time
FNDA:1,_RNvNtNtNtCs5HKDRulWIag_12nestgate_api8handlers15zero_cost_tests5testss_21test_api_status_clone
FNDA:1,_RNvNtNtNtCs5HKDRulWIag_12nestgate_api8handlers15zero_cost_tests5testss_21test_api_status_error
FNDA:1,_RNvNtNtNtCs5HKDRulWIag_12nestgate_api8handlers15zero_cost_tests5testss_22test_api_request_clone
FNDA:1,_RNvNtNtNtCs5HKDRulWIag_12nestgate_api8handlers15zero_cost_tests5testss_23test_api_response_clone
FNDA:1,_RNvNtNtNtCs5HKDRulWIag_12nestgate_api8handlers15zero_cost_tests5testss_23test_api_status_success
FNDA:1,_RNvNtNtNtCs5HKDRulWIag_12nestgate_api8handlers15zero_cost_tests5testss_23test_api_status_warning
FNDA:1,_RNvNtNtNtCs5HKDRulWIag_12nestgate_api8handlers15zero_cost_tests5testss_25test_api_request_creation
FNDA:1,_RNvNtNtNtCs5HKDRulWIag_12nestgate_api8handlers15zero_cost_tests5testss_25test_api_response_success
FNDA:1,_RNvNtNtNtCs5HKDRulWIag_12nestgate_api8handlers15zero_cost_tests5testss_25test_pool_handler_default
FNDA:1,_RNvNtNtNtCs5HKDRulWIag_12nestgate_api8handlers15zero_cost_tests5testss_26test_pool_handler_creation
FNDA:1,_RNvNtNtNtCs5HKDRulWIag_12nestgate_api8handlers15zero_cost_tests5testss_28test_api_response_with_error
FNDA:1,_RNvNtNtNtCs5HKDRulWIag_12nestgate_api8handlers15zero_cost_tests5testss_29test_api_status_serialization
FNDA:1,_RNvNtNtNtCs5HKDRulWIag_12nestgate_api8handlers15zero_cost_tests5testss_30test_api_request_serialization
FNDA:1,_RNvNtNtNtCs5HKDRulWIag_12nestgate_api8handlers15zero_cost_tests5testss_30test_api_request_with_metadata
FNDA:1,_RNvNtNtNtCs5HKDRulWIag_12nestgate_api8handlers15zero_cost_tests5testss_30test_api_response_with_warning
FNDA:1,_RNvNtNtNtCs5HKDRulWIag_12nestgate_api8handlers15zero_cost_tests5testss_31test_api_request_empty_metadata
FNDA:1,_RNvNtNtNtCs5HKDRulWIag_12nestgate_api8handlers15zero_cost_tests5testss_31test_api_response_serialization
FNDA:1,_RNvNtNtNtCs5HKDRulWIag_12nestgate_api8handlers15zero_cost_tests5testss_31test_api_status_warning_unicode
FNDA:1,_RNvNtNtNtCs5HKDRulWIag_12nestgate_api8handlers15zero_cost_tests5testss_31test_pool_handler_const_timeout
FNDA:1,_RNvNtNtNtCs5HKDRulWIag_12nestgate_api8handlers15zero_cost_tests5testss_32test_api_request_deserialization
FNDA:1,_RNvNtNtNtCs5HKDRulWIag_12nestgate_api8handlers15zero_cost_tests5testss_32test_pool_handler_extreme_config
FNDA:1,_RNvNtNtNtCs5HKDRulWIag_12nestgate_api8handlers15zero_cost_tests5testss_35test_api_status_error_empty_strings
FNDA:1,_RNvNtNtNtCs5HKDRulWIag_12nestgate_api8handlers15zero_cost_tests5testss_35test_pool_handler_different_configs
FNDA:1,_RNvNtNtNtCs5HKDRulWIag_12nestgate_api8handlers15zero_cost_tests5testss_36test_pool_handler_const_max_requests
FNDA:1,_RNvNtNtNtCs5HKDRulWIag_12nestgate_api8handlers15zero_cost_tests5testss_38test_api_response_zero_processing_time
FNDA:1,_RNvNtNtNtCs5HKDRulWIag_12nestgate_api8handlers15zero_cost_tests5testss_39test_api_response_large_processing_time
FNF:26
FNH:26
DA:16,1
DA:17,1
DA:18,1
DA:19,1
DA:20,0
DA:22,1
DA:25,1
DA:26,1
DA:27,1
DA:30,1
DA:31,1
DA:32,1
DA:34,1
DA:37,1
DA:38,1
DA:39,1
DA:40,1
DA:41,1
DA:44,1
DA:45,1
DA:46,1
DA:47,1
DA:48,1
DA:51,1
DA:52,1
DA:53,1
DA:54,1
DA:56,1
DA:57,1
DA:58,1
DA:59,1
DA:64,1
DA:65,1
DA:66,1
DA:67,1
DA:68,1
DA:69,1
DA:70,1
DA:72,1
DA:73,1
DA:74,1
DA:77,1
DA:78,1
DA:79,1
DA:80,1
DA:82,1
DA:83,1
DA:84,1
DA:85,1
DA:86,1
DA:87,1
DA:89,1
DA:90,1
DA:91,1
DA:94,1
DA:95,1
DA:96,1
DA:97,1
DA:98,1
DA:99,1
DA:100,1
DA:102,1
DA:103,1
DA:105,1
DA:106,1
DA:107,1
DA:110,1
DA:111,1
DA:112,1
DA:113,1
DA:114,1
DA:115,1
DA:116,1
DA:118,1
DA:119,1
DA:121,1
DA:122,1
DA:123,1
DA:126,1
DA:127,1
DA:128,1
DA:129,1
DA:130,1
DA:131,1
DA:132,1
DA:134,1
DA:135,1
DA:136,1
DA:141,1
DA:142,1
DA:143,1
DA:144,1
DA:145,1
DA:146,1
DA:147,1
DA:148,1
DA:150,1
DA:151,1
DA:152,1
DA:153,1
DA:156,1
DA:157,1
DA:158,1
DA:159,1
DA:160,1
DA:161,1
DA:162,1
DA:163,1
DA:164,1
DA:165,1
DA:167,1
DA:168,1
DA:169,1
DA:170,1
DA:172,0
DA:174,1
DA:177,1
DA:178,1
DA:179,1
DA:180,1
DA:181,1
DA:182,1
DA:183,1
DA:184,1
DA:185,1
DA:186,1
DA:187,1
DA:189,1
DA:190,1
DA:191,1
DA:192,1
DA:194,0
DA:196,1
DA:199,1
DA:200,1
DA:201,1
DA:202,1
DA:203,1
DA:204,1
DA:205,1
DA:206,1
DA:208,1
DA:209,1
DA:211,1
DA:212,1
DA:213,1
DA:214,1
DA:217,1
DA:218,1
DA:219,1
DA:220,1
DA:221,1
DA:222,1
DA:223,1
DA:224,1
DA:226,1
DA:227,1
DA:228,1
DA:229,1
DA:234,1
DA:235,1
DA:236,1
DA:237,1
DA:240,1
DA:241,1
DA:242,1
DA:243,1
DA:245,1
DA:246,1
DA:247,1
DA:249,0
DA:251,1
DA:254,1
DA:255,1
DA:256,1
DA:257,1
DA:258,1
DA:260,1
DA:261,1
DA:262,1
DA:263,1
DA:265,0
DA:267,1
DA:270,1
DA:271,1
DA:272,1
DA:273,1
DA:274,1
DA:277,1
DA:278,1
DA:279,1
DA:280,1
DA:281,1
DA:283,1
DA:284,1
DA:285,1
DA:287,0
DA:289,1
DA:294,1
DA:295,1
DA:296,1
DA:297,1
DA:298,1
DA:299,1
DA:300,1
DA:302,1
DA:303,1
DA:304,1
DA:307,1
DA:308,1
DA:309,1
DA:310,1
DA:311,1
DA:312,1
DA:313,1
DA:314,1
DA:316,1
DA:317,1
DA:320,1
DA:321,1
DA:322,1
DA:323,1
DA:324,1
DA:325,1
DA:326,1
DA:327,1
DA:329,1
DA:330,1
DA:333,1
DA:335,1
DA:336,1
DA:337,1
DA:340,1
DA:341,1
DA:342,1
DA:343,1
DA:346,1
DA:347,1
DA:348,1
DA:349,1
DA:350,1
DA:352,1
DA:353,1
DA:354,1
DA:355,1
DA:357,0
DA:359,1
DA:362,1
DA:363,1
DA:364,1
DA:365,1
DA:367,1
DA:368,1
DA:369,1
DA:370,1
DA:371,1
DA:373,0
DA:375,1
BRF:0
BRH:0
LF:258
LH:250
end_of_record
SF:/home/eastgate/Development/ecoPrimals/nestgate/code/crates/nestgate-api/src/handlers/zfs/production_placeholders.rs
FN:98,_RNCNvNtNtNtCs5HKDRulWIag_12nestgate_api8handlers3zfs23production_placeholders11create_pool0B9_
FN:108,_RNCNvNtNtNtCs5HKDRulWIag_12nestgate_api8handlers3zfs23production_placeholders11delete_pool0B9_
FN:128,_RNCNvNtNtNtCs5HKDRulWIag_12nestgate_api8handlers3zfs23production_placeholders11get_dataset0B9_
FN:181,_RNCNvNtNtNtCs5HKDRulWIag_12nestgate_api8handlers3zfs23production_placeholders12predict_tier0B9_
FN:118,_RNCNvNtNtNtCs5HKDRulWIag_12nestgate_api8handlers3zfs23production_placeholders13list_datasets0B9_
FN:123,_RNCNvNtNtNtCs5HKDRulWIag_12nestgate_api8handlers3zfs23production_placeholders14create_dataset0B9_
FN:133,_RNCNvNtNtNtCs5HKDRulWIag_12nestgate_api8handlers3zfs23production_placeholders14delete_dataset0B9_
FN:186,_RNCNvNtNtNtCs5HKDRulWIag_12nestgate_api8handlers3zfs23production_placeholders14get_zfs_health0B9_
FN:151,_RNCNvNtNtNtCs5HKDRulWIag_12nestgate_api8handlers3zfs23production_placeholders14list_snapshots0B9_
FN:156,_RNCNvNtNtNtCs5HKDRulWIag_12nestgate_api8handlers3zfs23production_placeholders15create_snapshot0B9_
FN:161,_RNCNvNtNtNtCs5HKDRulWIag_12nestgate_api8handlers3zfs23production_placeholders15delete_snapshot0B9_
FN:171,_RNCNvNtNtNtCs5HKDRulWIag_12nestgate_api8handlers3zfs23production_placeholders15get_pool_status0B9_
FN:103,_RNCNvNtNtNtCs5HKDRulWIag_12nestgate_api8handlers3zfs23production_placeholders18get_universal_pool0B9_
FN:93,_RNCNvNtNtNtCs5HKDRulWIag_12nestgate_api8handlers3zfs23production_placeholders20list_universal_pools0B9_
FN:113,_RNCNvNtNtNtCs5HKDRulWIag_12nestgate_api8handlers3zfs23production_placeholders20trigger_optimization0B9_
FN:138,_RNCNvNtNtNtCs5HKDRulWIag_12nestgate_api8handlers3zfs23production_placeholders22get_dataset_properties0B9_
FN:146,_RNCNvNtNtNtCs5HKDRulWIag_12nestgate_api8handlers3zfs23production_placeholders22set_dataset_properties0B9_
FN:176,_RNCNvNtNtNtCs5HKDRulWIag_12nestgate_api8handlers3zfs23production_placeholders25get_performance_analytics0B9_
FN:166,_RNCNvNtNtNtCs5HKDRulWIag_12nestgate_api8handlers3zfs23production_placeholders28get_universal_storage_health0B9_
FN:39,_RNvMNtNtNtCs5HKDRulWIag_12nestgate_api8handlers3zfs23production_placeholdersNtB2_20ProductionZfsManager3new
FN:69,_RNvMs0_NtNtNtCs5HKDRulWIag_12nestgate_api8handlers3zfs23production_placeholdersNtB5_14ZfsHandlerImpl3new
FN:54,_RNvMs_NtNtNtCs5HKDRulWIag_12nestgate_api8handlers3zfs23production_placeholdersNtB4_21ZeroCostZfsOperations3new
FN:98,_RNvNtNtNtCs5HKDRulWIag_12nestgate_api8handlers3zfs23production_placeholders11create_pool
FN:108,_RNvNtNtNtCs5HKDRulWIag_12nestgate_api8handlers3zfs23production_placeholders11delete_pool
FN:128,_RNvNtNtNtCs5HKDRulWIag_12nestgate_api8handlers3zfs23production_placeholders11get_dataset
FN:181,_RNvNtNtNtCs5HKDRulWIag_12nestgate_api8handlers3zfs23production_placeholders12predict_tier
FN:118,_RNvNtNtNtCs5HKDRulWIag_12nestgate_api8handlers3zfs23production_placeholders13list_datasets
FN:123,_RNvNtNtNtCs5HKDRulWIag_12nestgate_api8handlers3zfs23production_placeholders14create_dataset
FN:133,_RNvNtNtNtCs5HKDRulWIag_12nestgate_api8handlers3zfs23production_placeholders14delete_dataset
FN:186,_RNvNtNtNtCs5HKDRulWIag_12nestgate_api8handlers3zfs23production_placeholders14get_zfs_health
FN:151,_RNvNtNtNtCs5HKDRulWIag_12nestgate_api8handlers3zfs23production_placeholders14list_snapshots
FN:156,_RNvNtNtNtCs5HKDRulWIag_12nestgate_api8handlers3zfs23production_placeholders15create_snapshot
FN:161,_RNvNtNtNtCs5HKDRulWIag_12nestgate_api8handlers3zfs23production_placeholders15delete_snapshot
FN:171,_RNvNtNtNtCs5HKDRulWIag_12nestgate_api8handlers3zfs23production_placeholders15get_pool_status
FN:103,_RNvNtNtNtCs5HKDRulWIag_12nestgate_api8handlers3zfs23production_placeholders18get_universal_pool
FN:93,_RNvNtNtNtCs5HKDRulWIag_12nestgate_api8handlers3zfs23production_placeholders20list_universal_pools
FN:113,_RNvNtNtNtCs5HKDRulWIag_12nestgate_api8handlers3zfs23production_placeholders20trigger_optimization
FN:138,_RNvNtNtNtCs5HKDRulWIag_12nestgate_api8handlers3zfs23production_placeholders22get_dataset_properties
FN:143,_RNvNtNtNtCs5HKDRulWIag_12nestgate_api8handlers3zfs23production_placeholders22set_dataset_properties
FN:84,_RNvNtNtNtCs5HKDRulWIag_12nestgate_api8handlers3zfs23production_placeholders23zfs_feature_not_enabled
FN:176,_RNvNtNtNtCs5HKDRulWIag_12nestgate_api8handlers3zfs23production_placeholders25get_performance_analytics
FN:166,_RNvNtNtNtCs5HKDRulWIag_12nestgate_api8handlers3zfs23production_placeholders28get_universal_storage_health
FN:75,_RNvXs1_NtNtNtCs5HKDRulWIag_12nestgate_api8handlers3zfs23production_placeholdersNtB5_14ZfsHandlerImplNtNtCs5GmCzIpY9Qj_4core7default7Default7default
FNDA:0,_RNCNvNtNtNtCs5HKDRulWIag_12nestgate_api8handlers3zfs23production_placeholders11create_pool0B9_
FNDA:0,_RNCNvNtNtNtCs5HKDRulWIag_12nestgate_api8handlers3zfs23production_placeholders11delete_pool0B9_
FNDA:0,_RNCNvNtNtNtCs5HKDRulWIag_12nestgate_api8handlers3zfs23production_placeholders11get_dataset0B9_
FNDA:0,_RNCNvNtNtNtCs5HKDRulWIag_12nestgate_api8handlers3zfs23production_placeholders12predict_tier0B9_
FNDA:0,_RNCNvNtNtNtCs5HKDRulWIag_12nestgate_api8handlers3zfs23production_placeholders13list_datasets0B9_
FNDA:0,_RNCNvNtNtNtCs5HKDRulWIag_12nestgate_api8handlers3zfs23production_placeholders14create_dataset0B9_
FNDA:0,_RNCNvNtNtNtCs5HKDRulWIag_12nestgate_api8handlers3zfs23production_placeholders14delete_dataset0B9_
FNDA:0,_RNCNvNtNtNtCs5HKDRulWIag_12nestgate_api8handlers3zfs23production_placeholders14get_zfs_health0B9_
FNDA:0,_RNCNvNtNtNtCs5HKDRulWIag_12nestgate_api8handlers3zfs23production_placeholders14list_snapshots0B9_
FNDA:0,_RNCNvNtNtNtCs5HKDRulWIag_12nestgate_api8handlers3zfs23production_placeholders15create_snapshot0B9_
FNDA:0,_RNCNvNtNtNtCs5HKDRulWIag_12nestgate_api8handlers3zfs23production_placeholders15delete_snapshot0B9_
FNDA:0,_RNCNvNtNtNtCs5HKDRulWIag_12nestgate_api8handlers3zfs23production_placeholders15get_pool_status0B9_
FNDA:0,_RNCNvNtNtNtCs5HKDRulWIag_12nestgate_api8handlers3zfs23production_placeholders18get_universal_pool0B9_
FNDA:0,_RNCNvNtNtNtCs5HKDRulWIag_12nestgate_api8handlers3zfs23production_placeholders20list_universal_pools0B9_
FNDA:0,_RNCNvNtNtNtCs5HKDRulWIag_12nestgate_api8handlers3zfs23production_placeholders20trigger_optimization0B9_
FNDA:0,_RNCNvNtNtNtCs5HKDRulWIag_12nestgate_api8handlers3zfs23production_placeholders22get_dataset_properties0B9_
FNDA:0,_RNCNvNtNtNtCs5HKDRulWIag_12nestgate_api8handlers3zfs23production_placeholders22set_dataset_properties0B9_
FNDA:0,_RNCNvNtNtNtCs5HKDRulWIag_12nestgate_api8handlers3zfs23production_placeholders25get_performance_analytics0B9_
FNDA:0,_RNCNvNtNtNtCs5HKDRulWIag_12nestgate_api8handlers3zfs23production_placeholders28get_universal_storage_health0B9_
FNDA:0,_RNvMNtNtNtCs5HKDRulWIag_12nestgate_api8handlers3zfs23production_placeholdersNtB2_20ProductionZfsManager3new
FNDA:0,_RNvMs0_NtNtNtCs5HKDRulWIag_12nestgate_api8handlers3zfs23production_placeholdersNtB5_14ZfsHandlerImpl3new
FNDA:0,_RNvMs_NtNtNtCs5HKDRulWIag_12nestgate_api8handlers3zfs23production_placeholdersNtB4_21ZeroCostZfsOperations3new
FNDA:0,_RNvNtNtNtCs5HKDRulWIag_12nestgate_api8handlers3zfs23production_placeholders11create_pool
FNDA:0,_RNvNtNtNtCs5HKDRulWIag_12nestgate_api8handlers3zfs23production_placeholders11delete_pool
FNDA:0,_RNvNtNtNtCs5HKDRulWIag_12nestgate_api8handlers3zfs23production_placeholders11get_dataset
FNDA:0,_RNvNtNtNtCs5HKDRulWIag_12nestgate_api8handlers3zfs23production_placeholders12predict_tier
FNDA:0,_RNvNtNtNtCs5HKDRulWIag_12nestgate_api8handlers3zfs23production_placeholders13list_datasets
FNDA:0,_RNvNtNtNtCs5HKDRulWIag_12nestgate_api8handlers3zfs23production_placeholders14create_dataset
FNDA:0,_RNvNtNtNtCs5HKDRulWIag_12nestgate_api8handlers3zfs23production_placeholders14delete_dataset
FNDA:0,_RNvNtNtNtCs5HKDRulWIag_12nestgate_api8handlers3zfs23production_placeholders14get_zfs_health
FNDA:0,_RNvNtNtNtCs5HKDRulWIag_12nestgate_api8handlers3zfs23production_placeholders14list_snapshots
FNDA:0,_RNvNtNtNtCs5HKDRulWIag_12nestgate_api8handlers3zfs23production_placeholders15create_snapshot
FNDA:0,_RNvNtNtNtCs5HKDRulWIag_12nestgate_api8handlers3zfs23production_placeholders15delete_snapshot
FNDA:0,_RNvNtNtNtCs5HKDRulWIag_12nestgate_api8handlers3zfs23production_placeholders15get_pool_status
FNDA:0,_RNvNtNtNtCs5HKDRulWIag_12nestgate_api8handlers3zfs23production_placeholders18get_universal_pool
FNDA:0,_RNvNtNtNtCs5HKDRulWIag_12nestgate_api8handlers3zfs23production_placeholders20list_universal_pools
FNDA:0,_RNvNtNtNtCs5HKDRulWIag_12nestgate_api8handlers3zfs23production_placeholders20trigger_optimization
FNDA:0,_RNvNtNtNtCs5HKDRulWIag_12nestgate_api8handlers3zfs23production_placeholders22get_dataset_properties
FNDA:0,_RNvNtNtNtCs5HKDRulWIag_12nestgate_api8handlers3zfs23production_placeholders22set_dataset_properties
FNDA:0,_RNvNtNtNtCs5HKDRulWIag_12nestgate_api8handlers3zfs23production_placeholders23zfs_feature_not_enabled
FNDA:0,_RNvNtNtNtCs5HKDRulWIag_12nestgate_api8handlers3zfs23production_placeholders25get_performance_analytics
FNDA:0,_RNvNtNtNtCs5HKDRulWIag_12nestgate_api8handlers3zfs23production_placeholders28get_universal_storage_health
FNDA:0,_RNvXs1_NtNtNtCs5HKDRulWIag_12nestgate_api8handlers3zfs23production_placeholdersNtB5_14ZfsHandlerImplNtNtCs5GmCzIpY9Qj_4core7default7Default7default
FNF:43
FNH:0
DA:39,0
DA:40,0
DA:41,0
DA:54,0
DA:55,0
DA:56,0
DA:69,0
DA:70,0
DA:71,0
DA:75,0
DA:76,0
DA:77,0
DA:84,0
DA:85,0
DA:86,0
DA:87,0
DA:88,0
DA:89,0
DA:93,0
DA:94,0
DA:95,0
DA:98,0
DA:99,0
DA:100,0
DA:103,0
DA:104,0
DA:105,0
DA:108,0
DA:109,0
DA:110,0
DA:113,0
DA:114,0
DA:115,0
DA:118,0
DA:119,0
DA:120,0
DA:123,0
DA:124,0
DA:125,0
DA:128,0
DA:129,0
DA:130,0
DA:133,0
DA:134,0
DA:135,0
DA:138,0
DA:139,0
DA:140,0
DA:143,0
DA:144,0
DA:145,0
DA:146,0
DA:147,0
DA:148,0
DA:151,0
DA:152,0
DA:153,0
DA:156,0
DA:157,0
DA:158,0
DA:161,0
DA:162,0
DA:163,0
DA:166,0
DA:167,0
DA:168,0
DA:171,0
DA:172,0
DA:173,0
DA:176,0
DA:177,0
DA:178,0
DA:181,0
DA:182,0
DA:183,0
DA:186,0
DA:187,0
DA:188,0
BRF:0
BRH:0
LF:97
LH:0
end_of_record
SF:/home/eastgate/Development/ecoPrimals/nestgate/code/crates/nestgate-api/src/handlers/zfs/zero_cost_factory.rs
FN:60,_RNvMs_NtNtNtCs5HKDRulWIag_12nestgate_api8handlers3zfs17zero_cost_factoryINtB4_24ZeroCostNativeZfsServiceKpE3newBa_
FN:51,_RNvXININtNtNtCs5HKDRulWIag_12nestgate_api8handlers3zfs17zero_cost_factory0KpEINtB5_24ZeroCostNativeZfsServiceKpENtNtCs5GmCzIpY9Qj_4core7default7Default7defaultBb_
FNDA:0,_RNvMs_NtNtNtCs5HKDRulWIag_12nestgate_api8handlers3zfs17zero_cost_factoryINtB4_24ZeroCostNativeZfsServiceKpE3newBa_
FNDA:0,_RNvXININtNtNtCs5HKDRulWIag_12nestgate_api8handlers3zfs17zero_cost_factory0KpEINtB5_24ZeroCostNativeZfsServiceKpENtNtCs5GmCzIpY9Qj_4core7default7Default7defaultBb_
FNF:2
FNH:0
DA:51,0
DA:52,0
DA:53,0
DA:60,0
DA:61,0
DA:62,0
BRF:0
BRH:0
LF:6
LH:0
end_of_record
SF:/home/eastgate/Development/ecoPrimals/nestgate/code/crates/nestgate-api/src/models.rs
FN:358,_RNCNvNtNtCs5HKDRulWIag_12nestgate_api6models5testss_23test_user_id_uniqueness0B7_
FN:285,_RNCNvNtNtCs5HKDRulWIag_12nestgate_api6models5testss_25test_multiple_auth_tokens0B7_
FN:292,_RNCNvNtNtCs5HKDRulWIag_12nestgate_api6models5testss_25test_multiple_auth_tokenss_0B7_
FN:52,_RNvNtNtCs5HKDRulWIag_12nestgate_api6models5testss_18test_user_creation
FN:174,_RNvNtNtCs5HKDRulWIag_12nestgate_api6models5testss_22test_user_with_unicode
FN:247,_RNvNtNtCs5HKDRulWIag_12nestgate_api6models5testss_23test_auth_token_expired
FN:259,_RNvNtNtCs5HKDRulWIag_12nestgate_api6models5testss_23test_user_email_formats
FN:357,_RNvNtNtCs5HKDRulWIag_12nestgate_api6models5testss_23test_user_id_uniqueness
FN:281,_RNvNtNtCs5HKDRulWIag_12nestgate_api6models5testss_25test_multiple_auth_tokens
FN:111,_RNvNtNtCs5HKDRulWIag_12nestgate_api6models5testss_26test_auth_token_expiration
FN:220,_RNvNtNtCs5HKDRulWIag_12nestgate_api6models5testss_27test_user_timestamps_update
FN:325,_RNvNtNtCs5HKDRulWIag_12nestgate_api6models5testss_28test_auth_token_with_symbols
FN:66,_RNvNtNtCs5HKDRulWIag_12nestgate_api6models5testss_28test_login_request_structure
FN:308,_RNvNtNtCs5HKDRulWIag_12nestgate_api6models5testss_28test_user_clone_independence
FN:92,_RNvNtNtCs5HKDRulWIag_12nestgate_api6models5testss_29test_login_response_structure
FN:161,_RNvNtNtCs5HKDRulWIag_12nestgate_api6models5testss_31test_auth_token_with_long_token
FN:296,_RNvNtNtCs5HKDRulWIag_12nestgate_api6models5testss_32test_login_request_long_username
FN:77,_RNvNtNtCs5HKDRulWIag_12nestgate_api6models5testss_32test_login_request_serialization
FN:236,_RNvNtNtCs5HKDRulWIag_12nestgate_api6models5testss_33test_login_request_empty_password
FN:338,_RNvNtNtCs5HKDRulWIag_12nestgate_api6models5testss_33test_login_response_with_new_user
FN:130,_RNvNtNtCs5HKDRulWIag_12nestgate_api6models5testss_33test_user_serialization_roundtrip
FN:187,_RNvNtNtCs5HKDRulWIag_12nestgate_api6models5testss_35test_login_response_deserialization
FN:203,_RNvNtNtCs5HKDRulWIag_12nestgate_api6models5testss_37test_auth_token_expiration_comparison
FN:147,_RNvNtNtCs5HKDRulWIag_12nestgate_api6models5testss_37test_login_request_with_special_chars
FNDA:100,_RNCNvNtNtCs5HKDRulWIag_12nestgate_api6models5testss_23test_user_id_uniqueness0B7_
FNDA:5,_RNCNvNtNtCs5HKDRulWIag_12nestgate_api6models5testss_25test_multiple_auth_tokens0B7_
FNDA:5,_RNCNvNtNtCs5HKDRulWIag_12nestgate_api6models5testss_25test_multiple_auth_tokenss_0B7_
FNDA:1,_RNvNtNtCs5HKDRulWIag_12nestgate_api6models5testss_18test_user_creation
FNDA:1,_RNvNtNtCs5HKDRulWIag_12nestgate_api6models5testss_22test_user_with_unicode
FNDA:1,_RNvNtNtCs5HKDRulWIag_12nestgate_api6models5testss_23test_auth_token_expired
FNDA:1,_RNvNtNtCs5HKDRulWIag_12nestgate_api6models5testss_23test_user_email_formats
FNDA:1,_RNvNtNtCs5HKDRulWIag_12nestgate_api6models5testss_23test_user_id_uniqueness
FNDA:1,_RNvNtNtCs5HKDRulWIag_12nestgate_api6models5testss_25test_multiple_auth_tokens
FNDA:1,_RNvNtNtCs5HKDRulWIag_12nestgate_api6models5testss_26test_auth_token_expiration
FNDA:1,_RNvNtNtCs5HKDRulWIag_12nestgate_api6models5testss_27test_user_timestamps_update
FNDA:1,_RNvNtNtCs5HKDRulWIag_12nestgate_api6models5testss_28test_auth_token_with_symbols
FNDA:1,_RNvNtNtCs5HKDRulWIag_12nestgate_api6models5testss_28test_login_request_structure
FNDA:1,_RNvNtNtCs5HKDRulWIag_12nestgate_api6models5testss_28test_user_clone_independence
FNDA:1,_RNvNtNtCs5HKDRulWIag_12nestgate_api6models5testss_29test_login_response_structure
FNDA:1,_RNvNtNtCs5HKDRulWIag_12nestgate_api6models5testss_31test_auth_token_with_long_token
FNDA:1,_RNvNtNtCs5HKDRulWIag_12nestgate_api6models5testss_32test_login_request_long_username
FNDA:1,_RNvNtNtCs5HKDRulWIag_12nestgate_api6models5testss_32test_login_request_serialization
FNDA:1,_RNvNtNtCs5HKDRulWIag_12nestgate_api6models5testss_33test_login_request_empty_password
FNDA:1,_RNvNtNtCs5HKDRulWIag_12nestgate_api6models5testss_33test_login_response_with_new_user
FNDA:1,_RNvNtNtCs5HKDRulWIag_12nestgate_api6models5testss_33test_user_serialization_roundtrip
FNDA:1,_RNvNtNtCs5HKDRulWIag_12nestgate_api6models5testss_35test_login_response_deserialization
FNDA:1,_RNvNtNtCs5HKDRulWIag_12nestgate_api6models5testss_37test_auth_token_expiration_comparison
FNDA:1,_RNvNtNtCs5HKDRulWIag_12nestgate_api6models5testss_37test_login_request_with_special_chars
FNF:24
FNH:24
DA:52,1
DA:53,1
DA:54,1
DA:55,1
DA:56,1
DA:57,1
DA:58,1
DA:59,1
DA:61,1
DA:62,1
DA:63,1
DA:66,1
DA:67,1
DA:68,1
DA:69,1
DA:70,1
DA:72,1
DA:73,1
DA:74,1
DA:77,1
DA:78,1
DA:79,1
DA:80,1
DA:81,1
DA:83,1
DA:84,1
DA:86,1
DA:87,1
DA:88,1
DA:89,1
DA:92,1
DA:93,1
DA:94,1
DA:95,1
DA:96,1
DA:97,1
DA:98,1
DA:99,1
DA:101,1
DA:102,1
DA:103,1
DA:104,1
DA:106,1
DA:107,1
DA:108,1
DA:111,1
DA:112,1
DA:113,1
DA:115,1
DA:116,1
DA:117,1
DA:118,1
DA:119,1
DA:121,1
DA:122,1
DA:123,1
DA:124,1
DA:125,0
DA:127,1
DA:130,1
DA:131,1
DA:132,1
DA:133,1
DA:134,1
DA:135,1
DA:136,1
DA:137,1
DA:139,1
DA:140,1
DA:142,1
DA:143,1
DA:144,1
DA:147,1
DA:148,1
DA:149,1
DA:150,1
DA:151,1
DA:153,1
DA:154,1
DA:156,1
DA:157,1
DA:158,1
DA:161,1
DA:162,1
DA:163,1
DA:164,1
DA:165,1
DA:166,1
DA:167,1
DA:169,1
DA:170,1
DA:171,1
DA:174,1
DA:175,1
DA:176,1
DA:177,1
DA:178,1
DA:179,1
DA:180,1
DA:181,1
DA:183,1
DA:184,1
DA:187,1
DA:188,1
DA:189,1
DA:190,1
DA:194,1
DA:195,1
DA:197,1
DA:198,1
DA:199,1
DA:200,1
DA:203,1
DA:204,1
DA:205,1
DA:206,1
DA:207,1
DA:208,1
DA:210,1
DA:211,1
DA:212,1
DA:213,1
DA:214,1
DA:216,1
DA:217,1
DA:220,1
DA:221,1
DA:222,1
DA:224,1
DA:225,1
DA:226,1
DA:227,1
DA:228,1
DA:229,1
DA:230,1
DA:232,1
DA:233,1
DA:236,1
DA:237,1
DA:238,1
DA:239,1
DA:240,1
DA:242,1
DA:243,1
DA:244,1
DA:247,1
DA:248,1
DA:249,1
DA:250,1
DA:251,1
DA:252,1
DA:253,1
DA:255,1
DA:256,1
DA:259,1
DA:260,1
DA:262,1
DA:263,1
DA:264,1
DA:267,5
DA:268,4
DA:269,4
DA:270,4
DA:271,4
DA:272,4
DA:273,4
DA:274,4
DA:276,4
DA:278,1
DA:281,1
DA:282,1
DA:283,1
DA:284,1
DA:285,5
DA:286,5
DA:287,5
DA:288,5
DA:289,1
DA:291,1
DA:292,5
DA:293,1
DA:296,1
DA:297,1
DA:298,1
DA:299,1
DA:300,1
DA:301,1
DA:303,1
DA:304,1
DA:305,1
DA:308,1
DA:309,1
DA:310,1
DA:311,1
DA:312,1
DA:313,1
DA:314,1
DA:315,1
DA:317,1
DA:318,1
DA:320,1
DA:321,1
DA:322,1
DA:325,1
DA:326,1
DA:327,1
DA:328,1
DA:329,1
DA:330,1
DA:332,1
DA:333,1
DA:334,1
DA:335,1
DA:338,1
DA:339,1
DA:340,1
DA:341,1
DA:342,1
DA:343,1
DA:344,1
DA:345,1
DA:346,1
DA:348,1
DA:349,1
DA:350,1
DA:351,1
DA:353,1
DA:354,1
DA:357,1
DA:358,100
DA:359,1
DA:361,1
DA:362,1
BRF:0
BRH:0
LF:235
LH:234
end_of_record
SF:/home/eastgate/Development/ecoPrimals/nestgate/code/crates/nestgate-api/src/rest/handlers/monitoring.rs
FN:77,_RNCNCNvNtNtNtCs5HKDRulWIag_12nestgate_api4rest8handlers10monitoring11get_metrics00Bb_
FN:150,_RNCNCNvNtNtNtCs5HKDRulWIag_12nestgate_api4rest8handlers10monitoring19get_metrics_history00Bb_
FN:153,_RNCNCNvNtNtNtCs5HKDRulWIag_12nestgate_api4rest8handlers10monitoring19get_metrics_history0s0_0Bb_
FN:159,_RNCNCNvNtNtNtCs5HKDRulWIag_12nestgate_api4rest8handlers10monitoring19get_metrics_history0s1_0Bb_
FN:160,_RNCNCNvNtNtNtCs5HKDRulWIag_12nestgate_api4rest8handlers10monitoring19get_metrics_history0s2_0Bb_
FN:152,_RNCNCNvNtNtNtCs5HKDRulWIag_12nestgate_api4rest8handlers10monitoring19get_metrics_history0s_0Bb_
FN:242,_RNCNvNtNtNtCs5HKDRulWIag_12nestgate_api4rest8handlers10monitoring10get_alerts0B9_
FN:41,_RNCNvNtNtNtCs5HKDRulWIag_12nestgate_api4rest8handlers10monitoring11get_metrics0B9_
FN:144,_RNCNvNtNtNtCs5HKDRulWIag_12nestgate_api4rest8handlers10monitoring19get_metrics_history0B9_
FN:418,_RNCNvNtNtNtCs5HKDRulWIag_12nestgate_api4rest8handlers10monitoring34calculate_real_zfs_cache_hit_ratio0B9_
FN:240,_RNvNtNtNtCs5HKDRulWIag_12nestgate_api4rest8handlers10monitoring10get_alerts
FN:39,_RNvNtNtNtCs5HKDRulWIag_12nestgate_api4rest8handlers10monitoring11get_metrics
FN:141,_RNvNtNtNtCs5HKDRulWIag_12nestgate_api4rest8handlers10monitoring19get_metrics_history
FN:418,_RNvNtNtNtCs5HKDRulWIag_12nestgate_api4rest8handlers10monitoring34calculate_real_zfs_cache_hit_ratio
FNDA:0,_RNCNCNvNtNtNtCs5HKDRulWIag_12nestgate_api4rest8handlers10monitoring11get_metrics00Bb_
FNDA:0,_RNCNCNvNtNtNtCs5HKDRulWIag_12nestgate_api4rest8handlers10monitoring19get_metrics_history00Bb_
FNDA:0,_RNCNCNvNtNtNtCs5HKDRulWIag_12nestgate_api4rest8handlers10monitoring19get_metrics_history0s0_0Bb_
FNDA:0,_RNCNCNvNtNtNtCs5HKDRulWIag_12nestgate_api4rest8handlers10monitoring19get_metrics_history0s1_0Bb_
FNDA:0,_RNCNCNvNtNtNtCs5HKDRulWIag_12nestgate_api4rest8handlers10monitoring19get_metrics_history0s2_0Bb_
FNDA:0,_RNCNCNvNtNtNtCs5HKDRulWIag_12nestgate_api4rest8handlers10monitoring19get_metrics_history0s_0Bb_
FNDA:0,_RNCNvNtNtNtCs5HKDRulWIag_12nestgate_api4rest8handlers10monitoring10get_alerts0B9_
FNDA:0,_RNCNvNtNtNtCs5HKDRulWIag_12nestgate_api4rest8handlers10monitoring11get_metrics0B9_
FNDA:0,_RNCNvNtNtNtCs5HKDRulWIag_12nestgate_api4rest8handlers10monitoring19get_metrics_history0B9_
FNDA:0,_RNCNvNtNtNtCs5HKDRulWIag_12nestgate_api4rest8handlers10monitoring34calculate_real_zfs_cache_hit_ratio0B9_
FNDA:0,_RNvNtNtNtCs5HKDRulWIag_12nestgate_api4rest8handlers10monitoring10get_alerts
FNDA:0,_RNvNtNtNtCs5HKDRulWIag_12nestgate_api4rest8handlers10monitoring11get_metrics
FNDA:0,_RNvNtNtNtCs5HKDRulWIag_12nestgate_api4rest8handlers10monitoring19get_metrics_history
FNDA:0,_RNvNtNtNtCs5HKDRulWIag_12nestgate_api4rest8handlers10monitoring34calculate_real_zfs_cache_hit_ratio
FNF:14
FNH:0
DA:39,0
DA:40,0
DA:41,0
DA:42,0
DA:44,0
DA:45,0
DA:46,0
DA:47,0
DA:48,0
DA:49,0
DA:51,0
DA:53,0
DA:55,0
DA:56,0
DA:59,0
DA:60,0
DA:61,0
DA:62,0
DA:66,0
DA:67,0
DA:69,0
DA:74,0
DA:75,0
DA:76,0
DA:77,0
DA:78,0
DA:82,0
DA:85,0
DA:86,0
DA:89,0
DA:90,0
DA:91,0
DA:92,0
DA:94,0
DA:95,0
DA:96,0
DA:97,0
DA:100,0
DA:101,0
DA:102,0
DA:103,0
DA:104,0
DA:105,0
DA:106,0
DA:107,0
DA:108,0
DA:109,0
DA:110,0
DA:111,0
DA:112,0
DA:113,0
DA:114,0
DA:115,0
DA:116,0
DA:117,0
DA:118,0
DA:119,0
DA:120,0
DA:122,0
DA:127,0
DA:129,0
DA:130,0
DA:131,0
DA:135,0
DA:136,0
DA:137,0
DA:141,0
DA:142,0
DA:143,0
DA:144,0
DA:145,0
DA:147,0
DA:148,0
DA:149,0
DA:150,0
DA:151,0
DA:152,0
DA:153,0
DA:156,0
DA:157,0
DA:158,0
DA:159,0
DA:160,0
DA:163,0
DA:164,0
DA:165,0
DA:166,0
DA:167,0
DA:168,0
DA:169,0
DA:173,0
DA:174,0
DA:176,0
DA:178,0
DA:179,0
DA:186,0
DA:187,0
DA:188,0
DA:189,0
DA:190,0
DA:191,0
DA:192,0
DA:193,0
DA:194,0
DA:195,0
DA:196,0
DA:197,0
DA:198,0
DA:199,0
DA:200,0
DA:201,0
DA:202,0
DA:203,0
DA:204,0
DA:205,0
DA:206,0
DA:207,0
DA:208,0
DA:209,0
DA:210,0
DA:211,0
DA:212,0
DA:213,0
DA:214,0
DA:215,0
DA:216,0
DA:217,0
DA:218,0
DA:219,0
DA:220,0
DA:221,0
DA:222,0
DA:223,0
DA:224,0
DA:225,0
DA:227,0
DA:228,0
DA:231,0
DA:232,0
DA:233,0
DA:235,0
DA:236,0
DA:240,0
DA:241,0
DA:242,0
DA:243,0
DA:244,0
DA:247,0
DA:248,0
DA:251,0
DA:252,0
DA:253,0
DA:254,0
DA:255,0
DA:256,0
DA:257,0
DA:258,0
DA:259,0
DA:260,0
DA:261,0
DA:262,0
DA:263,0
DA:264,0
DA:265,0
DA:266,0
DA:267,0
DA:268,0
DA:269,0
DA:270,0
DA:271,0
DA:272,0
DA:273,0
DA:274,0
DA:278,0
DA:279,0
DA:280,0
DA:281,0
DA:282,0
DA:283,0
DA:284,0
DA:285,0
DA:286,0
DA:287,0
DA:288,0
DA:290,0
DA:292,0
DA:293,0
DA:294,0
DA:295,0
DA:296,0
DA:297,0
DA:298,0
DA:299,0
DA:300,0
DA:301,0
DA:302,0
DA:303,0
DA:304,0
DA:305,0
DA:308,0
DA:311,0
DA:312,0
DA:313,0
DA:314,0
DA:315,0
DA:316,0
DA:317,0
DA:318,0
DA:319,0
DA:320,0
DA:321,0
DA:323,0
DA:325,0
DA:326,0
DA:327,0
DA:328,0
DA:329,0
DA:330,0
DA:331,0
DA:332,0
DA:333,0
DA:334,0
DA:335,0
DA:336,0
DA:337,0
DA:338,0
DA:341,0
DA:344,0
DA:345,0
DA:346,0
DA:347,0
DA:349,0
DA:352,0
DA:353,0
DA:354,0
DA:355,0
DA:356,0
DA:357,0
DA:358,0
DA:359,0
DA:361,0
DA:363,0
DA:364,0
DA:365,0
DA:366,0
DA:367,0
DA:368,0
DA:369,0
DA:370,0
DA:371,0
DA:372,0
DA:373,0
DA:374,0
DA:375,0
DA:376,0
DA:377,0
DA:380,0
DA:383,0
DA:384,0
DA:385,0
DA:386,0
DA:387,0
DA:388,0
DA:389,0
DA:390,0
DA:391,0
DA:392,0
DA:393,0
DA:394,0
DA:395,0
DA:396,0
DA:397,0
DA:398,0
DA:399,0
DA:400,0
DA:401,0
DA:402,0
DA:403,0
DA:404,0
DA:405,0
DA:406,0
DA:407,0
DA:409,0
DA:410,0
DA:411,0
DA:418,0
DA:420,0
DA:421,0
DA:422,0
DA:423,0
DA:425,0
DA:426,0
DA:427,0
DA:428,0
DA:429,0
DA:430,0
DA:431,0
DA:433,0
DA:436,0
DA:437,0
DA:438,0
DA:440,0
DA:445,0
DA:446,0
DA:447,0
DA:448,0
DA:450,0
DA:453,0
DA:455,0
DA:459,0
BRF:0
BRH:0
LF:318
LH:0
end_of_record
SF:/home/eastgate/Development/ecoPrimals/nestgate/code/crates/nestgate-api/src/rest/handlers/storage.rs
FN:97,_RNCNCNvNtNtNtCs5HKDRulWIag_12nestgate_api4rest8handlers7storage13list_backends00Bb_
FN:109,_RNCNCNvNtNtNtCs5HKDRulWIag_12nestgate_api4rest8handlers7storage13list_backends0s0_0Bb_
FN:111,_RNCNCNvNtNtNtCs5HKDRulWIag_12nestgate_api4rest8handlers7storage13list_backends0s1_0Bb_
FN:106,_RNCNCNvNtNtNtCs5HKDRulWIag_12nestgate_api4rest8handlers7storage13list_backends0s_0Bb_
FN:148,_RNCNvNtNtNtCs5HKDRulWIag_12nestgate_api4rest8handlers7storage12scan_storage0B9_
FN:31,_RNCNvNtNtNtCs5HKDRulWIag_12nestgate_api4rest8handlers7storage13list_backends0B9_
FN:326,_RNCNvNtNtNtCs5HKDRulWIag_12nestgate_api4rest8handlers7storage14auto_configure0B9_
FN:255,_RNCNvNtNtNtCs5HKDRulWIag_12nestgate_api4rest8handlers7storage17benchmark_storage0B9_
FN:145,_RNvNtNtNtCs5HKDRulWIag_12nestgate_api4rest8handlers7storage12scan_storage
FN:28,_RNvNtNtNtCs5HKDRulWIag_12nestgate_api4rest8handlers7storage13list_backends
FN:323,_RNvNtNtNtCs5HKDRulWIag_12nestgate_api4rest8handlers7storage14auto_configure
FN:252,_RNvNtNtNtCs5HKDRulWIag_12nestgate_api4rest8handlers7storage17benchmark_storage
FN:515,_RNvNtNtNtCs5HKDRulWIag_12nestgate_api4rest8handlers7storage20get_filesystem_space
FNDA:0,_RNCNCNvNtNtNtCs5HKDRulWIag_12nestgate_api4rest8handlers7storage13list_backends00Bb_
FNDA:0,_RNCNCNvNtNtNtCs5HKDRulWIag_12nestgate_api4rest8handlers7storage13list_backends0s0_0Bb_
FNDA:0,_RNCNCNvNtNtNtCs5HKDRulWIag_12nestgate_api4rest8handlers7storage13list_backends0s1_0Bb_
FNDA:0,_RNCNCNvNtNtNtCs5HKDRulWIag_12nestgate_api4rest8handlers7storage13list_backends0s_0Bb_
FNDA:0,_RNCNvNtNtNtCs5HKDRulWIag_12nestgate_api4rest8handlers7storage12scan_storage0B9_
FNDA:0,_RNCNvNtNtNtCs5HKDRulWIag_12nestgate_api4rest8handlers7storage13list_backends0B9_
FNDA:0,_RNCNvNtNtNtCs5HKDRulWIag_12nestgate_api4rest8handlers7storage14auto_configure0B9_
FNDA:0,_RNCNvNtNtNtCs5HKDRulWIag_12nestgate_api4rest8handlers7storage17benchmark_storage0B9_
FNDA:0,_RNvNtNtNtCs5HKDRulWIag_12nestgate_api4rest8handlers7storage12scan_storage
FNDA:0,_RNvNtNtNtCs5HKDRulWIag_12nestgate_api4rest8handlers7storage13list_backends
FNDA:0,_RNvNtNtNtCs5HKDRulWIag_12nestgate_api4rest8handlers7storage14auto_configure
FNDA:0,_RNvNtNtNtCs5HKDRulWIag_12nestgate_api4rest8handlers7storage17benchmark_storage
FNDA:0,_RNvNtNtNtCs5HKDRulWIag_12nestgate_api4rest8handlers7storage20get_filesystem_space
FNF:13
FNH:0
DA:28,0
DA:29,0
DA:30,0
DA:31,0
DA:32,0
DA:33,0
DA:36,0
DA:39,0
DA:40,0
DA:41,0
DA:42,0
DA:43,0
DA:44,0
DA:45,0
DA:46,0
DA:47,0
DA:48,0
DA:49,0
DA:50,0
DA:51,0
DA:52,0
DA:53,0
DA:54,0
DA:55,0
DA:56,0
DA:57,0
DA:58,0
DA:59,0
DA:60,0
DA:61,0
DA:62,0
DA:63,0
DA:66,0
DA:67,0
DA:68,0
DA:69,0
DA:70,0
DA:71,0
DA:72,0
DA:73,0
DA:74,0
DA:75,0
DA:76,0
DA:77,0
DA:78,0
DA:79,0
DA:80,0
DA:81,0
DA:82,0
DA:83,0
DA:84,0
DA:85,0
DA:86,0
DA:87,0
DA:88,0
DA:89,0
DA:90,0
DA:91,0
DA:92,0
DA:93,0
DA:96,0
DA:97,0
DA:98,0
DA:99,0
DA:100,0
DA:101,0
DA:104,0
DA:105,0
DA:106,0
DA:107,0
DA:108,0
DA:109,0
DA:111,0
DA:112,0
DA:113,0
DA:114,0
DA:115,0
DA:116,0
DA:117,0
DA:120,0
DA:121,0
DA:122,0
DA:123,0
DA:126,0
DA:127,0
DA:128,0
DA:130,0
DA:131,0
DA:132,0
DA:134,0
DA:135,0
DA:136,0
DA:137,0
DA:138,0
DA:139,0
DA:140,0
DA:141,0
DA:145,0
DA:146,0
DA:147,0
DA:148,0
DA:149,0
DA:150,0
DA:163,0
DA:166,0
DA:167,0
DA:168,0
DA:169,0
DA:170,0
DA:171,0
DA:172,0
DA:173,0
DA:174,0
DA:175,0
DA:176,0
DA:177,0
DA:178,0
DA:179,0
DA:180,0
DA:181,0
DA:182,0
DA:183,0
DA:184,0
DA:185,0
DA:186,0
DA:187,0
DA:189,0
DA:190,0
DA:191,0
DA:192,0
DA:193,0
DA:194,0
DA:195,0
DA:196,0
DA:197,0
DA:198,0
DA:199,0
DA:200,0
DA:201,0
DA:202,0
DA:203,0
DA:204,0
DA:205,0
DA:206,0
DA:207,0
DA:208,0
DA:209,0
DA:210,0
DA:211,0
DA:212,0
DA:213,0
DA:214,0
DA:215,0
DA:218,0
DA:219,0
DA:220,0
DA:221,0
DA:222,0
DA:223,0
DA:224,0
DA:225,0
DA:226,0
DA:227,0
DA:228,0
DA:229,0
DA:230,0
DA:231,0
DA:232,0
DA:233,0
DA:234,0
DA:235,0
DA:236,0
DA:237,0
DA:238,0
DA:239,0
DA:240,0
DA:241,0
DA:242,0
DA:243,0
DA:244,0
DA:246,0
DA:247,0
DA:248,0
DA:252,0
DA:253,0
DA:254,0
DA:255,0
DA:256,0
DA:257,0
DA:258,0
DA:261,0
DA:263,0
DA:264,0
DA:265,0
DA:266,0
DA:267,0
DA:268,0
DA:269,0
DA:270,0
DA:271,0
DA:272,0
DA:273,0
DA:274,0
DA:275,0
DA:276,0
DA:277,0
DA:278,0
DA:279,0
DA:280,0
DA:281,0
DA:282,0
DA:283,0
DA:284,0
DA:285,0
DA:286,0
DA:287,0
DA:288,0
DA:289,0
DA:290,0
DA:291,0
DA:292,0
DA:293,0
DA:294,0
DA:295,0
DA:296,0
DA:297,0
DA:298,0
DA:299,0
DA:300,0
DA:301,0
DA:302,0
DA:303,0
DA:304,0
DA:305,0
DA:307,0
DA:308,0
DA:309,0
DA:310,0
DA:311,0
DA:312,0
DA:313,0
DA:317,0
DA:318,0
DA:319,0
DA:323,0
DA:324,0
DA:325,0
DA:326,0
DA:327,0
DA:328,0
DA:332,0
DA:333,0
DA:334,0
DA:335,0
DA:340,0
DA:341,0
DA:342,0
DA:343,0
DA:344,0
DA:345,0
DA:346,0
DA:347,0
DA:348,0
DA:349,0
DA:350,0
DA:351,0
DA:352,0
DA:353,0
DA:354,0
DA:355,0
DA:356,0
DA:357,0
DA:358,0
DA:359,0
DA:360,0
DA:361,0
DA:362,0
DA:363,0
DA:364,0
DA:365,0
DA:366,0
DA:367,0
DA:368,0
DA:369,0
DA:370,0
DA:371,0
DA:372,0
DA:373,0
DA:374,0
DA:375,0
DA:376,0
DA:377,0
DA:378,0
DA:379,0
DA:380,0
DA:381,0
DA:382,0
DA:383,0
DA:384,0
DA:385,0
DA:386,0
DA:387,0
DA:388,0
DA:389,0
DA:390,0
DA:391,0
DA:392,0
DA:393,0
DA:394,0
DA:395,0
DA:396,0
DA:397,0
DA:398,0
DA:399,0
DA:400,0
DA:401,0
DA:402,0
DA:403,0
DA:404,0
DA:405,0
DA:406,0
DA:407,0
DA:408,0
DA:409,0
DA:410,0
DA:411,0
DA:412,0
DA:413,0
DA:414,0
DA:415,0
DA:416,0
DA:417,0
DA:418,0
DA:419,0
DA:420,0
DA:421,0
DA:422,0
DA:423,0
DA:424,0
DA:425,0
DA:426,0
DA:427,0
DA:428,0
DA:429,0
DA:430,0
DA:431,0
DA:432,0
DA:433,0
DA:434,0
DA:435,0
DA:436,0
DA:437,0
DA:438,0
DA:439,0
DA:440,0
DA:441,0
DA:442,0
DA:443,0
DA:444,0
DA:445,0
DA:446,0
DA:447,0
DA:448,0
DA:449,0
DA:453,0
DA:454,0
DA:455,0
DA:456,0
DA:457,0
DA:458,0
DA:460,0
DA:461,0
DA:462,0
DA:463,0
DA:464,0
DA:466,0
DA:467,0
DA:468,0
DA:469,0
DA:470,0
DA:473,0
DA:474,0
DA:475,0
DA:476,0
DA:477,0
DA:479,0
DA:480,0
DA:481,0
DA:482,0
DA:483,0
DA:488,0
DA:489,0
DA:490,0
DA:491,0
DA:492,0
DA:493,0
DA:495,0
DA:496,0
DA:497,0
DA:498,0
DA:499,0
DA:500,0
DA:502,0
DA:503,0
DA:506,0
DA:507,0
DA:515,0
DA:517,0
DA:521,0
DA:523,0
DA:525,0
BRF:0
BRH:0
LF:419
LH:0
end_of_record
SF:/home/eastgate/Development/ecoPrimals/nestgate/code/crates/nestgate-api/src/rest/handlers/system.rs
FN:221,_RNCNCNCNvNtNtNtCs5HKDRulWIag_12nestgate_api4rest8handlers6system17get_system_uptime000Bd_
FN:219,_RNCNCNvNtNtNtCs5HKDRulWIag_12nestgate_api4rest8handlers6system17get_system_uptime00Bb_
FN:97,_RNCNvNtNtNtCs5HKDRulWIag_12nestgate_api4rest8handlers6system12health_check0B9_
FN:148,_RNCNvNtNtNtCs5HKDRulWIag_12nestgate_api4rest8handlers6system12version_info0B9_
FN:165,_RNCNvNtNtNtCs5HKDRulWIag_12nestgate_api4rest8handlers6system13system_status0B9_
FN:216,_RNCNvNtNtNtCs5HKDRulWIag_12nestgate_api4rest8handlers6system17get_system_uptime0B9_
FN:238,_RNvNtNtNtCs5HKDRulWIag_12nestgate_api4rest8handlers6system12get_git_hash
FN:97,_RNvNtNtNtCs5HKDRulWIag_12nestgate_api4rest8handlers6system12health_check
FN:148,_RNvNtNtNtCs5HKDRulWIag_12nestgate_api4rest8handlers6system12version_info
FN:165,_RNvNtNtNtCs5HKDRulWIag_12nestgate_api4rest8handlers6system13system_status
FN:231,_RNvNtNtNtCs5HKDRulWIag_12nestgate_api4rest8handlers6system14get_build_date
FN:243,_RNvNtNtNtCs5HKDRulWIag_12nestgate_api4rest8handlers6system16get_rust_version
FN:254,_RNvNtNtNtCs5HKDRulWIag_12nestgate_api4rest8handlers6system17get_build_profile
FN:212,_RNvNtNtNtCs5HKDRulWIag_12nestgate_api4rest8handlers6system17get_system_uptime
FN:250,_RNvNtNtNtCs5HKDRulWIag_12nestgate_api4rest8handlers6system17get_target_triple
FN:262,_RNvNtNtNtCs5HKDRulWIag_12nestgate_api4rest8handlers6system18get_resource_usage
FN:300,_RNvNtNtNtCs5HKDRulWIag_12nestgate_api4rest8handlers6system25get_engine_snapshot_count
FNDA:0,_RNCNCNCNvNtNtNtCs5HKDRulWIag_12nestgate_api4rest8handlers6system17get_system_uptime000Bd_
FNDA:0,_RNCNCNvNtNtNtCs5HKDRulWIag_12nestgate_api4rest8handlers6system17get_system_uptime00Bb_
FNDA:0,_RNCNvNtNtNtCs5HKDRulWIag_12nestgate_api4rest8handlers6system12health_check0B9_
FNDA:0,_RNCNvNtNtNtCs5HKDRulWIag_12nestgate_api4rest8handlers6system12version_info0B9_
FNDA:0,_RNCNvNtNtNtCs5HKDRulWIag_12nestgate_api4rest8handlers6system13system_status0B9_
FNDA:0,_RNCNvNtNtNtCs5HKDRulWIag_12nestgate_api4rest8handlers6system17get_system_uptime0B9_
FNDA:0,_RNvNtNtNtCs5HKDRulWIag_12nestgate_api4rest8handlers6system12get_git_hash
FNDA:0,_RNvNtNtNtCs5HKDRulWIag_12nestgate_api4rest8handlers6system12health_check
FNDA:0,_RNvNtNtNtCs5HKDRulWIag_12nestgate_api4rest8handlers6system12version_info
FNDA:0,_RNvNtNtNtCs5HKDRulWIag_12nestgate_api4rest8handlers6system13system_status
FNDA:0,_RNvNtNtNtCs5HKDRulWIag_12nestgate_api4rest8handlers6system14get_build_date
FNDA:0,_RNvNtNtNtCs5HKDRulWIag_12nestgate_api4rest8handlers6system16get_rust_version
FNDA:0,_RNvNtNtNtCs5HKDRulWIag_12nestgate_api4rest8handlers6system17get_build_profile
FNDA:0,_RNvNtNtNtCs5HKDRulWIag_12nestgate_api4rest8handlers6system17get_system_uptime
FNDA:0,_RNvNtNtNtCs5HKDRulWIag_12nestgate_api4rest8handlers6system17get_target_triple
FNDA:0,_RNvNtNtNtCs5HKDRulWIag_12nestgate_api4rest8handlers6system18get_resource_usage
FNDA:0,_RNvNtNtNtCs5HKDRulWIag_12nestgate_api4rest8handlers6system25get_engine_snapshot_count
FNF:17
FNH:0
DA:97,0
DA:98,0
DA:100,0
DA:101,0
DA:102,0
DA:104,0
DA:107,0
DA:108,0
DA:109,0
DA:111,0
DA:114,0
DA:115,0
DA:116,0
DA:118,0
DA:121,0
DA:123,0
DA:124,0
DA:126,0
DA:129,0
DA:130,0
DA:131,0
DA:132,0
DA:133,0
DA:134,0
DA:135,0
DA:136,0
DA:137,0
DA:138,0
DA:139,0
DA:140,0
DA:142,0
DA:143,0
DA:144,0
DA:148,0
DA:149,0
DA:150,0
DA:151,0
DA:152,0
DA:153,0
DA:154,0
DA:155,0
DA:156,0
DA:157,0
DA:159,0
DA:160,0
DA:161,0
DA:165,0
DA:166,0
DA:168,0
DA:169,0
DA:172,0
DA:173,0
DA:176,0
DA:179,0
DA:180,0
DA:182,0
DA:183,0
DA:184,0
DA:185,0
DA:186,0
DA:189,0
DA:191,0
DA:192,0
DA:193,0
DA:194,0
DA:195,0
DA:196,0
DA:197,0
DA:198,0
DA:200,0
DA:201,0
DA:204,0
DA:205,0
DA:212,0
DA:215,0
DA:216,0
DA:217,0
DA:219,0
DA:220,0
DA:221,0
DA:222,0
DA:223,0
DA:224,0
DA:225,0
DA:226,0
DA:227,0
DA:228,0
DA:231,0
DA:233,0
DA:234,0
DA:235,0
DA:236,0
DA:238,0
DA:240,0
DA:241,0
DA:243,0
DA:245,0
DA:246,0
DA:247,0
DA:248,0
DA:250,0
DA:251,0
DA:252,0
DA:254,0
DA:255,0
DA:256,0
DA:258,0
DA:260,0
DA:262,0
DA:265,0
DA:266,0
DA:267,0
DA:269,0
DA:270,0
DA:271,0
DA:274,0
DA:278,0
DA:279,0
DA:280,0
DA:282,0
DA:283,0
DA:284,0
DA:287,0
DA:288,0
DA:289,0
DA:290,0
DA:291,0
DA:292,0
DA:293,0
DA:294,0
DA:295,0
DA:296,0
DA:300,0
DA:301,0
DA:302,0
DA:307,0
DA:308,0
DA:309,0
DA:310,0
DA:311,0
DA:312,0
DA:313,0
DA:316,0
DA:317,0
BRF:0
BRH:0
LF:150
LH:0
end_of_record
SF:/home/eastgate/Development/ecoPrimals/nestgate/code/crates/nestgate-api/src/rest/handlers/websocket.rs
FN:51,_RNCNCNvNtNtNtCs5HKDRulWIag_12nestgate_api4rest8handlers9websocket14logs_websocket00Bb_
FN:62,_RNCNCNvNtNtNtCs5HKDRulWIag_12nestgate_api4rest8handlers9websocket16events_websocket00Bb_
FN:40,_RNCNCNvNtNtNtCs5HKDRulWIag_12nestgate_api4rest8handlers9websocket17metrics_websocket00Bb_
FN:108,_RNCNCNvNtNtNtCs5HKDRulWIag_12nestgate_api4rest8handlers9websocket21handle_logs_websocket00Bb_
FN:49,_RNCNvNtNtNtCs5HKDRulWIag_12nestgate_api4rest8handlers9websocket14logs_websocket0B9_
FN:60,_RNCNvNtNtNtCs5HKDRulWIag_12nestgate_api4rest8handlers9websocket16events_websocket0B9_
FN:38,_RNCNvNtNtNtCs5HKDRulWIag_12nestgate_api4rest8handlers9websocket17metrics_websocket0B9_
FN:169,_RNCNvNtNtNtCs5HKDRulWIag_12nestgate_api4rest8handlers9websocket19get_current_metrics0B9_
FN:106,_RNCNvNtNtNtCs5HKDRulWIag_12nestgate_api4rest8handlers9websocket21handle_logs_websocket0B9_
FN:136,_RNCNvNtNtNtCs5HKDRulWIag_12nestgate_api4rest8handlers9websocket23handle_events_websocket0B9_
FN:70,_RNCNvNtNtNtCs5HKDRulWIag_12nestgate_api4rest8handlers9websocket24handle_metrics_websocket0B9_
FN:318,_RNCNvNtNtNtCs5HKDRulWIag_12nestgate_api4rest8handlers9websocket28generate_sample_system_event0B9_
FN:45,_RNvNtNtNtCs5HKDRulWIag_12nestgate_api4rest8handlers9websocket14logs_websocket
FN:56,_RNvNtNtNtCs5HKDRulWIag_12nestgate_api4rest8handlers9websocket16events_websocket
FN:34,_RNvNtNtNtCs5HKDRulWIag_12nestgate_api4rest8handlers9websocket17metrics_websocket
FN:169,_RNvNtNtNtCs5HKDRulWIag_12nestgate_api4rest8handlers9websocket19get_current_metrics
FN:106,_RNvNtNtNtCs5HKDRulWIag_12nestgate_api4rest8handlers9websocket21handle_logs_websocket
FN:136,_RNvNtNtNtCs5HKDRulWIag_12nestgate_api4rest8handlers9websocket23handle_events_websocket
FN:70,_RNvNtNtNtCs5HKDRulWIag_12nestgate_api4rest8handlers9websocket24handle_metrics_websocket
FN:254,_RNvNtNtNtCs5HKDRulWIag_12nestgate_api4rest8handlers9websocket25generate_sample_log_entry
FN:394,_RNvNtNtNtCs5HKDRulWIag_12nestgate_api4rest8handlers9websocket27generate_realtime_cpu_usage
FN:414,_RNvNtNtNtCs5HKDRulWIag_12nestgate_api4rest8handlers9websocket27generate_realtime_disk_read
FN:434,_RNvNtNtNtCs5HKDRulWIag_12nestgate_api4rest8handlers9websocket27generate_realtime_read_iops
FN:424,_RNvNtNtNtCs5HKDRulWIag_12nestgate_api4rest8handlers9websocket28generate_realtime_disk_write
FN:452,_RNvNtNtNtCs5HKDRulWIag_12nestgate_api4rest8handlers9websocket28generate_realtime_network_rx
FN:462,_RNvNtNtNtCs5HKDRulWIag_12nestgate_api4rest8handlers9websocket28generate_realtime_network_tx
FN:438,_RNvNtNtNtCs5HKDRulWIag_12nestgate_api4rest8handlers9websocket28generate_realtime_write_iops
FN:318,_RNvNtNtNtCs5HKDRulWIag_12nestgate_api4rest8handlers9websocket28generate_sample_system_event
FN:442,_RNvNtNtNtCs5HKDRulWIag_12nestgate_api4rest8handlers9websocket29generate_realtime_queue_depth
FN:404,_RNvNtNtNtCs5HKDRulWIag_12nestgate_api4rest8handlers9websocket30generate_realtime_memory_usage
FN:474,_RNvNtNtNtCs5HKDRulWIag_12nestgate_api4rest8handlers9websocket33generate_realtime_cache_hit_ratio
FN:466,_RNvNtNtNtCs5HKDRulWIag_12nestgate_api4rest8handlers9websocket36generate_realtime_network_rx_packets
FN:470,_RNvNtNtNtCs5HKDRulWIag_12nestgate_api4rest8handlers9websocket36generate_realtime_network_tx_packets
FNDA:0,_RNCNCNvNtNtNtCs5HKDRulWIag_12nestgate_api4rest8handlers9websocket14logs_websocket00Bb_
FNDA:0,_RNCNCNvNtNtNtCs5HKDRulWIag_12nestgate_api4rest8handlers9websocket16events_websocket00Bb_
FNDA:0,_RNCNCNvNtNtNtCs5HKDRulWIag_12nestgate_api4rest8handlers9websocket17metrics_websocket00Bb_
FNDA:0,_RNCNCNvNtNtNtCs5HKDRulWIag_12nestgate_api4rest8handlers9websocket21handle_logs_websocket00Bb_
FNDA:0,_RNCNvNtNtNtCs5HKDRulWIag_12nestgate_api4rest8handlers9websocket14logs_websocket0B9_
FNDA:0,_RNCNvNtNtNtCs5HKDRulWIag_12nestgate_api4rest8handlers9websocket16events_websocket0B9_
FNDA:0,_RNCNvNtNtNtCs5HKDRulWIag_12nestgate_api4rest8handlers9websocket17metrics_websocket0B9_
FNDA:0,_RNCNvNtNtNtCs5HKDRulWIag_12nestgate_api4rest8handlers9websocket19get_current_metrics0B9_
FNDA:0,_RNCNvNtNtNtCs5HKDRulWIag_12nestgate_api4rest8handlers9websocket21handle_logs_websocket0B9_
FNDA:0,_RNCNvNtNtNtCs5HKDRulWIag_12nestgate_api4rest8handlers9websocket23handle_events_websocket0B9_
FNDA:0,_RNCNvNtNtNtCs5HKDRulWIag_12nestgate_api4rest8handlers9websocket24handle_metrics_websocket0B9_
FNDA:0,_RNCNvNtNtNtCs5HKDRulWIag_12nestgate_api4rest8handlers9websocket28generate_sample_system_event0B9_
FNDA:0,_RNvNtNtNtCs5HKDRulWIag_12nestgate_api4rest8handlers9websocket14logs_websocket
FNDA:0,_RNvNtNtNtCs5HKDRulWIag_12nestgate_api4rest8handlers9websocket16events_websocket
FNDA:0,_RNvNtNtNtCs5HKDRulWIag_12nestgate_api4rest8handlers9websocket17metrics_websocket
FNDA:0,_RNvNtNtNtCs5HKDRulWIag_12nestgate_api4rest8handlers9websocket19get_current_metrics
FNDA:0,_RNvNtNtNtCs5HKDRulWIag_12nestgate_api4rest8handlers9websocket21handle_logs_websocket
FNDA:0,_RNvNtNtNtCs5HKDRulWIag_12nestgate_api4rest8handlers9websocket23handle_events_websocket
FNDA:0,_RNvNtNtNtCs5HKDRulWIag_12nestgate_api4rest8handlers9websocket24handle_metrics_websocket
FNDA:0,_RNvNtNtNtCs5HKDRulWIag_12nestgate_api4rest8handlers9websocket25generate_sample_log_entry
FNDA:0,_RNvNtNtNtCs5HKDRulWIag_12nestgate_api4rest8handlers9websocket27generate_realtime_cpu_usage
FNDA:0,_RNvNtNtNtCs5HKDRulWIag_12nestgate_api4rest8handlers9websocket27generate_realtime_disk_read
FNDA:0,_RNvNtNtNtCs5HKDRulWIag_12nestgate_api4rest8handlers9websocket27generate_realtime_read_iops
FNDA:0,_RNvNtNtNtCs5HKDRulWIag_12nestgate_api4rest8handlers9websocket28generate_realtime_disk_write
FNDA:0,_RNvNtNtNtCs5HKDRulWIag_12nestgate_api4rest8handlers9websocket28generate_realtime_network_rx
FNDA:0,_RNvNtNtNtCs5HKDRulWIag_12nestgate_api4rest8handlers9websocket28generate_realtime_network_tx
FNDA:0,_RNvNtNtNtCs5HKDRulWIag_12nestgate_api4rest8handlers9websocket28generate_realtime_write_iops
FNDA:0,_RNvNtNtNtCs5HKDRulWIag_12nestgate_api4rest8handlers9websocket28generate_sample_system_event
FNDA:0,_RNvNtNtNtCs5HKDRulWIag_12nestgate_api4rest8handlers9websocket29generate_realtime_queue_depth
FNDA:0,_RNvNtNtNtCs5HKDRulWIag_12nestgate_api4rest8handlers9websocket30generate_realtime_memory_usage
FNDA:0,_RNvNtNtNtCs5HKDRulWIag_12nestgate_api4rest8handlers9websocket33generate_realtime_cache_hit_ratio
FNDA:0,_RNvNtNtNtCs5HKDRulWIag_12nestgate_api4rest8handlers9websocket36generate_realtime_network_rx_packets
FNDA:0,_RNvNtNtNtCs5HKDRulWIag_12nestgate_api4rest8handlers9websocket36generate_realtime_network_tx_packets
FNF:33
FNH:0
DA:34,0
DA:35,0
DA:36,0
DA:37,0
DA:38,0
DA:39,0
DA:40,0
DA:41,0
DA:45,0
DA:46,0
DA:47,0
DA:48,0
DA:49,0
DA:50,0
DA:51,0
DA:52,0
DA:56,0
DA:57,0
DA:58,0
DA:59,0
DA:60,0
DA:61,0
DA:62,0
DA:63,0
DA:70,0
DA:71,0
DA:72,0
DA:73,0
DA:76,0
DA:79,0
DA:80,0
DA:81,0
DA:82,0
DA:83,0
DA:88,0
DA:89,0
DA:90,0
DA:91,0
DA:92,0
DA:96,0
DA:97,0
DA:98,0
DA:99,0
DA:102,0
DA:103,0
DA:106,0
DA:107,0
DA:108,0
DA:109,0
DA:110,0
DA:113,0
DA:116,0
DA:118,0
DA:119,0
DA:120,0
DA:121,0
DA:122,0
DA:126,0
DA:127,0
DA:128,0
DA:129,0
DA:132,0
DA:133,0
DA:136,0
DA:137,0
DA:138,0
DA:139,0
DA:142,0
DA:145,0
DA:147,0
DA:148,0
DA:149,0
DA:150,0
DA:151,0
DA:155,0
DA:156,0
DA:157,0
DA:158,0
DA:161,0
DA:162,0
DA:169,0
DA:171,0
DA:172,0
DA:173,0
DA:174,0
DA:175,0
DA:176,0
DA:177,0
DA:179,0
DA:181,0
DA:182,0
DA:185,0
DA:186,0
DA:187,0
DA:188,0
DA:191,0
DA:192,0
DA:194,0
DA:197,0
DA:198,0
DA:199,0
DA:200,0
DA:201,0
DA:202,0
DA:203,0
DA:204,0
DA:205,0
DA:206,0
DA:207,0
DA:208,0
DA:209,0
DA:210,0
DA:211,0
DA:212,0
DA:213,0
DA:214,0
DA:215,0
DA:216,0
DA:217,0
DA:218,0
DA:219,0
DA:220,0
DA:221,0
DA:222,0
DA:223,0
DA:224,0
DA:225,0
DA:226,0
DA:227,0
DA:228,0
DA:229,0
DA:230,0
DA:231,0
DA:232,0
DA:233,0
DA:234,0
DA:235,0
DA:236,0
DA:237,0
DA:254,0
DA:257,0
DA:258,0
DA:259,0
DA:261,0
DA:262,0
DA:263,0
DA:264,0
DA:265,0
DA:266,0
DA:269,0
DA:271,0
DA:272,0
DA:273,0
DA:274,0
DA:275,0
DA:276,0
DA:277,0
DA:278,0
DA:279,0
DA:280,0
DA:281,0
DA:282,0
DA:284,0
DA:285,0
DA:286,0
DA:287,0
DA:288,0
DA:289,0
DA:290,0
DA:292,0
DA:293,0
DA:294,0
DA:295,0
DA:296,0
DA:297,0
DA:298,0
DA:299,0
DA:318,0
DA:319,0
DA:320,0
DA:321,0
DA:323,0
DA:324,0
DA:326,0
DA:327,0
DA:328,0
DA:329,0
DA:330,0
DA:331,0
DA:332,0
DA:333,0
DA:335,0
DA:337,0
DA:338,0
DA:339,0
DA:340,0
DA:341,0
DA:342,0
DA:343,0
DA:344,0
DA:345,0
DA:346,0
DA:347,0
DA:348,0
DA:349,0
DA:350,0
DA:351,0
DA:352,0
DA:353,0
DA:354,0
DA:355,0
DA:356,0
DA:357,0
DA:358,0
DA:359,0
DA:360,0
DA:361,0
DA:362,0
DA:363,0
DA:364,0
DA:365,0
DA:366,0
DA:367,0
DA:368,0
DA:369,0
DA:370,0
DA:371,0
DA:372,0
DA:373,0
DA:374,0
DA:375,0
DA:376,0
DA:377,0
DA:378,0
DA:379,0
DA:380,0
DA:383,0
DA:384,0
DA:385,0
DA:386,0
DA:387,0
DA:388,0
DA:389,0
DA:390,0
DA:391,0
DA:394,0
DA:395,0
DA:396,0
DA:397,0
DA:399,0
DA:400,0
DA:401,0
DA:402,0
DA:404,0
DA:405,0
DA:406,0
DA:407,0
DA:409,0
DA:410,0
DA:411,0
DA:412,0
DA:414,0
DA:415,0
DA:416,0
DA:417,0
DA:419,0
DA:420,0
DA:421,0
DA:422,0
DA:424,0
DA:425,0
DA:426,0
DA:427,0
DA:429,0
DA:430,0
DA:431,0
DA:432,0
DA:434,0
DA:435,0
DA:436,0
DA:438,0
DA:439,0
DA:440,0
DA:442,0
DA:443,0
DA:444,0
DA:445,0
DA:447,0
DA:448,0
DA:449,0
DA:450,0
DA:452,0
DA:453,0
DA:454,0
DA:455,0
DA:457,0
DA:458,0
DA:459,0
DA:460,0
DA:462,0
DA:463,0
DA:464,0
DA:466,0
DA:467,0
DA:468,0
DA:470,0
DA:471,0
DA:472,0
DA:474,0
DA:475,0
DA:476,0
DA:477,0
DA:479,0
DA:480,0
DA:481,0
DA:482,0
BRF:0
BRH:0
LF:328
LH:0
end_of_record
SF:/home/eastgate/Development/ecoPrimals/nestgate/code/crates/nestgate-api/src/rest/handlers/zfs.rs
FN:55,_RNCNCNvNtNtNtCs5HKDRulWIag_12nestgate_api4rest8handlers3zfs13list_datasets00Bb_
FN:62,_RNCNCNvNtNtNtCs5HKDRulWIag_12nestgate_api4rest8handlers3zfs13list_datasets0s0_0Bb_
FN:63,_RNCNCNvNtNtNtCs5HKDRulWIag_12nestgate_api4rest8handlers3zfs13list_datasets0s1_0Bb_
FN:61,_RNCNCNvNtNtNtCs5HKDRulWIag_12nestgate_api4rest8handlers3zfs13list_datasets0s_0Bb_
FN:430,_RNCNCNvNtNtNtCs5HKDRulWIag_12nestgate_api4rest8handlers3zfs14list_snapshots00Bb_
FN:210,_RNCNvNtNtNtCs5HKDRulWIag_12nestgate_api4rest8handlers3zfs11get_dataset0B9_
FN:528,_RNCNvNtNtNtCs5HKDRulWIag_12nestgate_api4rest8handlers3zfs12get_snapshot0B9_
FN:35,_RNCNvNtNtNtCs5HKDRulWIag_12nestgate_api4rest8handlers3zfs13list_datasets0B9_
FN:620,_RNCNvNtNtNtCs5HKDRulWIag_12nestgate_api4rest8handlers3zfs14clone_snapshot0B9_
FN:101,_RNCNvNtNtNtCs5HKDRulWIag_12nestgate_api4rest8handlers3zfs14create_dataset0B9_
FN:274,_RNCNvNtNtNtCs5HKDRulWIag_12nestgate_api4rest8handlers3zfs14delete_dataset0B9_
FN:398,_RNCNvNtNtNtCs5HKDRulWIag_12nestgate_api4rest8handlers3zfs14list_snapshots0B9_
FN:240,_RNCNvNtNtNtCs5HKDRulWIag_12nestgate_api4rest8handlers3zfs14update_dataset0B9_
FN:476,_RNCNvNtNtNtCs5HKDRulWIag_12nestgate_api4rest8handlers3zfs15create_snapshot0B9_
FN:589,_RNCNvNtNtNtCs5HKDRulWIag_12nestgate_api4rest8handlers3zfs15delete_snapshot0B9_
FN:352,_RNCNvNtNtNtCs5HKDRulWIag_12nestgate_api4rest8handlers3zfs17get_dataset_stats0B9_
FN:800,_RNCNvNtNtNtCs5HKDRulWIag_12nestgate_api4rest8handlers3zfs22create_storage_backend0B9_
FN:299,_RNCNvNtNtNtCs5HKDRulWIag_12nestgate_api4rest8handlers3zfs22get_dataset_properties0B9_
FN:329,_RNCNvNtNtNtCs5HKDRulWIag_12nestgate_api4rest8handlers3zfs22set_dataset_properties0B9_
FN:714,_RNCNvNtNtNtCs5HKDRulWIag_12nestgate_api4rest8handlers3zfs37convert_engine_to_placeholder_dataset0B9_
FN:207,_RNvNtNtNtCs5HKDRulWIag_12nestgate_api4rest8handlers3zfs11get_dataset
FN:525,_RNvNtNtNtCs5HKDRulWIag_12nestgate_api4rest8handlers3zfs12get_snapshot
FN:32,_RNvNtNtNtCs5HKDRulWIag_12nestgate_api4rest8handlers3zfs13list_datasets
FN:616,_RNvNtNtNtCs5HKDRulWIag_12nestgate_api4rest8handlers3zfs14clone_snapshot
FN:98,_RNvNtNtNtCs5HKDRulWIag_12nestgate_api4rest8handlers3zfs14create_dataset
FN:271,_RNvNtNtNtCs5HKDRulWIag_12nestgate_api4rest8handlers3zfs14delete_dataset
FN:394,_RNvNtNtNtCs5HKDRulWIag_12nestgate_api4rest8handlers3zfs14list_snapshots
FN:236,_RNvNtNtNtCs5HKDRulWIag_12nestgate_api4rest8handlers3zfs14update_dataset
FN:472,_RNvNtNtNtCs5HKDRulWIag_12nestgate_api4rest8handlers3zfs15create_snapshot
FN:586,_RNvNtNtNtCs5HKDRulWIag_12nestgate_api4rest8handlers3zfs15delete_snapshot
FN:349,_RNvNtNtNtCs5HKDRulWIag_12nestgate_api4rest8handlers3zfs17get_dataset_stats
FN:795,_RNvNtNtNtCs5HKDRulWIag_12nestgate_api4rest8handlers3zfs22create_storage_backend
FN:296,_RNvNtNtNtCs5HKDRulWIag_12nestgate_api4rest8handlers3zfs22get_dataset_properties
FN:325,_RNvNtNtNtCs5HKDRulWIag_12nestgate_api4rest8handlers3zfs22set_dataset_properties
FN:771,_RNvNtNtNtCs5HKDRulWIag_12nestgate_api4rest8handlers3zfs27convert_engine_stats_to_api
FN:833,_RNvNtNtNtCs5HKDRulWIag_12nestgate_api4rest8handlers3zfs30get_snapshot_count_from_engine
FN:853,_RNvNtNtNtCs5HKDRulWIag_12nestgate_api4rest8handlers3zfs36calculate_file_operations_from_stats
FN:711,_RNvNtNtNtCs5HKDRulWIag_12nestgate_api4rest8handlers3zfs37convert_engine_to_placeholder_dataset
FN:818,_RNvXNtNtNtCs5HKDRulWIag_12nestgate_api4rest8handlers3zfsNtNtNtB6_6models5types18StorageBackendTypeNtNtCscmSb185pVu_5alloc6string8ToString9to_string
FNDA:0,_RNCNCNvNtNtNtCs5HKDRulWIag_12nestgate_api4rest8handlers3zfs13list_datasets00Bb_
FNDA:0,_RNCNCNvNtNtNtCs5HKDRulWIag_12nestgate_api4rest8handlers3zfs13list_datasets0s0_0Bb_
FNDA:0,_RNCNCNvNtNtNtCs5HKDRulWIag_12nestgate_api4rest8handlers3zfs13list_datasets0s1_0Bb_
FNDA:0,_RNCNCNvNtNtNtCs5HKDRulWIag_12nestgate_api4rest8handlers3zfs13list_datasets0s_0Bb_
FNDA:0,_RNCNCNvNtNtNtCs5HKDRulWIag_12nestgate_api4rest8handlers3zfs14list_snapshots00Bb_
FNDA:0,_RNCNvNtNtNtCs5HKDRulWIag_12nestgate_api4rest8handlers3zfs11get_dataset0B9_
FNDA:0,_RNCNvNtNtNtCs5HKDRulWIag_12nestgate_api4rest8handlers3zfs12get_snapshot0B9_
FNDA:0,_RNCNvNtNtNtCs5HKDRulWIag_12nestgate_api4rest8handlers3zfs13list_datasets0B9_
FNDA:0,_RNCNvNtNtNtCs5HKDRulWIag_12nestgate_api4rest8handlers3zfs14clone_snapshot0B9_
FNDA:0,_RNCNvNtNtNtCs5HKDRulWIag_12nestgate_api4rest8handlers3zfs14create_dataset0B9_
FNDA:0,_RNCNvNtNtNtCs5HKDRulWIag_12nestgate_api4rest8handlers3zfs14delete_dataset0B9_
FNDA:0,_RNCNvNtNtNtCs5HKDRulWIag_12nestgate_api4rest8handlers3zfs14list_snapshots0B9_
FNDA:0,_RNCNvNtNtNtCs5HKDRulWIag_12nestgate_api4rest8handlers3zfs14update_dataset0B9_
FNDA:0,_RNCNvNtNtNtCs5HKDRulWIag_12nestgate_api4rest8handlers3zfs15create_snapshot0B9_
FNDA:0,_RNCNvNtNtNtCs5HKDRulWIag_12nestgate_api4rest8handlers3zfs15delete_snapshot0B9_
FNDA:0,_RNCNvNtNtNtCs5HKDRulWIag_12nestgate_api4rest8handlers3zfs17get_dataset_stats0B9_
FNDA:0,_RNCNvNtNtNtCs5HKDRulWIag_12nestgate_api4rest8handlers3zfs22create_storage_backend0B9_
FNDA:0,_RNCNvNtNtNtCs5HKDRulWIag_12nestgate_api4rest8handlers3zfs22get_dataset_properties0B9_
FNDA:0,_RNCNvNtNtNtCs5HKDRulWIag_12nestgate_api4rest8handlers3zfs22set_dataset_properties0B9_
FNDA:0,_RNCNvNtNtNtCs5HKDRulWIag_12nestgate_api4rest8handlers3zfs37convert_engine_to_placeholder_dataset0B9_
FNDA:0,_RNvNtNtNtCs5HKDRulWIag_12nestgate_api4rest8handlers3zfs11get_dataset
FNDA:0,_RNvNtNtNtCs5HKDRulWIag_12nestgate_api4rest8handlers3zfs12get_snapshot
FNDA:0,_RNvNtNtNtCs5HKDRulWIag_12nestgate_api4rest8handlers3zfs13list_datasets
FNDA:0,_RNvNtNtNtCs5HKDRulWIag_12nestgate_api4rest8handlers3zfs14clone_snapshot
FNDA:0,_RNvNtNtNtCs5HKDRulWIag_12nestgate_api4rest8handlers3zfs14create_dataset
FNDA:0,_RNvNtNtNtCs5HKDRulWIag_12nestgate_api4rest8handlers3zfs14delete_dataset
FNDA:0,_RNvNtNtNtCs5HKDRulWIag_12nestgate_api4rest8handlers3zfs14list_snapshots
FNDA:0,_RNvNtNtNtCs5HKDRulWIag_12nestgate_api4rest8handlers3zfs14update_dataset
FNDA:0,_RNvNtNtNtCs5HKDRulWIag_12nestgate_api4rest8handlers3zfs15create_snapshot
FNDA:0,_RNvNtNtNtCs5HKDRulWIag_12nestgate_api4rest8handlers3zfs15delete_snapshot
FNDA:0,_RNvNtNtNtCs5HKDRulWIag_12nestgate_api4rest8handlers3zfs17get_dataset_stats
FNDA:0,_RNvNtNtNtCs5HKDRulWIag_12nestgate_api4rest8handlers3zfs22create_storage_backend
FNDA:0,_RNvNtNtNtCs5HKDRulWIag_12nestgate_api4rest8handlers3zfs22get_dataset_properties
FNDA:0,_RNvNtNtNtCs5HKDRulWIag_12nestgate_api4rest8handlers3zfs22set_dataset_properties
FNDA:0,_RNvNtNtNtCs5HKDRulWIag_12nestgate_api4rest8handlers3zfs27convert_engine_stats_to_api
FNDA:0,_RNvNtNtNtCs5HKDRulWIag_12nestgate_api4rest8handlers3zfs30get_snapshot_count_from_engine
FNDA:0,_RNvNtNtNtCs5HKDRulWIag_12nestgate_api4rest8handlers3zfs36calculate_file_operations_from_stats
FNDA:0,_RNvNtNtNtCs5HKDRulWIag_12nestgate_api4rest8handlers3zfs37convert_engine_to_placeholder_dataset
FNDA:0,_RNvXNtNtNtCs5HKDRulWIag_12nestgate_api4rest8handlers3zfsNtNtNtB6_6models5types18StorageBackendTypeNtNtCscmSb185pVu_5alloc6string8ToString9to_string
FNF:39
FNH:0
DA:32,0
DA:33,0
DA:34,0
DA:35,0
DA:36,0
DA:37,0
DA:38,0
DA:40,0
DA:41,0
DA:42,0
DA:43,0
DA:44,0
DA:45,0
DA:48,0
DA:54,0
DA:55,0
DA:56,0
DA:59,0
DA:60,0
DA:61,0
DA:62,0
DA:63,0
DA:64,0
DA:67,0
DA:68,0
DA:69,0
DA:70,0
DA:73,0
DA:74,0
DA:75,0
DA:77,0
DA:78,0
DA:79,0
DA:81,0
DA:82,0
DA:83,0
DA:84,0
DA:86,0
DA:88,0
DA:89,0
DA:90,0
DA:91,0
DA:92,0
DA:93,0
DA:94,0
DA:98,0
DA:99,0
DA:100,0
DA:101,0
DA:102,0
DA:104,0
DA:105,0
DA:106,0
DA:107,0
DA:108,0
DA:109,0
DA:113,0
DA:114,0
DA:115,0
DA:116,0
DA:117,0
DA:118,0
DA:119,0
DA:123,0
DA:124,0
DA:125,0
DA:126,0
DA:127,0
DA:128,0
DA:129,0
DA:130,0
DA:135,0
DA:136,0
DA:137,0
DA:138,0
DA:142,0
DA:143,0
DA:147,0
DA:148,0
DA:152,0
DA:153,0
DA:155,0
DA:157,0
DA:158,0
DA:162,0
DA:163,0
DA:165,0
DA:166,0
DA:167,0
DA:170,0
DA:171,0
DA:172,0
DA:173,0
DA:175,0
DA:177,0
DA:179,0
DA:181,0
DA:185,0
DA:186,0
DA:187,0
DA:189,0
DA:191,0
DA:192,0
DA:193,0
DA:194,0
DA:195,0
DA:196,0
DA:197,0
DA:201,0
DA:202,0
DA:203,0
DA:207,0
DA:208,0
DA:209,0
DA:210,0
DA:211,0
DA:212,0
DA:214,0
DA:215,0
DA:216,0
DA:217,0
DA:218,0
DA:219,0
DA:220,0
DA:221,0
DA:222,0
DA:223,0
DA:227,0
DA:228,0
DA:229,0
DA:230,0
DA:232,0
DA:236,0
DA:237,0
DA:238,0
DA:239,0
DA:240,0
DA:241,0
DA:242,0
DA:244,0
DA:245,0
DA:248,0
DA:249,0
DA:250,0
DA:251,0
DA:253,0
DA:254,0
DA:255,0
DA:256,0
DA:257,0
DA:258,0
DA:262,0
DA:263,0
DA:264,0
DA:265,0
DA:267,0
DA:271,0
DA:272,0
DA:273,0
DA:274,0
DA:275,0
DA:276,0
DA:278,0
DA:280,0
DA:281,0
DA:282,0
DA:283,0
DA:284,0
DA:285,0
DA:287,0
DA:288,0
DA:289,0
DA:290,0
DA:292,0
DA:296,0
DA:297,0
DA:298,0
DA:299,0
DA:300,0
DA:301,0
DA:303,0
DA:304,0
DA:305,0
DA:306,0
DA:307,0
DA:308,0
DA:309,0
DA:310,0
DA:311,0
DA:312,0
DA:316,0
DA:317,0
DA:318,0
DA:319,0
DA:321,0
DA:325,0
DA:326,0
DA:327,0
DA:328,0
DA:329,0
DA:330,0
DA:331,0
DA:333,0
DA:334,0
DA:337,0
DA:338,0
DA:340,0
DA:341,0
DA:342,0
DA:343,0
DA:345,0
DA:349,0
DA:350,0
DA:351,0
DA:352,0
DA:353,0
DA:354,0
DA:356,0
DA:357,0
DA:360,0
DA:361,0
DA:362,0
DA:363,0
DA:364,0
DA:365,0
DA:366,0
DA:367,0
DA:368,0
DA:369,0
DA:370,0
DA:371,0
DA:372,0
DA:373,0
DA:374,0
DA:375,0
DA:376,0
DA:377,0
DA:378,0
DA:379,0
DA:381,0
DA:382,0
DA:383,0
DA:384,0
DA:386,0
DA:394,0
DA:395,0
DA:396,0
DA:397,0
DA:398,0
DA:399,0
DA:400,0
DA:402,0
DA:403,0
DA:405,0
DA:406,0
DA:407,0
DA:408,0
DA:409,0
DA:410,0
DA:412,0
DA:413,0
DA:414,0
DA:415,0
DA:416,0
DA:417,0
DA:418,0
DA:419,0
DA:420,0
DA:421,0
DA:422,0
DA:423,0
DA:424,0
DA:425,0
DA:426,0
DA:429,0
DA:430,0
DA:431,0
DA:434,0
DA:435,0
DA:436,0
DA:438,0
DA:439,0
DA:440,0
DA:442,0
DA:443,0
DA:444,0
DA:447,0
DA:448,0
DA:449,0
DA:450,0
DA:451,0
DA:452,0
DA:454,0
DA:455,0
DA:456,0
DA:457,0
DA:458,0
DA:459,0
DA:463,0
DA:464,0
DA:465,0
DA:466,0
DA:468,0
DA:472,0
DA:473,0
DA:474,0
DA:475,0
DA:476,0
DA:477,0
DA:478,0
DA:481,0
DA:483,0
DA:484,0
DA:486,0
DA:487,0
DA:488,0
DA:489,0
DA:490,0
DA:491,0
DA:492,0
DA:493,0
DA:494,0
DA:495,0
DA:496,0
DA:497,0
DA:498,0
DA:499,0
DA:500,0
DA:501,0
DA:502,0
DA:504,0
DA:505,0
DA:507,0
DA:508,0
DA:509,0
DA:510,0
DA:511,0
DA:512,0
DA:516,0
DA:517,0
DA:518,0
DA:519,0
DA:521,0
DA:525,0
DA:526,0
DA:527,0
DA:528,0
DA:529,0
DA:530,0
DA:533,0
DA:535,0
DA:536,0
DA:538,0
DA:539,0
DA:540,0
DA:541,0
DA:542,0
DA:543,0
DA:544,0
DA:545,0
DA:546,0
DA:547,0
DA:548,0
DA:549,0
DA:550,0
DA:551,0
DA:552,0
DA:553,0
DA:554,0
DA:555,0
DA:556,0
DA:557,0
DA:559,0
DA:560,0
DA:563,0
DA:564,0
DA:565,0
DA:566,0
DA:568,0
DA:569,0
DA:570,0
DA:571,0
DA:572,0
DA:573,0
DA:577,0
DA:578,0
DA:579,0
DA:580,0
DA:582,0
DA:586,0
DA:587,0
DA:588,0
DA:589,0
DA:590,0
DA:591,0
DA:594,0
DA:596,0
DA:597,0
DA:599,0
DA:600,0
DA:601,0
DA:602,0
DA:603,0
DA:604,0
DA:605,0
DA:607,0
DA:608,0
DA:609,0
DA:610,0
DA:612,0
DA:616,0
DA:617,0
DA:618,0
DA:619,0
DA:620,0
DA:621,0
DA:622,0
DA:628,0
DA:629,0
DA:630,0
DA:631,0
DA:632,0
DA:633,0
DA:635,0
DA:636,0
DA:637,0
DA:638,0
DA:639,0
DA:640,0
DA:641,0
DA:642,0
DA:643,0
DA:644,0
DA:648,0
DA:649,0
DA:711,0
DA:712,0
DA:713,0
DA:714,0
DA:716,0
DA:717,0
DA:718,0
DA:719,0
DA:720,0
DA:721,0
DA:722,0
DA:723,0
DA:724,0
DA:725,0
DA:726,0
DA:727,0
DA:728,0
DA:729,0
DA:731,0
DA:732,0
DA:733,0
DA:734,0
DA:735,0
DA:736,0
DA:737,0
DA:738,0
DA:739,0
DA:740,0
DA:741,0
DA:742,0
DA:743,0
DA:744,0
DA:745,0
DA:746,0
DA:747,0
DA:748,0
DA:749,0
DA:751,0
DA:752,0
DA:753,0
DA:754,0
DA:755,0
DA:756,0
DA:757,0
DA:758,0
DA:759,0
DA:760,0
DA:761,0
DA:762,0
DA:763,0
DA:764,0
DA:765,0
DA:766,0
DA:767,0
DA:771,0
DA:772,0
DA:773,0
DA:774,0
DA:775,0
DA:776,0
DA:777,0
DA:778,0
DA:779,0
DA:780,0
DA:781,0
DA:782,0
DA:783,0
DA:784,0
DA:785,0
DA:786,0
DA:787,0
DA:788,0
DA:789,0
DA:790,0
DA:791,0
DA:792,0
DA:793,0
DA:795,0
DA:796,0
DA:797,0
DA:798,0
DA:799,0
DA:800,0
DA:801,0
DA:803,0
DA:804,0
DA:805,0
DA:806,0
DA:807,0
DA:809,0
DA:810,0
DA:811,0
DA:812,0
DA:813,0
DA:815,0
DA:818,0
DA:819,0
DA:820,0
DA:821,0
DA:822,0
DA:823,0
DA:824,0
DA:825,0
DA:826,0
DA:827,0
DA:829,0
DA:833,0
DA:839,0
DA:840,0
DA:841,0
DA:842,0
DA:843,0
DA:844,0
DA:845,0
DA:848,0
DA:849,0
DA:853,0
DA:854,0
DA:855,0
DA:856,0
DA:857,0
DA:858,0
DA:860,0
DA:862,0
DA:864,0
DA:866,0
DA:868,0
BRF:0
BRH:0
LF:582
LH:0
end_of_record
SF:/home/eastgate/Development/ecoPrimals/nestgate/code/crates/nestgate-api/src/rest/mod.rs
FN:107,_RNCNCNvMNtCs5HKDRulWIag_12nestgate_api4restNtB6_8ApiState20init_rpc_connections00B8_
FN:319,_RNCNCNvNtCs5HKDRulWIag_12nestgate_api4rest17handle_rpc_stream00B7_
FN:83,_RNCNvMNtCs5HKDRulWIag_12nestgate_api4restNtB4_8ApiState20init_rpc_connections0B6_
FN:288,_RNCNvNtCs5HKDRulWIag_12nestgate_api4rest15handle_rpc_call0B5_
FN:348,_RNCNvNtCs5HKDRulWIag_12nestgate_api4rest17handle_rpc_health0B5_
FN:311,_RNCNvNtCs5HKDRulWIag_12nestgate_api4rest17handle_rpc_stream0B5_
FN:128,_RNvMNtCs5HKDRulWIag_12nestgate_api4restNtB2_8ApiState15get_rpc_manager
FN:83,_RNvMNtCs5HKDRulWIag_12nestgate_api4restNtB2_8ApiState20init_rpc_connections
FN:64,_RNvMNtCs5HKDRulWIag_12nestgate_api4restNtB2_8ApiState3new
FN:194,_RNvMs0_NtCs5HKDRulWIag_12nestgate_api4restNtB5_9DataError3new
FN:146,_RNvMs_NtCs5HKDRulWIag_12nestgate_api4restINtB4_12DataResponsepE3newB6_
FN:155,_RNvMs_NtCs5HKDRulWIag_12nestgate_api4restINtB4_12DataResponsepE9paginatedB6_
FN:285,_RNvNtCs5HKDRulWIag_12nestgate_api4rest15handle_rpc_call
FN:218,_RNvNtCs5HKDRulWIag_12nestgate_api4rest17create_api_router
FN:346,_RNvNtCs5HKDRulWIag_12nestgate_api4rest17handle_rpc_health
FN:308,_RNvNtCs5HKDRulWIag_12nestgate_api4rest17handle_rpc_stream
FNDA:0,_RNCNCNvMNtCs5HKDRulWIag_12nestgate_api4restNtB6_8ApiState20init_rpc_connections00B8_
FNDA:0,_RNCNCNvNtCs5HKDRulWIag_12nestgate_api4rest17handle_rpc_stream00B7_
FNDA:0,_RNCNvMNtCs5HKDRulWIag_12nestgate_api4restNtB4_8ApiState20init_rpc_connections0B6_
FNDA:0,_RNCNvNtCs5HKDRulWIag_12nestgate_api4rest15handle_rpc_call0B5_
FNDA:0,_RNCNvNtCs5HKDRulWIag_12nestgate_api4rest17handle_rpc_health0B5_
FNDA:0,_RNCNvNtCs5HKDRulWIag_12nestgate_api4rest17handle_rpc_stream0B5_
FNDA:0,_RNvMNtCs5HKDRulWIag_12nestgate_api4restNtB2_8ApiState15get_rpc_manager
FNDA:0,_RNvMNtCs5HKDRulWIag_12nestgate_api4restNtB2_8ApiState20init_rpc_connections
FNDA:0,_RNvMNtCs5HKDRulWIag_12nestgate_api4restNtB2_8ApiState3new
FNDA:0,_RNvMs0_NtCs5HKDRulWIag_12nestgate_api4restNtB5_9DataError3new
FNDA:0,_RNvMs_NtCs5HKDRulWIag_12nestgate_api4restINtB4_12DataResponsepE3newB6_
FNDA:0,_RNvMs_NtCs5HKDRulWIag_12nestgate_api4restINtB4_12DataResponsepE9paginatedB6_
FNDA:0,_RNvNtCs5HKDRulWIag_12nestgate_api4rest15handle_rpc_call
FNDA:0,_RNvNtCs5HKDRulWIag_12nestgate_api4rest17create_api_router
FNDA:0,_RNvNtCs5HKDRulWIag_12nestgate_api4rest17handle_rpc_health
FNDA:0,_RNvNtCs5HKDRulWIag_12nestgate_api4rest17handle_rpc_stream
FNF:16
FNH:0
DA:64,0
DA:65,0
DA:67,0
DA:68,0
DA:69,0
DA:70,0
DA:71,0
DA:72,0
DA:73,0
DA:83,0
DA:84,0
DA:86,0
DA:87,0
DA:93,0
DA:94,0
DA:95,0
DA:96,0
DA:100,0
DA:102,0
DA:106,0
DA:107,0
DA:108,0
DA:109,0
DA:111,0
DA:112,0
DA:117,0
DA:119,0
DA:120,0
DA:121,0
DA:123,0
DA:124,0
DA:128,0
DA:129,0
DA:130,0
DA:146,0
DA:147,0
DA:148,0
DA:149,0
DA:150,0
DA:151,0
DA:152,0
DA:155,0
DA:156,0
DA:157,0
DA:158,0
DA:159,0
DA:160,0
DA:161,0
DA:162,0
DA:163,0
DA:164,0
DA:165,0
DA:166,0
DA:194,0
DA:195,0
DA:196,0
DA:197,0
DA:198,0
DA:199,0
DA:200,0
DA:218,0
DA:220,0
DA:221,0
DA:222,0
DA:223,0
DA:225,0
DA:226,0
DA:227,0
DA:228,0
DA:229,0
DA:231,0
DA:232,0
DA:233,0
DA:235,0
DA:236,0
DA:237,0
DA:238,0
DA:240,0
DA:241,0
DA:242,0
DA:244,0
DA:245,0
DA:246,0
DA:250,0
DA:253,0
DA:254,0
DA:255,0
DA:256,0
DA:259,0
DA:260,0
DA:261,0
DA:262,0
DA:265,0
DA:266,0
DA:267,0
DA:268,0
DA:271,0
DA:272,0
DA:273,0
DA:274,0
DA:275,0
DA:277,0
DA:278,0
DA:279,0
DA:280,0
DA:281,0
DA:282,0
DA:285,0
DA:286,0
DA:287,0
DA:288,0
DA:289,0
DA:290,0
DA:291,0
DA:292,0
DA:293,0
DA:294,0
DA:295,0
DA:296,0
DA:297,0
DA:300,0
DA:301,0
DA:302,0
DA:303,0
DA:305,0
DA:308,0
DA:309,0
DA:310,0
DA:311,0
DA:312,0
DA:313,0
DA:314,0
DA:315,0
DA:316,0
DA:319,0
DA:320,0
DA:321,0
DA:324,0
DA:326,0
DA:327,0
DA:328,0
DA:329,0
DA:330,0
DA:332,0
DA:333,0
DA:334,0
DA:335,0
DA:338,0
DA:339,0
DA:340,0
DA:341,0
DA:343,0
DA:346,0
DA:347,0
DA:348,0
DA:349,0
DA:350,0
DA:351,0
DA:352,0
DA:353,0
DA:354,0
DA:355,0
DA:357,0
DA:358,0
DA:359,0
DA:360,0
DA:362,0
BRF:0
BRH:0
LF:173
LH:0
end_of_record
SF:/home/eastgate/Development/ecoPrimals/nestgate/code/crates/nestgate-api/src/rest/models/mod.rs
FN:98,_RNvMNtNtCs5HKDRulWIag_12nestgate_api4rest6modelsINtB2_11ApiResponsepE5errorB6_
FN:87,_RNvMNtNtCs5HKDRulWIag_12nestgate_api4rest6modelsINtB2_11ApiResponsepE7successB6_
FNDA:0,_RNvMNtNtCs5HKDRulWIag_12nestgate_api4rest6modelsINtB2_11ApiResponsepE5errorB6_
FNDA:0,_RNvMNtNtCs5HKDRulWIag_12nestgate_api4rest6modelsINtB2_11ApiResponsepE7successB6_
FNF:2
FNH:0
DA:87,0
DA:88,0
DA:89,0
DA:90,0
DA:91,0
DA:92,0
DA:93,0
DA:94,0
DA:98,0
DA:99,0
DA:100,0
DA:101,0
DA:102,0
DA:103,0
DA:104,0
DA:105,0
BRF:0
BRH:0
LF:16
LH:0
end_of_record
SF:/home/eastgate/Development/ecoPrimals/nestgate/code/crates/nestgate-api/src/rest/models/validation.rs
FN:6,_RINvNtNtNtCs5HKDRulWIag_12nestgate_api4rest6models10validation21validate_dataset_namepEB8_
FN:71,_RINvNtNtNtCs5HKDRulWIag_12nestgate_api4rest6models10validation21validate_positive_f64pEB8_
FN:93,_RINvNtNtNtCs5HKDRulWIag_12nestgate_api4rest6models10validation21validate_positive_u64pEB8_
FN:37,_RINvNtNtNtCs5HKDRulWIag_12nestgate_api4rest6models10validation22validate_snapshot_namepEB8_
FN:27,_RNCINvNtNtNtCs5HKDRulWIag_12nestgate_api4rest6models10validation21validate_dataset_namepE0Ba_
FN:53,_RNCINvNtNtNtCs5HKDRulWIag_12nestgate_api4rest6models10validation22validate_snapshot_namepE0Ba_
FNDA:0,_RINvNtNtNtCs5HKDRulWIag_12nestgate_api4rest6models10validation21validate_dataset_namepEB8_
FNDA:0,_RINvNtNtNtCs5HKDRulWIag_12nestgate_api4rest6models10validation21validate_positive_f64pEB8_
FNDA:0,_RINvNtNtNtCs5HKDRulWIag_12nestgate_api4rest6models10validation21validate_positive_u64pEB8_
FNDA:0,_RINvNtNtNtCs5HKDRulWIag_12nestgate_api4rest6models10validation22validate_snapshot_namepEB8_
FNDA:0,_RNCINvNtNtNtCs5HKDRulWIag_12nestgate_api4rest6models10validation21validate_dataset_namepE0Ba_
FNDA:0,_RNCINvNtNtNtCs5HKDRulWIag_12nestgate_api4rest6models10validation22validate_snapshot_namepE0Ba_
FNF:6
FNH:0
DA:6,0
DA:7,0
DA:8,0
DA:10,0
DA:13,0
DA:14,0
DA:15,0
DA:16,0
DA:17,0
DA:20,0
DA:21,0
DA:22,0
DA:23,0
DA:24,0
DA:27,0
DA:28,0
DA:29,0
DA:30,0
DA:31,0
DA:33,0
DA:34,0
DA:37,0
DA:38,0
DA:39,0
DA:41,0
DA:44,0
DA:45,0
DA:46,0
DA:47,0
DA:48,0
DA:51,0
DA:52,0
DA:53,0
DA:55,0
DA:56,0
DA:57,0
DA:58,0
DA:61,0
DA:62,0
DA:63,0
DA:64,0
DA:65,0
DA:67,0
DA:68,0
DA:71,0
DA:72,0
DA:73,0
DA:75,0
DA:77,0
DA:78,0
DA:79,0
DA:80,0
DA:81,0
DA:83,0
DA:84,0
DA:85,0
DA:86,0
DA:87,0
DA:89,0
DA:90,0
DA:93,0
DA:94,0
DA:95,0
DA:97,0
DA:99,0
DA:100,0
DA:101,0
DA:102,0
DA:103,0
DA:105,0
DA:106,0
BRF:0
BRH:0
LF:73
LH:0
end_of_record
SF:/home/eastgate/Development/ecoPrimals/nestgate/code/crates/nestgate-api/src/rest/rpc/bidirectional_streams.rs
FN:153,_RNCNCNvMs_NtNtNtCs5HKDRulWIag_12nestgate_api4rest3rpc21bidirectional_streamsNtB8_26BidirectionalStreamManager23get_active_streams_info00Be_
FN:243,_RNCNCNvMs_NtNtNtCs5HKDRulWIag_12nestgate_api4rest3rpc21bidirectional_streamsNtB8_26BidirectionalStreamManager23start_zfs_events_stream00Be_
FN:343,_RNCNCNvMs_NtNtNtCs5HKDRulWIag_12nestgate_api4rest3rpc21bidirectional_streamsNtB8_26BidirectionalStreamManager24start_system_logs_stream00Be_
FN:292,_RNCNCNvMs_NtNtNtCs5HKDRulWIag_12nestgate_api4rest3rpc21bidirectional_streamsNtB8_26BidirectionalStreamManager27start_storage_events_stream00Be_
FN:399,_RNCNCNvMs_NtNtNtCs5HKDRulWIag_12nestgate_api4rest3rpc21bidirectional_streamsNtB8_26BidirectionalStreamManager29start_performance_data_stream00Be_
FN:200,_RNCNCNvMs_NtNtNtCs5HKDRulWIag_12nestgate_api4rest3rpc21bidirectional_streamsNtB8_26BidirectionalStreamManager29start_realtime_metrics_stream00Be_
FN:125,_RNCNvMs_NtNtNtCs5HKDRulWIag_12nestgate_api4rest3rpc21bidirectional_streamsNtB6_26BidirectionalStreamManager12close_stream0Bc_
FN:141,_RNCNvMs_NtNtNtCs5HKDRulWIag_12nestgate_api4rest3rpc21bidirectional_streamsNtB6_26BidirectionalStreamManager23get_active_stream_count0Bc_
FN:149,_RNCNvMs_NtNtNtCs5HKDRulWIag_12nestgate_api4rest3rpc21bidirectional_streamsNtB6_26BidirectionalStreamManager23get_active_streams_info0Bc_
FN:43,_RNCNvMs_NtNtNtCs5HKDRulWIag_12nestgate_api4rest3rpc21bidirectional_streamsNtB6_26BidirectionalStreamManager23set_global_event_sender0Bc_
FN:242,_RNCNvMs_NtNtNtCs5HKDRulWIag_12nestgate_api4rest3rpc21bidirectional_streamsNtB6_26BidirectionalStreamManager23start_zfs_events_stream0Bc_
FN:171,_RNCNvMs_NtNtNtCs5HKDRulWIag_12nestgate_api4rest3rpc21bidirectional_streamsNtB6_26BidirectionalStreamManager24broadcast_to_all_streams0Bc_
FN:342,_RNCNvMs_NtNtNtCs5HKDRulWIag_12nestgate_api4rest3rpc21bidirectional_streamsNtB6_26BidirectionalStreamManager24start_system_logs_stream0Bc_
FN:59,_RNCNvMs_NtNtNtCs5HKDRulWIag_12nestgate_api4rest3rpc21bidirectional_streamsNtB6_26BidirectionalStreamManager27create_bidirectional_stream0Bc_
FN:291,_RNCNvMs_NtNtNtCs5HKDRulWIag_12nestgate_api4rest3rpc21bidirectional_streamsNtB6_26BidirectionalStreamManager27start_storage_events_stream0Bc_
FN:398,_RNCNvMs_NtNtNtCs5HKDRulWIag_12nestgate_api4rest3rpc21bidirectional_streamsNtB6_26BidirectionalStreamManager29start_performance_data_stream0Bc_
FN:199,_RNCNvMs_NtNtNtCs5HKDRulWIag_12nestgate_api4rest3rpc21bidirectional_streamsNtB6_26BidirectionalStreamManager29start_realtime_metrics_stream0Bc_
FN:125,_RNvMs_NtNtNtCs5HKDRulWIag_12nestgate_api4rest3rpc21bidirectional_streamsNtB4_26BidirectionalStreamManager12close_stream
FN:141,_RNvMs_NtNtNtCs5HKDRulWIag_12nestgate_api4rest3rpc21bidirectional_streamsNtB4_26BidirectionalStreamManager23get_active_stream_count
FN:147,_RNvMs_NtNtNtCs5HKDRulWIag_12nestgate_api4rest3rpc21bidirectional_streamsNtB4_26BidirectionalStreamManager23get_active_streams_info
FN:43,_RNvMs_NtNtNtCs5HKDRulWIag_12nestgate_api4rest3rpc21bidirectional_streamsNtB4_26BidirectionalStreamManager23set_global_event_sender
FN:238,_RNvMs_NtNtNtCs5HKDRulWIag_12nestgate_api4rest3rpc21bidirectional_streamsNtB4_26BidirectionalStreamManager23start_zfs_events_stream
FN:171,_RNvMs_NtNtNtCs5HKDRulWIag_12nestgate_api4rest3rpc21bidirectional_streamsNtB4_26BidirectionalStreamManager24broadcast_to_all_streams
FN:338,_RNvMs_NtNtNtCs5HKDRulWIag_12nestgate_api4rest3rpc21bidirectional_streamsNtB4_26BidirectionalStreamManager24start_system_logs_stream
FN:56,_RNvMs_NtNtNtCs5HKDRulWIag_12nestgate_api4rest3rpc21bidirectional_streamsNtB4_26BidirectionalStreamManager27create_bidirectional_stream
FN:287,_RNvMs_NtNtNtCs5HKDRulWIag_12nestgate_api4rest3rpc21bidirectional_streamsNtB4_26BidirectionalStreamManager27start_storage_events_stream
FN:394,_RNvMs_NtNtNtCs5HKDRulWIag_12nestgate_api4rest3rpc21bidirectional_streamsNtB4_26BidirectionalStreamManager29start_performance_data_stream
FN:195,_RNvMs_NtNtNtCs5HKDRulWIag_12nestgate_api4rest3rpc21bidirectional_streamsNtB4_26BidirectionalStreamManager29start_realtime_metrics_stream
FN:35,_RNvMs_NtNtNtCs5HKDRulWIag_12nestgate_api4rest3rpc21bidirectional_streamsNtB4_26BidirectionalStreamManager3new
FN:27,_RNvXNtNtNtCs5HKDRulWIag_12nestgate_api4rest3rpc21bidirectional_streamsNtB2_26BidirectionalStreamManagerNtNtCs5GmCzIpY9Qj_4core7default7Default7default
FNDA:0,_RNCNCNvMs_NtNtNtCs5HKDRulWIag_12nestgate_api4rest3rpc21bidirectional_streamsNtB8_26BidirectionalStreamManager23get_active_streams_info00Be_
FNDA:0,_RNCNCNvMs_NtNtNtCs5HKDRulWIag_12nestgate_api4rest3rpc21bidirectional_streamsNtB8_26BidirectionalStreamManager23start_zfs_events_stream00Be_
FNDA:0,_RNCNCNvMs_NtNtNtCs5HKDRulWIag_12nestgate_api4rest3rpc21bidirectional_streamsNtB8_26BidirectionalStreamManager24start_system_logs_stream00Be_
FNDA:0,_RNCNCNvMs_NtNtNtCs5HKDRulWIag_12nestgate_api4rest3rpc21bidirectional_streamsNtB8_26BidirectionalStreamManager27start_storage_events_stream00Be_
FNDA:0,_RNCNCNvMs_NtNtNtCs5HKDRulWIag_12nestgate_api4rest3rpc21bidirectional_streamsNtB8_26BidirectionalStreamManager29start_performance_data_stream00Be_
FNDA:0,_RNCNCNvMs_NtNtNtCs5HKDRulWIag_12nestgate_api4rest3rpc21bidirectional_streamsNtB8_26BidirectionalStreamManager29start_realtime_metrics_stream00Be_
FNDA:0,_RNCNvMs_NtNtNtCs5HKDRulWIag_12nestgate_api4rest3rpc21bidirectional_streamsNtB6_26BidirectionalStreamManager12close_stream0Bc_
FNDA:0,_RNCNvMs_NtNtNtCs5HKDRulWIag_12nestgate_api4rest3rpc21bidirectional_streamsNtB6_26BidirectionalStreamManager23get_active_stream_count0Bc_
FNDA:0,_RNCNvMs_NtNtNtCs5HKDRulWIag_12nestgate_api4rest3rpc21bidirectional_streamsNtB6_26BidirectionalStreamManager23get_active_streams_info0Bc_
FNDA:0,_RNCNvMs_NtNtNtCs5HKDRulWIag_12nestgate_api4rest3rpc21bidirectional_streamsNtB6_26BidirectionalStreamManager23set_global_event_sender0Bc_
FNDA:0,_RNCNvMs_NtNtNtCs5HKDRulWIag_12nestgate_api4rest3rpc21bidirectional_streamsNtB6_26BidirectionalStreamManager23start_zfs_events_stream0Bc_
FNDA:0,_RNCNvMs_NtNtNtCs5HKDRulWIag_12nestgate_api4rest3rpc21bidirectional_streamsNtB6_26BidirectionalStreamManager24broadcast_to_all_streams0Bc_
FNDA:0,_RNCNvMs_NtNtNtCs5HKDRulWIag_12nestgate_api4rest3rpc21bidirectional_streamsNtB6_26BidirectionalStreamManager24start_system_logs_stream0Bc_
FNDA:0,_RNCNvMs_NtNtNtCs5HKDRulWIag_12nestgate_api4rest3rpc21bidirectional_streamsNtB6_26BidirectionalStreamManager27create_bidirectional_stream0Bc_
FNDA:0,_RNCNvMs_NtNtNtCs5HKDRulWIag_12nestgate_api4rest3rpc21bidirectional_streamsNtB6_26BidirectionalStreamManager27start_storage_events_stream0Bc_
FNDA:0,_RNCNvMs_NtNtNtCs5HKDRulWIag_12nestgate_api4rest3rpc21bidirectional_streamsNtB6_26BidirectionalStreamManager29start_performance_data_stream0Bc_
FNDA:0,_RNCNvMs_NtNtNtCs5HKDRulWIag_12nestgate_api4rest3rpc21bidirectional_streamsNtB6_26BidirectionalStreamManager29start_realtime_metrics_stream0Bc_
FNDA:0,_RNvMs_NtNtNtCs5HKDRulWIag_12nestgate_api4rest3rpc21bidirectional_streamsNtB4_26BidirectionalStreamManager12close_stream
FNDA:0,_RNvMs_NtNtNtCs5HKDRulWIag_12nestgate_api4rest3rpc21bidirectional_streamsNtB4_26BidirectionalStreamManager23get_active_stream_count
FNDA:0,_RNvMs_NtNtNtCs5HKDRulWIag_12nestgate_api4rest3rpc21bidirectional_streamsNtB4_26BidirectionalStreamManager23get_active_streams_info
FNDA:0,_RNvMs_NtNtNtCs5HKDRulWIag_12nestgate_api4rest3rpc21bidirectional_streamsNtB4_26BidirectionalStreamManager23set_global_event_sender
FNDA:0,_RNvMs_NtNtNtCs5HKDRulWIag_12nestgate_api4rest3rpc21bidirectional_streamsNtB4_26BidirectionalStreamManager23start_zfs_events_stream
FNDA:0,_RNvMs_NtNtNtCs5HKDRulWIag_12nestgate_api4rest3rpc21bidirectional_streamsNtB4_26BidirectionalStreamManager24broadcast_to_all_streams
FNDA:0,_RNvMs_NtNtNtCs5HKDRulWIag_12nestgate_api4rest3rpc21bidirectional_streamsNtB4_26BidirectionalStreamManager24start_system_logs_stream
FNDA:0,_RNvMs_NtNtNtCs5HKDRulWIag_12nestgate_api4rest3rpc21bidirectional_streamsNtB4_26BidirectionalStreamManager27create_bidirectional_stream
FNDA:0,_RNvMs_NtNtNtCs5HKDRulWIag_12nestgate_api4rest3rpc21bidirectional_streamsNtB4_26BidirectionalStreamManager27start_storage_events_stream
FNDA:0,_RNvMs_NtNtNtCs5HKDRulWIag_12nestgate_api4rest3rpc21bidirectional_streamsNtB4_26BidirectionalStreamManager29start_performance_data_stream
FNDA:0,_RNvMs_NtNtNtCs5HKDRulWIag_12nestgate_api4rest3rpc21bidirectional_streamsNtB4_26BidirectionalStreamManager29start_realtime_metrics_stream
FNDA:0,_RNvMs_NtNtNtCs5HKDRulWIag_12nestgate_api4rest3rpc21bidirectional_streamsNtB4_26BidirectionalStreamManager3new
FNDA:0,_RNvXNtNtNtCs5HKDRulWIag_12nestgate_api4rest3rpc21bidirectional_streamsNtB2_26BidirectionalStreamManagerNtNtCs5GmCzIpY9Qj_4core7default7Default7default
FNF:30
FNH:0
DA:27,0
DA:28,0
DA:29,0
DA:35,0
DA:36,0
DA:37,0
DA:38,0
DA:39,0
DA:40,0
DA:43,0
DA:44,0
DA:45,0
DA:46,0
DA:56,0
DA:57,0
DA:58,0
DA:59,0
DA:60,0
DA:61,0
DA:62,0
DA:65,0
DA:66,0
DA:67,0
DA:68,0
DA:69,0
DA:70,0
DA:74,0
DA:75,0
DA:79,0
DA:80,0
DA:81,0
DA:82,0
DA:84,0
DA:85,0
DA:87,0
DA:88,0
DA:89,0
DA:91,0
DA:92,0
DA:93,0
DA:95,0
DA:96,0
DA:97,0
DA:101,0
DA:102,0
DA:103,0
DA:104,0
DA:105,0
DA:106,0
DA:110,0
DA:111,0
DA:114,0
DA:115,0
DA:125,0
DA:126,0
DA:127,0
DA:128,0
DA:129,0
DA:132,0
DA:134,0
DA:135,0
DA:136,0
DA:138,0
DA:141,0
DA:142,0
DA:143,0
DA:144,0
DA:147,0
DA:148,0
DA:149,0
DA:150,0
DA:151,0
DA:152,0
DA:153,0
DA:154,0
DA:155,0
DA:156,0
DA:157,0
DA:158,0
DA:159,0
DA:160,0
DA:161,0
DA:171,0
DA:172,0
DA:173,0
DA:175,0
DA:176,0
DA:177,0
DA:178,0
DA:182,0
DA:183,0
DA:184,0
DA:185,0
DA:186,0
DA:187,0
DA:189,0
DA:191,0
DA:192,0
DA:195,0
DA:196,0
DA:197,0
DA:198,0
DA:199,0
DA:200,0
DA:201,0
DA:202,0
DA:205,0
DA:206,0
DA:208,0
DA:209,0
DA:210,0
DA:211,0
DA:212,0
DA:213,0
DA:214,0
DA:215,0
DA:216,0
DA:217,0
DA:218,0
DA:219,0
DA:220,0
DA:221,0
DA:222,0
DA:223,0
DA:224,0
DA:225,0
DA:227,0
DA:228,0
DA:229,0
DA:230,0
DA:232,0
DA:234,0
DA:235,0
DA:238,0
DA:239,0
DA:240,0
DA:241,0
DA:242,0
DA:243,0
DA:244,0
DA:245,0
DA:248,0
DA:249,0
DA:251,0
DA:252,0
DA:253,0
DA:254,0
DA:255,0
DA:256,0
DA:257,0
DA:259,0
DA:260,0
DA:261,0
DA:262,0
DA:263,0
DA:264,0
DA:265,0
DA:266,0
DA:267,0
DA:268,0
DA:269,0
DA:270,0
DA:271,0
DA:272,0
DA:273,0
DA:274,0
DA:276,0
DA:277,0
DA:278,0
DA:279,0
DA:281,0
DA:283,0
DA:284,0
DA:287,0
DA:288,0
DA:289,0
DA:290,0
DA:291,0
DA:292,0
DA:293,0
DA:294,0
DA:297,0
DA:298,0
DA:300,0
DA:301,0
DA:302,0
DA:303,0
DA:304,0
DA:305,0
DA:306,0
DA:307,0
DA:308,0
DA:310,0
DA:311,0
DA:312,0
DA:313,0
DA:314,0
DA:315,0
DA:316,0
DA:317,0
DA:318,0
DA:319,0
DA:320,0
DA:321,0
DA:322,0
DA:323,0
DA:324,0
DA:325,0
DA:327,0
DA:328,0
DA:329,0
DA:330,0
DA:332,0
DA:334,0
DA:335,0
DA:338,0
DA:339,0
DA:340,0
DA:341,0
DA:342,0
DA:343,0
DA:344,0
DA:345,0
DA:348,0
DA:349,0
DA:351,0
DA:352,0
DA:353,0
DA:354,0
DA:355,0
DA:356,0
DA:357,0
DA:358,0
DA:359,0
DA:360,0
DA:361,0
DA:362,0
DA:363,0
DA:364,0
DA:365,0
DA:366,0
DA:367,0
DA:369,0
DA:370,0
DA:371,0
DA:372,0
DA:373,0
DA:374,0
DA:375,0
DA:376,0
DA:377,0
DA:378,0
DA:379,0
DA:380,0
DA:381,0
DA:383,0
DA:384,0
DA:385,0
DA:386,0
DA:388,0
DA:390,0
DA:391,0
DA:394,0
DA:395,0
DA:396,0
DA:397,0
DA:398,0
DA:399,0
DA:400,0
DA:401,0
DA:404,0
DA:405,0
DA:407,0
DA:408,0
DA:409,0
DA:410,0
DA:411,0
DA:412,0
DA:413,0
DA:414,0
DA:415,0
DA:416,0
DA:417,0
DA:418,0
DA:419,0
DA:420,0
DA:421,0
DA:422,0
DA:423,0
DA:424,0
DA:425,0
DA:426,0
DA:427,0
DA:428,0
DA:429,0
DA:431,0
DA:432,0
DA:433,0
DA:434,0
DA:436,0
DA:438,0
DA:439,0
BRF:0
BRH:0
LF:319
LH:0
end_of_record
SF:/home/eastgate/Development/ecoPrimals/nestgate/code/crates/nestgate-api/src/rest/rpc/config.rs
FN:200,_RNvMs_NtNtNtCs5HKDRulWIag_12nestgate_api4rest3rpc6configNtB4_18CanonicalRpcConfig11from_legacy
FN:225,_RNvMs_NtNtNtCs5HKDRulWIag_12nestgate_api4rest3rpc6configNtB4_18CanonicalRpcConfig7network
FN:231,_RNvMs_NtNtNtCs5HKDRulWIag_12nestgate_api4rest3rpc6configNtB4_18CanonicalRpcConfig8security
FN:142,_RNvXNtNtNtCs5HKDRulWIag_12nestgate_api4rest3rpc6configNtB2_17NestGateRpcConfigNtNtCs5GmCzIpY9Qj_4core7default7Default7default
FNDA:0,_RNvMs_NtNtNtCs5HKDRulWIag_12nestgate_api4rest3rpc6configNtB4_18CanonicalRpcConfig11from_legacy
FNDA:0,_RNvMs_NtNtNtCs5HKDRulWIag_12nestgate_api4rest3rpc6configNtB4_18CanonicalRpcConfig7network
FNDA:0,_RNvMs_NtNtNtCs5HKDRulWIag_12nestgate_api4rest3rpc6configNtB4_18CanonicalRpcConfig8security
FNDA:2,_RNvXNtNtNtCs5HKDRulWIag_12nestgate_api4rest3rpc6configNtB2_17NestGateRpcConfigNtNtCs5GmCzIpY9Qj_4core7default7Default7default
FNF:4
FNH:1
DA:142,2
DA:143,2
DA:144,2
DA:145,2
DA:146,2
DA:147,2
DA:148,2
DA:149,2
DA:150,2
DA:151,2
DA:152,2
DA:153,2
DA:154,2
DA:155,2
DA:156,2
DA:157,2
DA:158,2
DA:159,2
DA:160,2
DA:161,2
DA:162,2
DA:163,2
DA:164,2
DA:165,2
DA:166,2
DA:167,2
DA:168,2
DA:169,2
DA:170,2
DA:171,2
DA:172,2
DA:173,2
DA:174,2
DA:175,2
DA:176,2
DA:177,2
DA:178,2
DA:179,2
DA:180,2
DA:181,2
DA:182,2
DA:183,2
DA:184,2
DA:185,2
DA:186,2
DA:187,2
DA:188,2
DA:189,2
DA:190,2
DA:191,2
DA:192,2
DA:200,0
DA:201,0
DA:205,0
DA:206,0
DA:207,0
DA:208,0
DA:209,0
DA:210,0
DA:211,0
DA:214,0
DA:215,0
DA:216,0
DA:217,0
DA:218,0
DA:220,0
DA:221,0
DA:225,0
DA:226,0
DA:227,0
DA:231,0
DA:232,0
DA:233,0
BRF:0
BRH:0
LF:73
LH:51
end_of_record
SF:/home/eastgate/Development/ecoPrimals/nestgate/code/crates/nestgate-api/src/rest/rpc/json_rpc_service.rs
FN:170,_RNCNvXs_NtNtNtCs5HKDRulWIag_12nestgate_api4rest3rpc16json_rpc_serviceNtB6_14JsonRpcServiceNtNtB8_5types17UnifiedRpcService12health_check0Bc_
FN:147,_RNCNvXs_NtNtNtCs5HKDRulWIag_12nestgate_api4rest3rpc16json_rpc_serviceNtB6_14JsonRpcServiceNtNtB8_5types17UnifiedRpcService12start_stream0Bc_
FN:114,_RNCNvXs_NtNtNtCs5HKDRulWIag_12nestgate_api4rest3rpc16json_rpc_serviceNtB6_14JsonRpcServiceNtNtB8_5types17UnifiedRpcService4call0Bc_
FN:72,_RNvMNtNtNtCs5HKDRulWIag_12nestgate_api4rest3rpc16json_rpc_serviceNtB2_14JsonRpcService10disconnect
FN:93,_RNvMNtNtNtCs5HKDRulWIag_12nestgate_api4rest3rpc16json_rpc_serviceNtB2_14JsonRpcService12send_request
FN:80,_RNvMNtNtNtCs5HKDRulWIag_12nestgate_api4rest3rpc16json_rpc_serviceNtB2_14JsonRpcService23check_connection_status
FN:60,_RNvMNtNtNtCs5HKDRulWIag_12nestgate_api4rest3rpc16json_rpc_serviceNtB2_14JsonRpcService3new
FN:107,_RNvMNtNtNtCs5HKDRulWIag_12nestgate_api4rest3rpc16json_rpc_serviceNtB2_14JsonRpcService9subscribe
FN:170,_RNvXs_NtNtNtCs5HKDRulWIag_12nestgate_api4rest3rpc16json_rpc_serviceNtB4_14JsonRpcServiceNtNtB6_5types17UnifiedRpcService12health_check
FN:144,_RNvXs_NtNtNtCs5HKDRulWIag_12nestgate_api4rest3rpc16json_rpc_serviceNtB4_14JsonRpcServiceNtNtB6_5types17UnifiedRpcService12start_stream
FN:166,_RNvXs_NtNtNtCs5HKDRulWIag_12nestgate_api4rest3rpc16json_rpc_serviceNtB4_14JsonRpcServiceNtNtB6_5types17UnifiedRpcService15connection_type
FN:114,_RNvXs_NtNtNtCs5HKDRulWIag_12nestgate_api4rest3rpc16json_rpc_serviceNtB4_14JsonRpcServiceNtNtB6_5types17UnifiedRpcService4call
FNDA:0,_RNCNvXs_NtNtNtCs5HKDRulWIag_12nestgate_api4rest3rpc16json_rpc_serviceNtB6_14JsonRpcServiceNtNtB8_5types17UnifiedRpcService12health_check0Bc_
FNDA:0,_RNCNvXs_NtNtNtCs5HKDRulWIag_12nestgate_api4rest3rpc16json_rpc_serviceNtB6_14JsonRpcServiceNtNtB8_5types17UnifiedRpcService12start_stream0Bc_
FNDA:0,_RNCNvXs_NtNtNtCs5HKDRulWIag_12nestgate_api4rest3rpc16json_rpc_serviceNtB6_14JsonRpcServiceNtNtB8_5types17UnifiedRpcService4call0Bc_
FNDA:0,_RNvMNtNtNtCs5HKDRulWIag_12nestgate_api4rest3rpc16json_rpc_serviceNtB2_14JsonRpcService10disconnect
FNDA:0,_RNvMNtNtNtCs5HKDRulWIag_12nestgate_api4rest3rpc16json_rpc_serviceNtB2_14JsonRpcService12send_request
FNDA:0,_RNvMNtNtNtCs5HKDRulWIag_12nestgate_api4rest3rpc16json_rpc_serviceNtB2_14JsonRpcService23check_connection_status
FNDA:0,_RNvMNtNtNtCs5HKDRulWIag_12nestgate_api4rest3rpc16json_rpc_serviceNtB2_14JsonRpcService3new
FNDA:0,_RNvMNtNtNtCs5HKDRulWIag_12nestgate_api4rest3rpc16json_rpc_serviceNtB2_14JsonRpcService9subscribe
FNDA:0,_RNvXs_NtNtNtCs5HKDRulWIag_12nestgate_api4rest3rpc16json_rpc_serviceNtB4_14JsonRpcServiceNtNtB6_5types17UnifiedRpcService12health_check
FNDA:0,_RNvXs_NtNtNtCs5HKDRulWIag_12nestgate_api4rest3rpc16json_rpc_serviceNtB4_14JsonRpcServiceNtNtB6_5types17UnifiedRpcService12start_stream
FNDA:0,_RNvXs_NtNtNtCs5HKDRulWIag_12nestgate_api4rest3rpc16json_rpc_serviceNtB4_14JsonRpcServiceNtNtB6_5types17UnifiedRpcService15connection_type
FNDA:0,_RNvXs_NtNtNtCs5HKDRulWIag_12nestgate_api4rest3rpc16json_rpc_serviceNtB4_14JsonRpcServiceNtNtB6_5types17UnifiedRpcService4call
FNF:12
FNH:0
DA:60,0
DA:61,0
DA:62,0
DA:72,0
DA:73,0
DA:75,0
DA:76,0
DA:80,0
DA:82,0
DA:83,0
DA:93,0
DA:95,0
DA:96,0
DA:107,0
DA:109,0
DA:110,0
DA:114,0
DA:120,0
DA:123,0
DA:124,0
DA:125,0
DA:126,0
DA:127,0
DA:128,0
DA:133,0
DA:134,0
DA:135,0
DA:137,0
DA:138,0
DA:139,0
DA:140,0
DA:142,0
DA:144,0
DA:145,0
DA:146,0
DA:147,0
DA:153,0
DA:154,0
DA:161,0
DA:162,0
DA:163,0
DA:164,0
DA:166,0
DA:167,0
DA:168,0
DA:170,0
DA:175,0
DA:176,0
BRF:0
BRH:0
LF:51
LH:0
end_of_record
SF:/home/eastgate/Development/ecoPrimals/nestgate/code/crates/nestgate-api/src/rest/rpc/manager.rs
FN:172,_RNCNvMs0_NtNtNtCs5HKDRulWIag_12nestgate_api4rest3rpc7managerNtB7_17UnifiedRpcManager16register_service0Bd_
FN:190,_RNCNvMs0_NtNtNtCs5HKDRulWIag_12nestgate_api4rest3rpc7managerNtB7_17UnifiedRpcManager4call0Bd_
FN:168,_RNvMs0_NtNtNtCs5HKDRulWIag_12nestgate_api4rest3rpc7managerNtB5_17UnifiedRpcManager16register_service
FN:297,_RNvMs0_NtNtNtCs5HKDRulWIag_12nestgate_api4rest3rpc7managerNtB5_17UnifiedRpcManager17get_health_status
FN:313,_RNvMs0_NtNtNtCs5HKDRulWIag_12nestgate_api4rest3rpc7managerNtB5_17UnifiedRpcManager18init_tarpc_service
FN:337,_RNvMs0_NtNtNtCs5HKDRulWIag_12nestgate_api4rest3rpc7managerNtB5_17UnifiedRpcManager21init_json_rpc_service
FN:365,_RNvMs0_NtNtNtCs5HKDRulWIag_12nestgate_api4rest3rpc7managerNtB5_17UnifiedRpcManager23start_health_monitoring
FN:152,_RNvMs0_NtNtNtCs5HKDRulWIag_12nestgate_api4rest3rpc7managerNtB5_17UnifiedRpcManager24init_security_capability
FN:370,_RNvMs0_NtNtNtCs5HKDRulWIag_12nestgate_api4rest3rpc7managerNtB5_17UnifiedRpcManager24start_metrics_collection
FN:280,_RNvMs0_NtNtNtCs5HKDRulWIag_12nestgate_api4rest3rpc7managerNtB5_17UnifiedRpcManager26start_bidirectional_stream
FN:186,_RNvMs0_NtNtNtCs5HKDRulWIag_12nestgate_api4rest3rpc7managerNtB5_17UnifiedRpcManager4call
FN:247,_RNvMs0_NtNtNtCs5HKDRulWIag_12nestgate_api4rest3rpc7managerNtB5_17UnifiedRpcManager5start
FN:265,_RNvMs0_NtNtNtCs5HKDRulWIag_12nestgate_api4rest3rpc7managerNtB5_17UnifiedRpcManager8shutdown
FN:474,_RNvMs3_NtNtNtCs5HKDRulWIag_12nestgate_api4rest3rpc7managerNtB5_22UniversalSecurityLayer16check_rate_limit
FN:456,_RNvMs3_NtNtNtCs5HKDRulWIag_12nestgate_api4rest3rpc7managerNtB5_22UniversalSecurityLayer16validate_request
FN:527,_RNvMs6_NtNtNtCs5HKDRulWIag_12nestgate_api4rest3rpc7managerNtB5_16MetricsCollector14record_request
FN:542,_RNvXs7_NtNtNtCs5HKDRulWIag_12nestgate_api4rest3rpc7managerNtB5_13MetricsConfigNtNtCs5GmCzIpY9Qj_4core7default7Default7default
FN:114,_RNvXs_NtNtNtCs5HKDRulWIag_12nestgate_api4rest3rpc7managerNtB4_17UnifiedRpcManagerNtNtCs5GmCzIpY9Qj_4core7default7Default7default
FN:128,_RNvMs0_NtNtNtCs5HKDRulWIag_12nestgate_api4rest3rpc7managerNtB5_17UnifiedRpcManager11with_config
FN:122,_RNvMs0_NtNtNtCs5HKDRulWIag_12nestgate_api4rest3rpc7managerNtB5_17UnifiedRpcManager3new
FN:385,_RNvMs1_NtNtNtCs5HKDRulWIag_12nestgate_api4rest3rpc7managerNtB5_14ConnectionPool3new
FN:403,_RNvMs2_NtNtNtCs5HKDRulWIag_12nestgate_api4rest3rpc7managerNtB5_23ConnectionHealthMonitor3new
FN:438,_RNvMs3_NtNtNtCs5HKDRulWIag_12nestgate_api4rest3rpc7managerNtB5_22UniversalSecurityLayer3new
FN:488,_RNvMs4_NtNtNtCs5HKDRulWIag_12nestgate_api4rest3rpc7managerNtB5_12LoadBalancer3new
FN:502,_RNvMs5_NtNtNtCs5HKDRulWIag_12nestgate_api4rest3rpc7managerNtB5_14StreamRegistry3new
FN:516,_RNvMs6_NtNtNtCs5HKDRulWIag_12nestgate_api4rest3rpc7managerNtB5_16MetricsCollector3new
FN:45,_RNvXNtNtNtCs5HKDRulWIag_12nestgate_api4rest3rpc7managerNtB2_17UnifiedRpcManagerNtNtCs5GmCzIpY9Qj_4core3fmt7Display3fmt
FNDA:0,_RNCNvMs0_NtNtNtCs5HKDRulWIag_12nestgate_api4rest3rpc7managerNtB7_17UnifiedRpcManager16register_service0Bd_
FNDA:0,_RNCNvMs0_NtNtNtCs5HKDRulWIag_12nestgate_api4rest3rpc7managerNtB7_17UnifiedRpcManager4call0Bd_
FNDA:0,_RNvMs0_NtNtNtCs5HKDRulWIag_12nestgate_api4rest3rpc7managerNtB5_17UnifiedRpcManager16register_service
FNDA:0,_RNvMs0_NtNtNtCs5HKDRulWIag_12nestgate_api4rest3rpc7managerNtB5_17UnifiedRpcManager17get_health_status
FNDA:0,_RNvMs0_NtNtNtCs5HKDRulWIag_12nestgate_api4rest3rpc7managerNtB5_17UnifiedRpcManager18init_tarpc_service
FNDA:0,_RNvMs0_NtNtNtCs5HKDRulWIag_12nestgate_api4rest3rpc7managerNtB5_17UnifiedRpcManager21init_json_rpc_service
FNDA:0,_RNvMs0_NtNtNtCs5HKDRulWIag_12nestgate_api4rest3rpc7managerNtB5_17UnifiedRpcManager23start_health_monitoring
FNDA:0,_RNvMs0_NtNtNtCs5HKDRulWIag_12nestgate_api4rest3rpc7managerNtB5_17UnifiedRpcManager24init_security_capability
FNDA:0,_RNvMs0_NtNtNtCs5HKDRulWIag_12nestgate_api4rest3rpc7managerNtB5_17UnifiedRpcManager24start_metrics_collection
FNDA:0,_RNvMs0_NtNtNtCs5HKDRulWIag_12nestgate_api4rest3rpc7managerNtB5_17UnifiedRpcManager26start_bidirectional_stream
FNDA:0,_RNvMs0_NtNtNtCs5HKDRulWIag_12nestgate_api4rest3rpc7managerNtB5_17UnifiedRpcManager4call
FNDA:0,_RNvMs0_NtNtNtCs5HKDRulWIag_12nestgate_api4rest3rpc7managerNtB5_17UnifiedRpcManager5start
FNDA:0,_RNvMs0_NtNtNtCs5HKDRulWIag_12nestgate_api4rest3rpc7managerNtB5_17UnifiedRpcManager8shutdown
FNDA:0,_RNvMs3_NtNtNtCs5HKDRulWIag_12nestgate_api4rest3rpc7managerNtB5_22UniversalSecurityLayer16check_rate_limit
FNDA:0,_RNvMs3_NtNtNtCs5HKDRulWIag_12nestgate_api4rest3rpc7managerNtB5_22UniversalSecurityLayer16validate_request
FNDA:0,_RNvMs6_NtNtNtCs5HKDRulWIag_12nestgate_api4rest3rpc7managerNtB5_16MetricsCollector14record_request
FNDA:0,_RNvXs7_NtNtNtCs5HKDRulWIag_12nestgate_api4rest3rpc7managerNtB5_13MetricsConfigNtNtCs5GmCzIpY9Qj_4core7default7Default7default
FNDA:0,_RNvXs_NtNtNtCs5HKDRulWIag_12nestgate_api4rest3rpc7managerNtB4_17UnifiedRpcManagerNtNtCs5GmCzIpY9Qj_4core7default7Default7default
FNDA:1,_RNvMs0_NtNtNtCs5HKDRulWIag_12nestgate_api4rest3rpc7managerNtB5_17UnifiedRpcManager11with_config
FNDA:1,_RNvMs0_NtNtNtCs5HKDRulWIag_12nestgate_api4rest3rpc7managerNtB5_17UnifiedRpcManager3new
FNDA:1,_RNvMs1_NtNtNtCs5HKDRulWIag_12nestgate_api4rest3rpc7managerNtB5_14ConnectionPool3new
FNDA:1,_RNvMs2_NtNtNtCs5HKDRulWIag_12nestgate_api4rest3rpc7managerNtB5_23ConnectionHealthMonitor3new
FNDA:1,_RNvMs3_NtNtNtCs5HKDRulWIag_12nestgate_api4rest3rpc7managerNtB5_22UniversalSecurityLayer3new
FNDA:1,_RNvMs4_NtNtNtCs5HKDRulWIag_12nestgate_api4rest3rpc7managerNtB5_12LoadBalancer3new
FNDA:1,_RNvMs5_NtNtNtCs5HKDRulWIag_12nestgate_api4rest3rpc7managerNtB5_14StreamRegistry3new
FNDA:1,_RNvMs6_NtNtNtCs5HKDRulWIag_12nestgate_api4rest3rpc7managerNtB5_16MetricsCollector3new
FNDA:1,_RNvXNtNtNtCs5HKDRulWIag_12nestgate_api4rest3rpc7managerNtB2_17UnifiedRpcManagerNtNtCs5GmCzIpY9Qj_4core3fmt7Display3fmt
FNF:27
FNH:9
DA:45,1
DA:46,1
DA:47,1
DA:114,0
DA:115,0
DA:116,0
DA:122,1
DA:123,1
DA:124,1
DA:128,1
DA:129,1
DA:131,1
DA:132,1
DA:133,1
DA:134,1
DA:135,1
DA:136,1
DA:137,1
DA:138,1
DA:139,1
DA:140,1
DA:141,1
DA:142,1
DA:152,0
DA:153,0
DA:154,0
DA:155,0
DA:157,0
DA:158,0
DA:168,0
DA:169,0
DA:170,0
DA:171,0
DA:172,0
DA:173,0
DA:174,0
DA:175,0
DA:176,0
DA:186,0
DA:187,0
DA:188,0
DA:189,0
DA:190,0
DA:191,0
DA:194,0
DA:195,0
DA:197,0
DA:198,0
DA:199,0
DA:200,0
DA:202,0
DA:203,0
DA:204,0
DA:205,0
DA:206,0
DA:207,0
DA:208,0
DA:209,0
DA:210,0
DA:211,0
DA:212,0
DA:213,0
DA:214,0
DA:215,0
DA:220,0
DA:221,0
DA:222,0
DA:223,0
DA:224,0
DA:225,0
DA:226,0
DA:227,0
DA:228,0
DA:229,0
DA:230,0
DA:231,0
DA:232,0
DA:233,0
DA:234,0
DA:235,0
DA:237,0
DA:247,0
DA:249,0
DA:252,0
DA:254,0
DA:255,0
DA:265,0
DA:266,0
DA:267,0
DA:268,0
DA:269,0
DA:270,0
DA:280,0
DA:281,0
DA:282,0
DA:283,0
DA:285,0
DA:286,0
DA:287,0
DA:297,0
DA:298,0
DA:299,0
DA:300,0
DA:301,0
DA:302,0
DA:303,0
DA:313,0
DA:315,0
DA:318,0
DA:319,0
DA:320,0
DA:321,0
DA:322,0
DA:325,0
DA:326,0
DA:327,0
DA:337,0
DA:339,0
DA:342,0
DA:343,0
DA:344,0
DA:345,0
DA:346,0
DA:349,0
DA:350,0
DA:351,0
DA:352,0
DA:353,0
DA:354,0
DA:355,0
DA:359,0
DA:362,0
DA:363,0
DA:365,0
DA:367,0
DA:368,0
DA:370,0
DA:372,0
DA:373,0
DA:385,1
DA:386,1
DA:387,1
DA:388,1
DA:389,1
DA:390,1
DA:391,1
DA:403,1
DA:404,1
DA:405,1
DA:406,1
DA:407,1
DA:408,1
DA:409,1
DA:438,1
DA:439,1
DA:440,1
DA:456,0
DA:457,0
DA:458,0
DA:474,0
DA:475,0
DA:476,0
DA:488,1
DA:489,1
DA:490,1
DA:502,1
DA:503,1
DA:504,1
DA:516,1
DA:517,1
DA:518,1
DA:519,1
DA:520,1
DA:527,0
DA:542,0
DA:543,0
DA:544,0
DA:545,0
DA:546,0
DA:547,0
BRF:0
BRH:0
LF:182
LH:48
end_of_record
SF:/home/eastgate/Development/ecoPrimals/nestgate/code/crates/nestgate-api/src/rest/rpc/mod.rs
FN:42,_RNCNvNtNtNtCs5HKDRulWIag_12nestgate_api4rest3rpc5testss_19test_default_config0B9_
FN:36,_RNCNvNtNtNtCs5HKDRulWIag_12nestgate_api4rest3rpc5testss_25test_rpc_manager_creation0B9_
FN:42,_RNvNtNtNtCs5HKDRulWIag_12nestgate_api4rest3rpc5testss_19test_default_config
FN:36,_RNvNtNtNtCs5HKDRulWIag_12nestgate_api4rest3rpc5testss_25test_rpc_manager_creation
FNDA:1,_RNCNvNtNtNtCs5HKDRulWIag_12nestgate_api4rest3rpc5testss_19test_default_config0B9_
FNDA:1,_RNCNvNtNtNtCs5HKDRulWIag_12nestgate_api4rest3rpc5testss_25test_rpc_manager_creation0B9_
FNDA:1,_RNvNtNtNtCs5HKDRulWIag_12nestgate_api4rest3rpc5testss_19test_default_config
FNDA:1,_RNvNtNtNtCs5HKDRulWIag_12nestgate_api4rest3rpc5testss_25test_rpc_manager_creation
FNF:4
FNH:4
DA:36,1
DA:37,1
DA:39,1
DA:40,1
DA:42,1
DA:43,1
DA:44,1
DA:45,1
DA:46,1
BRF:0
BRH:0
LF:13
LH:13
end_of_record
SF:/home/eastgate/Development/ecoPrimals/nestgate/code/crates/nestgate-api/src/rest/rpc/rpc_router.rs
FN:237,_RNvMNtNtNtCs5HKDRulWIag_12nestgate_api4rest3rpc10rpc_routerNtB2_16UnifiedRpcRouter15add_method_rule
FN:243,_RNvMNtNtNtCs5HKDRulWIag_12nestgate_api4rest3rpc10rpc_routerNtB2_16UnifiedRpcRouter15add_target_rule
FN:264,_RNvMNtNtNtCs5HKDRulWIag_12nestgate_api4rest3rpc10rpc_routerNtB2_16UnifiedRpcRouter17get_routing_stats
FN:249,_RNvMNtNtNtCs5HKDRulWIag_12nestgate_api4rest3rpc10rpc_routerNtB2_16UnifiedRpcRouter18remove_method_rule
FN:256,_RNvMNtNtNtCs5HKDRulWIag_12nestgate_api4rest3rpc10rpc_routerNtB2_16UnifiedRpcRouter18remove_target_rule
FN:275,_RNvMNtNtNtCs5HKDRulWIag_12nestgate_api4rest3rpc10rpc_routerNtB2_16UnifiedRpcRouter22set_default_connection
FN:282,_RNvMNtNtNtCs5HKDRulWIag_12nestgate_api4rest3rpc10rpc_routerNtB2_16UnifiedRpcRouter25recommend_connection_type
FN:336,_RNvXs_NtNtNtCs5HKDRulWIag_12nestgate_api4rest3rpc10rpc_routerNtB4_16UnifiedRpcRouterNtNtCs5GmCzIpY9Qj_4core7default7Default7default
FN:148,_RNvMNtNtNtCs5HKDRulWIag_12nestgate_api4rest3rpc10rpc_routerNtB2_16UnifiedRpcRouter13route_request
FN:186,_RNvMNtNtNtCs5HKDRulWIag_12nestgate_api4rest3rpc10rpc_routerNtB2_16UnifiedRpcRouter23apply_heuristic_routing
FN:34,_RNvMNtNtNtCs5HKDRulWIag_12nestgate_api4rest3rpc10rpc_routerNtB2_16UnifiedRpcRouter24initialize_routing_rules
FN:21,_RNvMNtNtNtCs5HKDRulWIag_12nestgate_api4rest3rpc10rpc_routerNtB2_16UnifiedRpcRouter3new
FN:414,_RNCNCNvNtNtNtNtCs5HKDRulWIag_12nestgate_api4rest3rpc10rpc_router5testss_22test_heuristic_routing00Bd_
FN:402,_RNCNCNvNtNtNtNtCs5HKDRulWIag_12nestgate_api4rest3rpc10rpc_router5testss_25test_target_based_routing00Bd_
FN:366,_RNCNCNvNtNtNtNtCs5HKDRulWIag_12nestgate_api4rest3rpc10rpc_router5testss_28test_security_method_routing00Bd_
FN:390,_RNCNCNvNtNtNtNtCs5HKDRulWIag_12nestgate_api4rest3rpc10rpc_router5testss_29test_streaming_method_routing00Bd_
FN:378,_RNCNCNvNtNtNtNtCs5HKDRulWIag_12nestgate_api4rest3rpc10rpc_router5testss_33test_orchestration_method_routing00Bd_
FN:410,_RNCNvNtNtNtNtCs5HKDRulWIag_12nestgate_api4rest3rpc10rpc_router5testss_22test_heuristic_routing0Bb_
FN:398,_RNCNvNtNtNtNtCs5HKDRulWIag_12nestgate_api4rest3rpc10rpc_router5testss_25test_target_based_routing0Bb_
FN:362,_RNCNvNtNtNtNtCs5HKDRulWIag_12nestgate_api4rest3rpc10rpc_router5testss_28test_security_method_routing0Bb_
FN:386,_RNCNvNtNtNtNtCs5HKDRulWIag_12nestgate_api4rest3rpc10rpc_router5testss_29test_streaming_method_routing0Bb_
FN:374,_RNCNvNtNtNtNtCs5HKDRulWIag_12nestgate_api4rest3rpc10rpc_router5testss_33test_orchestration_method_routing0Bb_
FN:346,_RNvNtNtNtNtCs5HKDRulWIag_12nestgate_api4rest3rpc10rpc_router5tests19create_test_request
FN:410,_RNvNtNtNtNtCs5HKDRulWIag_12nestgate_api4rest3rpc10rpc_router5testss_22test_heuristic_routing
FN:398,_RNvNtNtNtNtCs5HKDRulWIag_12nestgate_api4rest3rpc10rpc_router5testss_25test_target_based_routing
FN:362,_RNvNtNtNtNtCs5HKDRulWIag_12nestgate_api4rest3rpc10rpc_router5testss_28test_security_method_routing
FN:386,_RNvNtNtNtNtCs5HKDRulWIag_12nestgate_api4rest3rpc10rpc_router5testss_29test_streaming_method_routing
FN:374,_RNvNtNtNtNtCs5HKDRulWIag_12nestgate_api4rest3rpc10rpc_router5testss_33test_orchestration_method_routing
FNDA:0,_RNvMNtNtNtCs5HKDRulWIag_12nestgate_api4rest3rpc10rpc_routerNtB2_16UnifiedRpcRouter15add_method_rule
FNDA:0,_RNvMNtNtNtCs5HKDRulWIag_12nestgate_api4rest3rpc10rpc_routerNtB2_16UnifiedRpcRouter15add_target_rule
FNDA:0,_RNvMNtNtNtCs5HKDRulWIag_12nestgate_api4rest3rpc10rpc_routerNtB2_16UnifiedRpcRouter17get_routing_stats
FNDA:0,_RNvMNtNtNtCs5HKDRulWIag_12nestgate_api4rest3rpc10rpc_routerNtB2_16UnifiedRpcRouter18remove_method_rule
FNDA:0,_RNvMNtNtNtCs5HKDRulWIag_12nestgate_api4rest3rpc10rpc_routerNtB2_16UnifiedRpcRouter18remove_target_rule
FNDA:0,_RNvMNtNtNtCs5HKDRulWIag_12nestgate_api4rest3rpc10rpc_routerNtB2_16UnifiedRpcRouter22set_default_connection
FNDA:0,_RNvMNtNtNtCs5HKDRulWIag_12nestgate_api4rest3rpc10rpc_routerNtB2_16UnifiedRpcRouter25recommend_connection_type
FNDA:0,_RNvXs_NtNtNtCs5HKDRulWIag_12nestgate_api4rest3rpc10rpc_routerNtB4_16UnifiedRpcRouterNtNtCs5GmCzIpY9Qj_4core7default7Default7default
FNDA:5,_RNvMNtNtNtCs5HKDRulWIag_12nestgate_api4rest3rpc10rpc_routerNtB2_16UnifiedRpcRouter13route_request
FNDA:2,_RNvMNtNtNtCs5HKDRulWIag_12nestgate_api4rest3rpc10rpc_routerNtB2_16UnifiedRpcRouter23apply_heuristic_routing
FNDA:5,_RNvMNtNtNtCs5HKDRulWIag_12nestgate_api4rest3rpc10rpc_routerNtB2_16UnifiedRpcRouter24initialize_routing_rules
FNDA:5,_RNvMNtNtNtCs5HKDRulWIag_12nestgate_api4rest3rpc10rpc_routerNtB2_16UnifiedRpcRouter3new
FNDA:0,_RNCNCNvNtNtNtNtCs5HKDRulWIag_12nestgate_api4rest3rpc10rpc_router5testss_22test_heuristic_routing00Bd_
FNDA:0,_RNCNCNvNtNtNtNtCs5HKDRulWIag_12nestgate_api4rest3rpc10rpc_router5testss_25test_target_based_routing00Bd_
FNDA:0,_RNCNCNvNtNtNtNtCs5HKDRulWIag_12nestgate_api4rest3rpc10rpc_router5testss_28test_security_method_routing00Bd_
FNDA:0,_RNCNCNvNtNtNtNtCs5HKDRulWIag_12nestgate_api4rest3rpc10rpc_router5testss_29test_streaming_method_routing00Bd_
FNDA:0,_RNCNCNvNtNtNtNtCs5HKDRulWIag_12nestgate_api4rest3rpc10rpc_router5testss_33test_orchestration_method_routing00Bd_
FNDA:1,_RNCNvNtNtNtNtCs5HKDRulWIag_12nestgate_api4rest3rpc10rpc_router5testss_22test_heuristic_routing0Bb_
FNDA:1,_RNCNvNtNtNtNtCs5HKDRulWIag_12nestgate_api4rest3rpc10rpc_router5testss_25test_target_based_routing0Bb_
FNDA:1,_RNCNvNtNtNtNtCs5HKDRulWIag_12nestgate_api4rest3rpc10rpc_router5testss_28test_security_method_routing0Bb_
FNDA:1,_RNCNvNtNtNtNtCs5HKDRulWIag_12nestgate_api4rest3rpc10rpc_router5testss_29test_streaming_method_routing0Bb_
FNDA:1,_RNCNvNtNtNtNtCs5HKDRulWIag_12nestgate_api4rest3rpc10rpc_router5testss_33test_orchestration_method_routing0Bb_
FNDA:5,_RNvNtNtNtNtCs5HKDRulWIag_12nestgate_api4rest3rpc10rpc_router5tests19create_test_request
FNDA:1,_RNvNtNtNtNtCs5HKDRulWIag_12nestgate_api4rest3rpc10rpc_router5testss_22test_heuristic_routing
FNDA:1,_RNvNtNtNtNtCs5HKDRulWIag_12nestgate_api4rest3rpc10rpc_router5testss_25test_target_based_routing
FNDA:1,_RNvNtNtNtNtCs5HKDRulWIag_12nestgate_api4rest3rpc10rpc_router5testss_28test_security_method_routing
FNDA:1,_RNvNtNtNtNtCs5HKDRulWIag_12nestgate_api4rest3rpc10rpc_router5testss_29test_streaming_method_routing
FNDA:1,_RNvNtNtNtNtCs5HKDRulWIag_12nestgate_api4rest3rpc10rpc_router5testss_33test_orchestration_method_routing
FNF:28
FNH:15
DA:21,5
DA:22,5
DA:23,5
DA:24,5
DA:25,5
DA:26,5
DA:29,5
DA:30,5
DA:31,5
DA:34,5
DA:36,5
DA:37,5
DA:38,5
DA:39,5
DA:40,5
DA:41,5
DA:42,5
DA:43,5
DA:44,5
DA:45,5
DA:46,5
DA:47,5
DA:48,5
DA:50,5
DA:51,5
DA:52,5
DA:54,5
DA:55,5
DA:58,5
DA:59,5
DA:60,5
DA:61,5
DA:62,5
DA:63,5
DA:64,5
DA:66,5
DA:67,5
DA:68,5
DA:69,5
DA:70,5
DA:71,5
DA:72,5
DA:74,5
DA:75,5
DA:76,5
DA:78,5
DA:79,5
DA:80,5
DA:84,5
DA:85,5
DA:86,5
DA:88,5
DA:89,5
DA:90,5
DA:92,5
DA:93,5
DA:94,5
DA:96,5
DA:97,5
DA:98,5
DA:100,5
DA:101,5
DA:102,5
DA:104,5
DA:105,5
DA:106,5
DA:108,5
DA:109,5
DA:110,5
DA:114,5
DA:115,5
DA:116,5
DA:117,5
DA:118,5
DA:120,5
DA:121,5
DA:122,5
DA:124,5
DA:125,5
DA:126,5
DA:127,5
DA:128,5
DA:129,5
DA:130,5
DA:133,5
DA:134,0
DA:135,0
DA:136,0
DA:138,5
DA:148,5
DA:149,5
DA:150,5
DA:151,5
DA:152,5
DA:153,0
DA:158,5
DA:159,3
DA:160,0
DA:163,3
DA:164,2
DA:167,2
DA:168,0
DA:169,0
DA:172,0
DA:173,2
DA:176,2
DA:177,2
DA:178,0
DA:182,2
DA:183,5
DA:186,2
DA:187,2
DA:190,2
DA:191,2
DA:192,1
DA:193,1
DA:194,1
DA:195,1
DA:196,1
DA:197,1
DA:199,1
DA:200,1
DA:203,1
DA:204,1
DA:205,1
DA:206,1
DA:207,1
DA:208,1
DA:209,1
DA:210,1
DA:212,0
DA:213,1
DA:216,1
DA:217,1
DA:218,1
DA:219,1
DA:220,1
DA:221,1
DA:222,1
DA:224,0
DA:225,1
DA:228,1
DA:229,0
DA:230,1
DA:233,1
DA:234,2
DA:237,0
DA:238,0
DA:239,0
DA:240,0
DA:243,0
DA:244,0
DA:245,0
DA:246,0
DA:249,0
DA:250,0
DA:251,0
DA:252,0
DA:253,0
DA:256,0
DA:257,0
DA:258,0
DA:259,0
DA:260,0
DA:264,0
DA:265,0
DA:266,0
DA:267,0
DA:268,0
DA:269,0
DA:270,0
DA:271,0
DA:272,0
DA:275,0
DA:276,0
DA:277,0
DA:278,0
DA:282,0
DA:283,0
DA:284,0
DA:285,0
DA:286,0
DA:289,0
DA:290,0
DA:291,0
DA:292,0
DA:293,0
DA:294,0
DA:296,0
DA:297,0
DA:298,0
DA:299,0
DA:300,0
DA:301,0
DA:303,0
DA:304,0
DA:305,0
DA:306,0
DA:307,0
DA:308,0
DA:310,0
DA:311,0
DA:312,0
DA:313,0
DA:314,0
DA:315,0
DA:317,0
DA:318,0
DA:336,0
DA:337,0
DA:338,0
DA:346,5
DA:347,5
DA:348,5
DA:349,5
DA:350,5
DA:351,5
DA:352,5
DA:353,5
DA:354,5
DA:355,5
DA:356,5
DA:357,5
DA:358,5
DA:359,5
DA:362,1
DA:363,1
DA:364,1
DA:366,1
DA:367,0
DA:368,0
DA:370,1
DA:371,1
DA:374,1
DA:375,1
DA:376,1
DA:378,1
DA:379,0
DA:380,0
DA:382,1
DA:383,1
DA:386,1
DA:387,1
DA:388,1
DA:390,1
DA:391,0
DA:392,0
DA:394,1
DA:395,1
DA:398,1
DA:399,1
DA:400,1
DA:402,1
DA:403,0
DA:404,0
DA:406,1
DA:407,1
DA:410,1
DA:411,1
DA:412,1
DA:414,1
DA:415,0
DA:416,0
DA:418,1
DA:419,1
BRF:0
BRH:0
LF:280
LH:188
end_of_record
SF:/home/eastgate/Development/ecoPrimals/nestgate/code/crates/nestgate-api/src/rest/rpc/tarpc_service.rs
FN:108,_RNvMNtNtNtCs5HKDRulWIag_12nestgate_api4rest3rpc13tarpc_serviceNtB2_15TarpcRpcService12health_check
FN:70,_RNvMNtNtNtCs5HKDRulWIag_12nestgate_api4rest3rpc13tarpc_serviceNtB2_15TarpcRpcService12start_stream
FN:97,_RNvMNtNtNtCs5HKDRulWIag_12nestgate_api4rest3rpc13tarpc_serviceNtB2_15TarpcRpcService15connection_type
FN:45,_RNvMNtNtNtCs5HKDRulWIag_12nestgate_api4rest3rpc13tarpc_serviceNtB2_15TarpcRpcService15execute_request
FN:26,_RNvMNtNtNtCs5HKDRulWIag_12nestgate_api4rest3rpc13tarpc_serviceNtB2_15TarpcRpcService3new
FNDA:0,_RNvMNtNtNtCs5HKDRulWIag_12nestgate_api4rest3rpc13tarpc_serviceNtB2_15TarpcRpcService12health_check
FNDA:0,_RNvMNtNtNtCs5HKDRulWIag_12nestgate_api4rest3rpc13tarpc_serviceNtB2_15TarpcRpcService12start_stream
FNDA:0,_RNvMNtNtNtCs5HKDRulWIag_12nestgate_api4rest3rpc13tarpc_serviceNtB2_15TarpcRpcService15connection_type
FNDA:0,_RNvMNtNtNtCs5HKDRulWIag_12nestgate_api4rest3rpc13tarpc_serviceNtB2_15TarpcRpcService15execute_request
FNDA:0,_RNvMNtNtNtCs5HKDRulWIag_12nestgate_api4rest3rpc13tarpc_serviceNtB2_15TarpcRpcService3new
FNF:5
FNH:0
DA:26,0
DA:27,0
DA:28,0
DA:29,0
DA:31,0
DA:32,0
DA:35,0
DA:36,0
DA:45,0
DA:46,0
DA:47,0
DA:48,0
DA:49,0
DA:52,0
DA:53,0
DA:54,0
DA:55,0
DA:56,0
DA:57,0
DA:58,0
DA:59,0
DA:60,0
DA:61,0
DA:70,0
DA:71,0
DA:72,0
DA:73,0
DA:74,0
DA:75,0
DA:76,0
DA:77,0
DA:78,0
DA:79,0
DA:80,0
DA:82,0
DA:83,0
DA:85,0
DA:86,0
DA:87,0
DA:88,0
DA:90,0
DA:91,0
DA:92,0
DA:97,0
DA:98,0
DA:99,0
DA:108,0
DA:109,0
DA:110,0
BRF:0
BRH:0
LF:49
LH:0
end_of_record
SF:/home/eastgate/Development/ecoPrimals/nestgate/code/crates/nestgate-api/src/rest/rpc/types.rs
FN:196,_RNCNvMs_NtNtNtCs5HKDRulWIag_12nestgate_api4rest3rpc5typesNtB6_13DynRpcService12health_check0Bc_
FN:168,_RNCNvMs_NtNtNtCs5HKDRulWIag_12nestgate_api4rest3rpc5typesNtB6_13DynRpcService12start_stream0Bc_
FN:148,_RNCNvMs_NtNtNtCs5HKDRulWIag_12nestgate_api4rest3rpc5typesNtB6_13DynRpcService4call0Bc_
FN:196,_RNvMs_NtNtNtCs5HKDRulWIag_12nestgate_api4rest3rpc5typesNtB4_13DynRpcService12health_check
FN:165,_RNvMs_NtNtNtCs5HKDRulWIag_12nestgate_api4rest3rpc5typesNtB4_13DynRpcService12start_stream
FN:179,_RNvMs_NtNtNtCs5HKDRulWIag_12nestgate_api4rest3rpc5typesNtB4_13DynRpcService15connection_type
FN:148,_RNvMs_NtNtNtCs5HKDRulWIag_12nestgate_api4rest3rpc5typesNtB4_13DynRpcService4call
FN:49,_RNvXNtNtNtCs5HKDRulWIag_12nestgate_api4rest3rpc5typesNtB2_15RequestPriorityNtNtCs5GmCzIpY9Qj_4core7default7Default7default
FN:235,_RNvXs0_NtNtNtCs5HKDRulWIag_12nestgate_api4rest3rpc5typesNtB5_8RpcErrorINtNtCs5GmCzIpY9Qj_4core7convert4FromNtNtCs3T2AbaJLHd5_10serde_json5error5ErrorE4from
FNDA:0,_RNCNvMs_NtNtNtCs5HKDRulWIag_12nestgate_api4rest3rpc5typesNtB6_13DynRpcService12health_check0Bc_
FNDA:0,_RNCNvMs_NtNtNtCs5HKDRulWIag_12nestgate_api4rest3rpc5typesNtB6_13DynRpcService12start_stream0Bc_
FNDA:0,_RNCNvMs_NtNtNtCs5HKDRulWIag_12nestgate_api4rest3rpc5typesNtB6_13DynRpcService4call0Bc_
FNDA:0,_RNvMs_NtNtNtCs5HKDRulWIag_12nestgate_api4rest3rpc5typesNtB4_13DynRpcService12health_check
FNDA:0,_RNvMs_NtNtNtCs5HKDRulWIag_12nestgate_api4rest3rpc5typesNtB4_13DynRpcService12start_stream
FNDA:0,_RNvMs_NtNtNtCs5HKDRulWIag_12nestgate_api4rest3rpc5typesNtB4_13DynRpcService15connection_type
FNDA:0,_RNvMs_NtNtNtCs5HKDRulWIag_12nestgate_api4rest3rpc5typesNtB4_13DynRpcService4call
FNDA:0,_RNvXNtNtNtCs5HKDRulWIag_12nestgate_api4rest3rpc5typesNtB2_15RequestPriorityNtNtCs5GmCzIpY9Qj_4core7default7Default7default
FNDA:0,_RNvXs0_NtNtNtCs5HKDRulWIag_12nestgate_api4rest3rpc5typesNtB5_8RpcErrorINtNtCs5GmCzIpY9Qj_4core7convert4FromNtNtCs3T2AbaJLHd5_10serde_json5error5ErrorE4from
FNF:9
FNH:0
DA:49,0
DA:50,0
DA:51,0
DA:148,0
DA:149,0
DA:150,0
DA:152,0
DA:165,0
DA:166,0
DA:167,0
DA:168,0
DA:169,0
DA:170,0
DA:172,0
DA:179,0
DA:180,0
DA:181,0
DA:183,0
DA:196,0
DA:197,0
DA:198,0
DA:200,0
DA:235,0
DA:236,0
DA:237,0
BRF:0
BRH:0
LF:28
LH:0
end_of_record
SF:/home/eastgate/Development/ecoPrimals/nestgate/code/crates/nestgate-api/src/rest/websocket.rs
FN:105,_RNCNvMNtNtCs5HKDRulWIag_12nestgate_api4rest9websocketNtB4_16WebSocketManager14handle_upgrade0B8_
FN:122,_RNCNvNtNtCs5HKDRulWIag_12nestgate_api4rest9websocket27handle_websocket_connection0B7_
FN:101,_RNvMNtNtCs5HKDRulWIag_12nestgate_api4rest9websocketNtB2_16WebSocketManager14handle_upgrade
FN:82,_RNvMNtNtCs5HKDRulWIag_12nestgate_api4rest9websocketNtB2_16WebSocketManager15broadcast_event
FN:225,_RNvMs0_NtNtCs5HKDRulWIag_12nestgate_api4rest9websocketNtB5_14WebSocketEvent13health_update
FN:235,_RNvMs0_NtNtCs5HKDRulWIag_12nestgate_api4rest9websocketNtB5_14WebSocketEvent14metrics_update
FN:118,_RNvNtNtCs5HKDRulWIag_12nestgate_api4rest9websocket27handle_websocket_connection
FN:112,_RNvXs_NtNtCs5HKDRulWIag_12nestgate_api4rest9websocketNtB4_16WebSocketManagerNtNtCs5GmCzIpY9Qj_4core7default7Default7default
FN:288,_RNCNCNvNtNtNtCs5HKDRulWIag_12nestgate_api4rest9websocket5testss_24test_event_serialization00Bb_
FN:295,_RNCNCNvNtNtNtCs5HKDRulWIag_12nestgate_api4rest9websocket5testss_24test_event_serialization0s_0Bb_
FN:96,_RNCNvMNtNtCs5HKDRulWIag_12nestgate_api4rest9websocketNtB4_16WebSocketManager17connected_clients0B8_
FN:286,_RNCNvNtNtNtCs5HKDRulWIag_12nestgate_api4rest9websocket5testss_24test_event_serialization0B9_
FN:263,_RNCNvNtNtNtCs5HKDRulWIag_12nestgate_api4rest9websocket5testss_29test_websocket_event_creation0B9_
FN:257,_RNCNvNtNtNtCs5HKDRulWIag_12nestgate_api4rest9websocket5testss_31test_websocket_manager_creation0B9_
FN:286,_RNvNtNtNtCs5HKDRulWIag_12nestgate_api4rest9websocket5testss_24test_event_serialization
FN:262,_RNvNtNtNtCs5HKDRulWIag_12nestgate_api4rest9websocket5testss_29test_websocket_event_creation
FN:257,_RNvNtNtNtCs5HKDRulWIag_12nestgate_api4rest9websocket5testss_31test_websocket_manager_creation
FN:96,_RNvMNtNtCs5HKDRulWIag_12nestgate_api4rest9websocketNtB2_16WebSocketManager17connected_clients
FN:65,_RNvMNtNtCs5HKDRulWIag_12nestgate_api4rest9websocketNtB2_16WebSocketManager3new
FN:216,_RNvMs0_NtNtCs5HKDRulWIag_12nestgate_api4rest9websocketNtB5_14WebSocketEvent14storage_update
FN:244,_RNvMs0_NtNtCs5HKDRulWIag_12nestgate_api4rest9websocketNtB5_14WebSocketEvent7message
FNDA:0,_RNCNvMNtNtCs5HKDRulWIag_12nestgate_api4rest9websocketNtB4_16WebSocketManager14handle_upgrade0B8_
FNDA:0,_RNCNvNtNtCs5HKDRulWIag_12nestgate_api4rest9websocket27handle_websocket_connection0B7_
FNDA:0,_RNvMNtNtCs5HKDRulWIag_12nestgate_api4rest9websocketNtB2_16WebSocketManager14handle_upgrade
FNDA:0,_RNvMNtNtCs5HKDRulWIag_12nestgate_api4rest9websocketNtB2_16WebSocketManager15broadcast_event
FNDA:0,_RNvMs0_NtNtCs5HKDRulWIag_12nestgate_api4rest9websocketNtB5_14WebSocketEvent13health_update
FNDA:0,_RNvMs0_NtNtCs5HKDRulWIag_12nestgate_api4rest9websocketNtB5_14WebSocketEvent14metrics_update
FNDA:0,_RNvNtNtCs5HKDRulWIag_12nestgate_api4rest9websocket27handle_websocket_connection
FNDA:0,_RNvXs_NtNtCs5HKDRulWIag_12nestgate_api4rest9websocketNtB4_16WebSocketManagerNtNtCs5GmCzIpY9Qj_4core7default7Default7default
FNDA:0,_RNCNCNvNtNtNtCs5HKDRulWIag_12nestgate_api4rest9websocket5testss_24test_event_serialization00Bb_
FNDA:0,_RNCNCNvNtNtNtCs5HKDRulWIag_12nestgate_api4rest9websocket5testss_24test_event_serialization0s_0Bb_
FNDA:1,_RNCNvMNtNtCs5HKDRulWIag_12nestgate_api4rest9websocketNtB4_16WebSocketManager17connected_clients0B8_
FNDA:1,_RNCNvNtNtNtCs5HKDRulWIag_12nestgate_api4rest9websocket5testss_24test_event_serialization0B9_
FNDA:1,_RNCNvNtNtNtCs5HKDRulWIag_12nestgate_api4rest9websocket5testss_29test_websocket_event_creation0B9_
FNDA:1,_RNCNvNtNtNtCs5HKDRulWIag_12nestgate_api4rest9websocket5testss_31test_websocket_manager_creation0B9_
FNDA:1,_RNvNtNtNtCs5HKDRulWIag_12nestgate_api4rest9websocket5testss_24test_event_serialization
FNDA:1,_RNvNtNtNtCs5HKDRulWIag_12nestgate_api4rest9websocket5testss_29test_websocket_event_creation
FNDA:1,_RNvNtNtNtCs5HKDRulWIag_12nestgate_api4rest9websocket5testss_31test_websocket_manager_creation
FNDA:1,_RNvMNtNtCs5HKDRulWIag_12nestgate_api4rest9websocketNtB2_16WebSocketManager17connected_clients
FNDA:1,_RNvMNtNtCs5HKDRulWIag_12nestgate_api4rest9websocketNtB2_16WebSocketManager3new
FNDA:1,_RNvMs0_NtNtCs5HKDRulWIag_12nestgate_api4rest9websocketNtB5_14WebSocketEvent14storage_update
FNDA:1,_RNvMs0_NtNtCs5HKDRulWIag_12nestgate_api4rest9websocketNtB5_14WebSocketEvent7message
FNF:21
FNH:11
DA:65,1
DA:66,1
DA:68,1
DA:69,1
DA:70,1
DA:71,1
DA:72,1
DA:82,0
DA:83,0
DA:84,0
DA:85,0
DA:86,0
DA:87,0
DA:88,0
DA:89,0
DA:90,0
DA:93,0
DA:96,1
DA:97,1
DA:98,1
DA:101,0
DA:102,0
DA:103,0
DA:105,0
DA:106,0
DA:107,0
DA:108,0
DA:112,0
DA:113,0
DA:114,0
DA:118,0
DA:119,0
DA:120,0
DA:121,0
DA:122,0
DA:125,0
DA:126,0
DA:127,0
DA:130,0
DA:131,0
DA:132,0
DA:133,0
DA:135,0
DA:136,0
DA:137,0
DA:138,0
DA:139,0
DA:140,0
DA:144,0
DA:146,0
DA:147,0
DA:148,0
DA:149,0
DA:151,0
DA:152,0
DA:153,0
DA:154,0
DA:156,0
DA:157,0
DA:158,0
DA:159,0
DA:160,0
DA:161,0
DA:164,0
DA:165,0
DA:167,0
DA:168,0
DA:169,0
DA:172,0
DA:173,0
DA:175,0
DA:176,0
DA:177,0
DA:181,0
DA:182,0
DA:183,0
DA:184,0
DA:185,0
DA:186,0
DA:187,0
DA:188,0
DA:189,0
DA:192,0
DA:193,0
DA:196,0
DA:206,0
DA:207,0
DA:208,0
DA:210,0
DA:216,1
DA:217,1
DA:218,1
DA:219,1
DA:220,1
DA:221,1
DA:222,1
DA:225,0
DA:226,0
DA:227,0
DA:228,0
DA:229,0
DA:230,0
DA:231,0
DA:235,0
DA:236,0
DA:237,0
DA:238,0
DA:239,0
DA:240,0
DA:244,1
DA:245,1
DA:246,1
DA:247,1
DA:248,1
DA:249,1
DA:257,1
DA:258,1
DA:259,1
DA:260,1
DA:262,1
DA:263,1
DA:264,1
DA:266,1
DA:267,1
DA:268,1
DA:269,1
DA:270,1
DA:271,1
DA:272,1
DA:273,1
DA:274,1
DA:275,1
DA:276,1
DA:277,1
DA:278,0
DA:279,0
DA:280,1
DA:281,1
DA:282,1
DA:283,1
DA:286,1
DA:287,1
DA:288,1
DA:289,0
DA:290,0
DA:291,0
DA:292,0
DA:294,0
DA:295,1
DA:296,0
DA:297,0
DA:298,0
DA:300,1
DA:301,1
DA:302,1
DA:303,1
DA:304,1
DA:305,1
DA:306,1
DA:307,1
BRF:0
BRH:0
LF:186
LH:76
end_of_record
SF:/home/eastgate/Development/ecoPrimals/nestgate/code/crates/nestgate-api/src/routes/mod.rs
FN:545,_RNCNCNCNvNtCs5HKDRulWIag_12nestgate_api6routes17websocket_handler000B9_
FN:136,_RNCNCNvNtCs5HKDRulWIag_12nestgate_api6routes13create_router00B7_
FN:145,_RNCNCNvNtCs5HKDRulWIag_12nestgate_api6routes13create_routers_00B7_
FN:549,_RNCNCNvNtCs5HKDRulWIag_12nestgate_api6routes17websocket_handler00B7_
FN:316,_RNCNCNvNtCs5HKDRulWIag_12nestgate_api6routes36create_router_with_initialized_state00B7_
FN:325,_RNCNCNvNtCs5HKDRulWIag_12nestgate_api6routes36create_router_with_initialized_states_00B7_
FN:117,_RNCNvMs_NtCs5HKDRulWIag_12nestgate_api6routesNtB6_8AppState20try_init_zfs_manager0B8_
FN:514,_RNCNvNtCs5HKDRulWIag_12nestgate_api6routes10get_events0B5_
FN:555,_RNCNvNtCs5HKDRulWIag_12nestgate_api6routes10sse_events0B5_
FN:589,_RNCNvNtCs5HKDRulWIag_12nestgate_api6routes10sse_health0B5_
FN:572,_RNCNvNtCs5HKDRulWIag_12nestgate_api6routes11sse_storage0B5_
FN:473,_RNCNvNtCs5HKDRulWIag_12nestgate_api6routes12health_check0B5_
FN:141,_RNCNvNtCs5HKDRulWIag_12nestgate_api6routes13create_router0B5_
FN:151,_RNCNvNtCs5HKDRulWIag_12nestgate_api6routes13create_routers_0B5_
FN:543,_RNCNvNtCs5HKDRulWIag_12nestgate_api6routes17websocket_handler0B5_
FN:491,_RNCNvNtCs5HKDRulWIag_12nestgate_api6routes23get_communication_stats0B5_
FN:321,_RNCNvNtCs5HKDRulWIag_12nestgate_api6routes36create_router_with_initialized_state0B5_
FN:331,_RNCNvNtCs5HKDRulWIag_12nestgate_api6routes36create_router_with_initialized_states_0B5_
FN:102,_RNvMs_NtCs5HKDRulWIag_12nestgate_api6routesNtB4_8AppState15get_zfs_manager
FN:108,_RNvMs_NtCs5HKDRulWIag_12nestgate_api6routesNtB4_8AppState16with_zfs_manager
FN:76,_RNvMs_NtCs5HKDRulWIag_12nestgate_api6routesNtB4_8AppState17without_streaming
FN:115,_RNvMs_NtCs5HKDRulWIag_12nestgate_api6routesNtB4_8AppState20try_init_zfs_manager
FN:64,_RNvMs_NtCs5HKDRulWIag_12nestgate_api6routesNtB4_8AppState22with_zfs_and_streaming
FN:89,_RNvMs_NtCs5HKDRulWIag_12nestgate_api6routesNtB4_8AppState3new
FN:512,_RNvNtCs5HKDRulWIag_12nestgate_api6routes10get_events
FN:553,_RNvNtCs5HKDRulWIag_12nestgate_api6routes10sse_events
FN:587,_RNvNtCs5HKDRulWIag_12nestgate_api6routes10sse_health
FN:570,_RNvNtCs5HKDRulWIag_12nestgate_api6routes11sse_storage
FN:473,_RNvNtCs5HKDRulWIag_12nestgate_api6routes12health_check
FN:128,_RNvNtCs5HKDRulWIag_12nestgate_api6routes13create_router
FN:540,_RNvNtCs5HKDRulWIag_12nestgate_api6routes17websocket_handler
FN:489,_RNvNtCs5HKDRulWIag_12nestgate_api6routes23get_communication_stats
FN:296,_RNvNtCs5HKDRulWIag_12nestgate_api6routes24create_router_with_state
FN:310,_RNvNtCs5HKDRulWIag_12nestgate_api6routes36create_router_with_initialized_state
FN:55,_RNvXNtCs5HKDRulWIag_12nestgate_api6routesNtB2_8AppStateNtNtCs5GmCzIpY9Qj_4core7default7Default7default
FNDA:0,_RNCNCNCNvNtCs5HKDRulWIag_12nestgate_api6routes17websocket_handler000B9_
FNDA:0,_RNCNCNvNtCs5HKDRulWIag_12nestgate_api6routes13create_router00B7_
FNDA:0,_RNCNCNvNtCs5HKDRulWIag_12nestgate_api6routes13create_routers_00B7_
FNDA:0,_RNCNCNvNtCs5HKDRulWIag_12nestgate_api6routes17websocket_handler00B7_
FNDA:0,_RNCNCNvNtCs5HKDRulWIag_12nestgate_api6routes36create_router_with_initialized_state00B7_
FNDA:0,_RNCNCNvNtCs5HKDRulWIag_12nestgate_api6routes36create_router_with_initialized_states_00B7_
FNDA:0,_RNCNvMs_NtCs5HKDRulWIag_12nestgate_api6routesNtB6_8AppState20try_init_zfs_manager0B8_
FNDA:0,_RNCNvNtCs5HKDRulWIag_12nestgate_api6routes10get_events0B5_
FNDA:0,_RNCNvNtCs5HKDRulWIag_12nestgate_api6routes10sse_events0B5_
FNDA:0,_RNCNvNtCs5HKDRulWIag_12nestgate_api6routes10sse_health0B5_
FNDA:0,_RNCNvNtCs5HKDRulWIag_12nestgate_api6routes11sse_storage0B5_
FNDA:0,_RNCNvNtCs5HKDRulWIag_12nestgate_api6routes12health_check0B5_
FNDA:0,_RNCNvNtCs5HKDRulWIag_12nestgate_api6routes13create_router0B5_
FNDA:0,_RNCNvNtCs5HKDRulWIag_12nestgate_api6routes13create_routers_0B5_
FNDA:0,_RNCNvNtCs5HKDRulWIag_12nestgate_api6routes17websocket_handler0B5_
FNDA:0,_RNCNvNtCs5HKDRulWIag_12nestgate_api6routes23get_communication_stats0B5_
FNDA:0,_RNCNvNtCs5HKDRulWIag_12nestgate_api6routes36create_router_with_initialized_state0B5_
FNDA:0,_RNCNvNtCs5HKDRulWIag_12nestgate_api6routes36create_router_with_initialized_states_0B5_
FNDA:0,_RNvMs_NtCs5HKDRulWIag_12nestgate_api6routesNtB4_8AppState15get_zfs_manager
FNDA:0,_RNvMs_NtCs5HKDRulWIag_12nestgate_api6routesNtB4_8AppState16with_zfs_manager
FNDA:0,_RNvMs_NtCs5HKDRulWIag_12nestgate_api6routesNtB4_8AppState17without_streaming
FNDA:0,_RNvMs_NtCs5HKDRulWIag_12nestgate_api6routesNtB4_8AppState20try_init_zfs_manager
FNDA:0,_RNvMs_NtCs5HKDRulWIag_12nestgate_api6routesNtB4_8AppState22with_zfs_and_streaming
FNDA:0,_RNvMs_NtCs5HKDRulWIag_12nestgate_api6routesNtB4_8AppState3new
FNDA:0,_RNvNtCs5HKDRulWIag_12nestgate_api6routes10get_events
FNDA:0,_RNvNtCs5HKDRulWIag_12nestgate_api6routes10sse_events
FNDA:0,_RNvNtCs5HKDRulWIag_12nestgate_api6routes10sse_health
FNDA:0,_RNvNtCs5HKDRulWIag_12nestgate_api6routes11sse_storage
FNDA:0,_RNvNtCs5HKDRulWIag_12nestgate_api6routes12health_check
FNDA:0,_RNvNtCs5HKDRulWIag_12nestgate_api6routes13create_router
FNDA:0,_RNvNtCs5HKDRulWIag_12nestgate_api6routes17websocket_handler
FNDA:0,_RNvNtCs5HKDRulWIag_12nestgate_api6routes23get_communication_stats
FNDA:0,_RNvNtCs5HKDRulWIag_12nestgate_api6routes24create_router_with_state
FNDA:0,_RNvNtCs5HKDRulWIag_12nestgate_api6routes36create_router_with_initialized_state
FNDA:0,_RNvXNtCs5HKDRulWIag_12nestgate_api6routesNtB2_8AppStateNtNtCs5GmCzIpY9Qj_4core7default7Default7default
FNF:35
FNH:0
DA:55,0
DA:56,0
DA:57,0
DA:64,0
DA:65,0
DA:66,0
DA:67,0
DA:68,0
DA:69,0
DA:70,0
DA:71,0
DA:72,0
DA:76,0
DA:77,0
DA:78,0
DA:79,0
DA:80,0
DA:81,0
DA:82,0
DA:83,0
DA:84,0
DA:85,0
DA:89,0
DA:90,0
DA:91,0
DA:92,0
DA:93,0
DA:94,0
DA:95,0
DA:96,0
DA:97,0
DA:98,0
DA:102,0
DA:103,0
DA:104,0
DA:108,0
DA:110,0
DA:111,0
DA:115,0
DA:116,0
DA:117,0
DA:122,0
DA:123,0
DA:124,0
DA:128,0
DA:131,0
DA:132,0
DA:134,0
DA:135,0
DA:136,0
DA:137,0
DA:138,0
DA:139,0
DA:140,0
DA:141,0
DA:143,0
DA:144,0
DA:145,0
DA:146,0
DA:147,0
DA:148,0
DA:149,0
DA:150,0
DA:151,0
DA:154,0
DA:155,0
DA:157,0
DA:158,0
DA:159,0
DA:161,0
DA:162,0
DA:163,0
DA:164,0
DA:167,0
DA:168,0
DA:169,0
DA:170,0
DA:171,0
DA:172,0
DA:175,0
DA:176,0
DA:177,0
DA:178,0
DA:180,0
DA:181,0
DA:182,0
DA:184,0
DA:185,0
DA:186,0
DA:187,0
DA:189,0
DA:190,0
DA:191,0
DA:193,0
DA:194,0
DA:195,0
DA:197,0
DA:198,0
DA:199,0
DA:201,0
DA:202,0
DA:203,0
DA:205,0
DA:206,0
DA:207,0
DA:209,0
DA:210,0
DA:211,0
DA:213,0
DA:214,0
DA:215,0
DA:217,0
DA:218,0
DA:219,0
DA:221,0
DA:222,0
DA:223,0
DA:225,0
DA:226,0
DA:227,0
DA:229,0
DA:230,0
DA:231,0
DA:233,0
DA:234,0
DA:235,0
DA:237,0
DA:238,0
DA:239,0
DA:241,0
DA:242,0
DA:243,0
DA:245,0
DA:246,0
DA:247,0
DA:249,0
DA:250,0
DA:251,0
DA:253,0
DA:254,0
DA:255,0
DA:257,0
DA:258,0
DA:259,0
DA:261,0
DA:262,0
DA:263,0
DA:271,0
DA:272,0
DA:273,0
DA:274,0
DA:275,0
DA:276,0
DA:278,0
DA:280,0
DA:286,0
DA:287,0
DA:288,0
DA:289,0
DA:290,0
DA:292,0
DA:293,0
DA:296,0
DA:297,0
DA:300,0
DA:307,0
DA:308,0
DA:310,0
DA:311,0
DA:312,0
DA:314,0
DA:315,0
DA:316,0
DA:317,0
DA:318,0
DA:319,0
DA:320,0
DA:321,0
DA:323,0
DA:324,0
DA:325,0
DA:326,0
DA:327,0
DA:328,0
DA:329,0
DA:330,0
DA:331,0
DA:334,0
DA:335,0
DA:337,0
DA:338,0
DA:339,0
DA:341,0
DA:342,0
DA:343,0
DA:344,0
DA:347,0
DA:348,0
DA:349,0
DA:350,0
DA:351,0
DA:352,0
DA:355,0
DA:356,0
DA:357,0
DA:358,0
DA:360,0
DA:361,0
DA:362,0
DA:364,0
DA:365,0
DA:366,0
DA:367,0
DA:369,0
DA:370,0
DA:371,0
DA:373,0
DA:374,0
DA:375,0
DA:377,0
DA:378,0
DA:379,0
DA:381,0
DA:382,0
DA:383,0
DA:385,0
DA:386,0
DA:387,0
DA:389,0
DA:390,0
DA:391,0
DA:393,0
DA:394,0
DA:395,0
DA:397,0
DA:398,0
DA:399,0
DA:401,0
DA:402,0
DA:403,0
DA:405,0
DA:406,0
DA:407,0
DA:409,0
DA:410,0
DA:411,0
DA:413,0
DA:414,0
DA:415,0
DA:417,0
DA:418,0
DA:419,0
DA:421,0
DA:422,0
DA:423,0
DA:425,0
DA:426,0
DA:427,0
DA:429,0
DA:430,0
DA:431,0
DA:433,0
DA:434,0
DA:435,0
DA:437,0
DA:438,0
DA:439,0
DA:441,0
DA:442,0
DA:443,0
DA:451,0
DA:452,0
DA:453,0
DA:454,0
DA:455,0
DA:456,0
DA:458,0
DA:460,0
DA:464,0
DA:465,0
DA:466,0
DA:467,0
DA:468,0
DA:470,0
DA:471,0
DA:473,0
DA:474,0
DA:475,0
DA:476,0
DA:477,0
DA:478,0
DA:479,0
DA:480,0
DA:481,0
DA:482,0
DA:483,0
DA:484,0
DA:485,0
DA:486,0
DA:489,0
DA:490,0
DA:491,0
DA:493,0
DA:494,0
DA:495,0
DA:496,0
DA:497,0
DA:498,0
DA:499,0
DA:500,0
DA:501,0
DA:502,0
DA:503,0
DA:504,0
DA:505,0
DA:506,0
DA:507,0
DA:508,0
DA:509,0
DA:512,0
DA:513,0
DA:514,0
DA:516,0
DA:517,0
DA:518,0
DA:519,0
DA:520,0
DA:521,0
DA:522,0
DA:523,0
DA:524,0
DA:525,0
DA:526,0
DA:527,0
DA:528,0
DA:529,0
DA:530,0
DA:531,0
DA:532,0
DA:533,0
DA:534,0
DA:535,0
DA:536,0
DA:540,0
DA:541,0
DA:542,0
DA:543,0
DA:545,0
DA:547,0
DA:549,0
DA:550,0
DA:553,0
DA:554,0
DA:555,0
DA:556,0
DA:557,0
DA:558,0
DA:559,0
DA:560,0
DA:561,0
DA:562,0
DA:563,0
DA:564,0
DA:565,0
DA:566,0
DA:567,0
DA:570,0
DA:571,0
DA:572,0
DA:573,0
DA:574,0
DA:575,0
DA:576,0
DA:577,0
DA:578,0
DA:579,0
DA:580,0
DA:581,0
DA:582,0
DA:583,0
DA:584,0
DA:587,0
DA:588,0
DA:589,0
DA:590,0
DA:591,0
DA:592,0
DA:593,0
DA:594,0
DA:595,0
DA:596,0
DA:597,0
DA:598,0
BRF:0
BRH:0
LF:411
LH:0
end_of_record
SF:/home/eastgate/Development/ecoPrimals/nestgate/code/crates/nestgate-automation/src/analysis.rs
FN:66,_RNCNCNvMNtCshTszjfEXlqN_19nestgate_automation8analysisNtB6_12FileAnalyzer12analyze_file00B8_
FN:76,_RNCNCNvMNtCshTszjfEXlqN_19nestgate_automation8analysisNtB6_12FileAnalyzer12analyze_file0s_0B8_
FN:135,_RNCNCNvMNtCshTszjfEXlqN_19nestgate_automation8analysisNtB6_12FileAnalyzer17analyze_file_safe00B8_
FN:315,_RNCNCNvMNtCshTszjfEXlqN_19nestgate_automation8analysisNtB6_12FileAnalyzer28analyze_file_characteristics00B8_
FN:322,_RNCNCNvMNtCshTszjfEXlqN_19nestgate_automation8analysisNtB6_12FileAnalyzer28analyze_file_characteristics0s_0B8_
FN:478,_RNCNCNvMs2_NtCshTszjfEXlqN_19nestgate_automation8analysisNtB9_15DatasetAnalyzer15analyze_dataset00Bb_
FN:59,_RNCNvMNtCshTszjfEXlqN_19nestgate_automation8analysisNtB4_12FileAnalyzer12analyze_file0B6_
FN:224,_RNCNvMNtCshTszjfEXlqN_19nestgate_automation8analysisNtB4_12FileAnalyzer14cache_analysis0B6_
FN:132,_RNCNvMNtCshTszjfEXlqN_19nestgate_automation8analysisNtB4_12FileAnalyzer17analyze_file_safe0B6_
FN:233,_RNCNvMNtCshTszjfEXlqN_19nestgate_automation8analysisNtB4_12FileAnalyzer19determine_file_type0B6_
FN:187,_RNCNvMNtCshTszjfEXlqN_19nestgate_automation8analysisNtB4_12FileAnalyzer19get_access_patterns0B6_
FN:211,_RNCNvMNtCshTszjfEXlqN_19nestgate_automation8analysisNtB4_12FileAnalyzer19get_cached_analysis0B6_
FN:119,_RNCNvMNtCshTszjfEXlqN_19nestgate_automation8analysisNtB4_12FileAnalyzer21analyze_file_flexible0B6_
FN:106,_RNCNvMNtCshTszjfEXlqN_19nestgate_automation8analysisNtB4_12FileAnalyzer22analyze_file_idiomatic0B6_
FN:257,_RNCNvMNtCshTszjfEXlqN_19nestgate_automation8analysisNtB4_12FileAnalyzer23analyze_characteristics0B6_
FN:159,_RNCNvMNtCshTszjfEXlqN_19nestgate_automation8analysisNtB4_12FileAnalyzer26analyze_file_comprehensive0B6_
FN:313,_RNCNvMNtCshTszjfEXlqN_19nestgate_automation8analysisNtB4_12FileAnalyzer28analyze_file_characteristics0B6_
FN:388,_RNCNvMs0_NtCshTszjfEXlqN_19nestgate_automation8analysisNtB7_15PatternAnalyzer12get_patterns0B9_
FN:372,_RNCNvMs0_NtCshTszjfEXlqN_19nestgate_automation8analysisNtB7_15PatternAnalyzer13record_access0B9_
FN:398,_RNCNvMs0_NtCshTszjfEXlqN_19nestgate_automation8analysisNtB7_15PatternAnalyzer14recommend_tier0B9_
FN:440,_RNCNvMs2_NtCshTszjfEXlqN_19nestgate_automation8analysisNtB7_15DatasetAnalyzer12analyze_file0B9_
FN:452,_RNCNvMs2_NtCshTszjfEXlqN_19nestgate_automation8analysisNtB7_15DatasetAnalyzer15analyze_dataset0B9_
FN:562,_RNCNvMs2_NtCshTszjfEXlqN_19nestgate_automation8analysisNtB7_15DatasetAnalyzer18aggregate_patterns0B9_
FN:513,_RNCNvMs2_NtCshTszjfEXlqN_19nestgate_automation8analysisNtB7_15DatasetAnalyzer22scan_dataset_directory0B9_
FN:642,_RNCNvNtCshTszjfEXlqN_19nestgate_automation8analysis30analyze_datasets_with_patterns0B5_
FN:59,_RNvMNtCshTszjfEXlqN_19nestgate_automation8analysisNtB2_12FileAnalyzer12analyze_file
FN:171,_RNvMNtCshTszjfEXlqN_19nestgate_automation8analysisNtB2_12FileAnalyzer12with_timeout
FN:224,_RNvMNtCshTszjfEXlqN_19nestgate_automation8analysisNtB2_12FileAnalyzer14cache_analysis
FN:164,_RNvMNtCshTszjfEXlqN_19nestgate_automation8analysisNtB2_12FileAnalyzer15with_cache_size
FN:132,_RNvMNtCshTszjfEXlqN_19nestgate_automation8analysisNtB2_12FileAnalyzer17analyze_file_safe
FN:230,_RNvMNtCshTszjfEXlqN_19nestgate_automation8analysisNtB2_12FileAnalyzer19determine_file_type
FN:184,_RNvMNtCshTszjfEXlqN_19nestgate_automation8analysisNtB2_12FileAnalyzer19get_access_patterns
FN:211,_RNvMNtCshTszjfEXlqN_19nestgate_automation8analysisNtB2_12FileAnalyzer19get_cached_analysis
FN:119,_RNvMNtCshTszjfEXlqN_19nestgate_automation8analysisNtB2_12FileAnalyzer21analyze_file_flexible
FN:106,_RNvMNtCshTszjfEXlqN_19nestgate_automation8analysisNtB2_12FileAnalyzer22analyze_file_idiomatic
FN:249,_RNvMNtCshTszjfEXlqN_19nestgate_automation8analysisNtB2_12FileAnalyzer23analyze_characteristics
FN:159,_RNvMNtCshTszjfEXlqN_19nestgate_automation8analysisNtB2_12FileAnalyzer26analyze_file_comprehensive
FN:310,_RNvMNtCshTszjfEXlqN_19nestgate_automation8analysisNtB2_12FileAnalyzer28analyze_file_characteristics
FN:45,_RNvMNtCshTszjfEXlqN_19nestgate_automation8analysisNtB2_12FileAnalyzer3new
FN:388,_RNvMs0_NtCshTszjfEXlqN_19nestgate_automation8analysisNtB5_15PatternAnalyzer12get_patterns
FN:372,_RNvMs0_NtCshTszjfEXlqN_19nestgate_automation8analysisNtB5_15PatternAnalyzer13record_access
FN:394,_RNvMs0_NtCshTszjfEXlqN_19nestgate_automation8analysisNtB5_15PatternAnalyzer14recommend_tier
FN:365,_RNvMs0_NtCshTszjfEXlqN_19nestgate_automation8analysisNtB5_15PatternAnalyzer3new
FN:440,_RNvMs2_NtCshTszjfEXlqN_19nestgate_automation8analysisNtB5_15DatasetAnalyzer12analyze_file
FN:452,_RNvMs2_NtCshTszjfEXlqN_19nestgate_automation8analysisNtB5_15DatasetAnalyzer15analyze_dataset
FN:558,_RNvMs2_NtCshTszjfEXlqN_19nestgate_automation8analysisNtB5_15DatasetAnalyzer18aggregate_patterns
FN:498,_RNvMs2_NtCshTszjfEXlqN_19nestgate_automation8analysisNtB5_15DatasetAnalyzer20predict_optimal_tier
FN:510,_RNvMs2_NtCshTszjfEXlqN_19nestgate_automation8analysisNtB5_15DatasetAnalyzer22scan_dataset_directory
FN:591,_RNvMs2_NtCshTszjfEXlqN_19nestgate_automation8analysisNtB5_15DatasetAnalyzer24generate_recommendations
FN:425,_RNvMs2_NtCshTszjfEXlqN_19nestgate_automation8analysisNtB5_15DatasetAnalyzer3new
FN:639,_RNvNtCshTszjfEXlqN_19nestgate_automation8analysis30analyze_datasets_with_patterns
FN:411,_RNvXs1_NtCshTszjfEXlqN_19nestgate_automation8analysisNtB5_15PatternAnalyzerNtNtCs5GmCzIpY9Qj_4core7default7Default7default
FN:621,_RNvXs3_NtCshTszjfEXlqN_19nestgate_automation8analysisNtB5_15DatasetAnalyzerNtNtCs5GmCzIpY9Qj_4core7default7Default7default
FN:353,_RNvXs_NtCshTszjfEXlqN_19nestgate_automation8analysisNtB4_12FileAnalyzerNtNtCs5GmCzIpY9Qj_4core7default7Default7default
FNDA:0,_RNCNCNvMNtCshTszjfEXlqN_19nestgate_automation8analysisNtB6_12FileAnalyzer12analyze_file00B8_
FNDA:0,_RNCNCNvMNtCshTszjfEXlqN_19nestgate_automation8analysisNtB6_12FileAnalyzer12analyze_file0s_0B8_
FNDA:0,_RNCNCNvMNtCshTszjfEXlqN_19nestgate_automation8analysisNtB6_12FileAnalyzer17analyze_file_safe00B8_
FNDA:0,_RNCNCNvMNtCshTszjfEXlqN_19nestgate_automation8analysisNtB6_12FileAnalyzer28analyze_file_characteristics00B8_
FNDA:0,_RNCNCNvMNtCshTszjfEXlqN_19nestgate_automation8analysisNtB6_12FileAnalyzer28analyze_file_characteristics0s_0B8_
FNDA:0,_RNCNCNvMs2_NtCshTszjfEXlqN_19nestgate_automation8analysisNtB9_15DatasetAnalyzer15analyze_dataset00Bb_
FNDA:0,_RNCNvMNtCshTszjfEXlqN_19nestgate_automation8analysisNtB4_12FileAnalyzer12analyze_file0B6_
FNDA:0,_RNCNvMNtCshTszjfEXlqN_19nestgate_automation8analysisNtB4_12FileAnalyzer14cache_analysis0B6_
FNDA:0,_RNCNvMNtCshTszjfEXlqN_19nestgate_automation8analysisNtB4_12FileAnalyzer17analyze_file_safe0B6_
FNDA:0,_RNCNvMNtCshTszjfEXlqN_19nestgate_automation8analysisNtB4_12FileAnalyzer19determine_file_type0B6_
FNDA:0,_RNCNvMNtCshTszjfEXlqN_19nestgate_automation8analysisNtB4_12FileAnalyzer19get_access_patterns0B6_
FNDA:0,_RNCNvMNtCshTszjfEXlqN_19nestgate_automation8analysisNtB4_12FileAnalyzer19get_cached_analysis0B6_
FNDA:0,_RNCNvMNtCshTszjfEXlqN_19nestgate_automation8analysisNtB4_12FileAnalyzer21analyze_file_flexible0B6_
FNDA:0,_RNCNvMNtCshTszjfEXlqN_19nestgate_automation8analysisNtB4_12FileAnalyzer22analyze_file_idiomatic0B6_
FNDA:0,_RNCNvMNtCshTszjfEXlqN_19nestgate_automation8analysisNtB4_12FileAnalyzer23analyze_characteristics0B6_
FNDA:0,_RNCNvMNtCshTszjfEXlqN_19nestgate_automation8analysisNtB4_12FileAnalyzer26analyze_file_comprehensive0B6_
FNDA:0,_RNCNvMNtCshTszjfEXlqN_19nestgate_automation8analysisNtB4_12FileAnalyzer28analyze_file_characteristics0B6_
FNDA:0,_RNCNvMs0_NtCshTszjfEXlqN_19nestgate_automation8analysisNtB7_15PatternAnalyzer12get_patterns0B9_
FNDA:0,_RNCNvMs0_NtCshTszjfEXlqN_19nestgate_automation8analysisNtB7_15PatternAnalyzer13record_access0B9_
FNDA:0,_RNCNvMs0_NtCshTszjfEXlqN_19nestgate_automation8analysisNtB7_15PatternAnalyzer14recommend_tier0B9_
FNDA:0,_RNCNvMs2_NtCshTszjfEXlqN_19nestgate_automation8analysisNtB7_15DatasetAnalyzer12analyze_file0B9_
FNDA:0,_RNCNvMs2_NtCshTszjfEXlqN_19nestgate_automation8analysisNtB7_15DatasetAnalyzer15analyze_dataset0B9_
FNDA:0,_RNCNvMs2_NtCshTszjfEXlqN_19nestgate_automation8analysisNtB7_15DatasetAnalyzer18aggregate_patterns0B9_
FNDA:0,_RNCNvMs2_NtCshTszjfEXlqN_19nestgate_automation8analysisNtB7_15DatasetAnalyzer22scan_dataset_directory0B9_
FNDA:0,_RNCNvNtCshTszjfEXlqN_19nestgate_automation8analysis30analyze_datasets_with_patterns0B5_
FNDA:0,_RNvMNtCshTszjfEXlqN_19nestgate_automation8analysisNtB2_12FileAnalyzer12analyze_file
FNDA:0,_RNvMNtCshTszjfEXlqN_19nestgate_automation8analysisNtB2_12FileAnalyzer12with_timeout
FNDA:0,_RNvMNtCshTszjfEXlqN_19nestgate_automation8analysisNtB2_12FileAnalyzer14cache_analysis
FNDA:0,_RNvMNtCshTszjfEXlqN_19nestgate_automation8analysisNtB2_12FileAnalyzer15with_cache_size
FNDA:0,_RNvMNtCshTszjfEXlqN_19nestgate_automation8analysisNtB2_12FileAnalyzer17analyze_file_safe
FNDA:0,_RNvMNtCshTszjfEXlqN_19nestgate_automation8analysisNtB2_12FileAnalyzer19determine_file_type
FNDA:0,_RNvMNtCshTszjfEXlqN_19nestgate_automation8analysisNtB2_12FileAnalyzer19get_access_patterns
FNDA:0,_RNvMNtCshTszjfEXlqN_19nestgate_automation8analysisNtB2_12FileAnalyzer19get_cached_analysis
FNDA:0,_RNvMNtCshTszjfEXlqN_19nestgate_automation8analysisNtB2_12FileAnalyzer21analyze_file_flexible
FNDA:0,_RNvMNtCshTszjfEXlqN_19nestgate_automation8analysisNtB2_12FileAnalyzer22analyze_file_idiomatic
FNDA:0,_RNvMNtCshTszjfEXlqN_19nestgate_automation8analysisNtB2_12FileAnalyzer23analyze_characteristics
FNDA:0,_RNvMNtCshTszjfEXlqN_19nestgate_automation8analysisNtB2_12FileAnalyzer26analyze_file_comprehensive
FNDA:0,_RNvMNtCshTszjfEXlqN_19nestgate_automation8analysisNtB2_12FileAnalyzer28analyze_file_characteristics
FNDA:0,_RNvMNtCshTszjfEXlqN_19nestgate_automation8analysisNtB2_12FileAnalyzer3new
FNDA:0,_RNvMs0_NtCshTszjfEXlqN_19nestgate_automation8analysisNtB5_15PatternAnalyzer12get_patterns
FNDA:0,_RNvMs0_NtCshTszjfEXlqN_19nestgate_automation8analysisNtB5_15PatternAnalyzer13record_access
FNDA:0,_RNvMs0_NtCshTszjfEXlqN_19nestgate_automation8analysisNtB5_15PatternAnalyzer14recommend_tier
FNDA:0,_RNvMs0_NtCshTszjfEXlqN_19nestgate_automation8analysisNtB5_15PatternAnalyzer3new
FNDA:0,_RNvMs2_NtCshTszjfEXlqN_19nestgate_automation8analysisNtB5_15DatasetAnalyzer12analyze_file
FNDA:0,_RNvMs2_NtCshTszjfEXlqN_19nestgate_automation8analysisNtB5_15DatasetAnalyzer15analyze_dataset
FNDA:0,_RNvMs2_NtCshTszjfEXlqN_19nestgate_automation8analysisNtB5_15DatasetAnalyzer18aggregate_patterns
FNDA:0,_RNvMs2_NtCshTszjfEXlqN_19nestgate_automation8analysisNtB5_15DatasetAnalyzer20predict_optimal_tier
FNDA:0,_RNvMs2_NtCshTszjfEXlqN_19nestgate_automation8analysisNtB5_15DatasetAnalyzer22scan_dataset_directory
FNDA:0,_RNvMs2_NtCshTszjfEXlqN_19nestgate_automation8analysisNtB5_15DatasetAnalyzer24generate_recommendations
FNDA:0,_RNvMs2_NtCshTszjfEXlqN_19nestgate_automation8analysisNtB5_15DatasetAnalyzer3new
FNDA:0,_RNvNtCshTszjfEXlqN_19nestgate_automation8analysis30analyze_datasets_with_patterns
FNDA:0,_RNvXs1_NtCshTszjfEXlqN_19nestgate_automation8analysisNtB5_15PatternAnalyzerNtNtCs5GmCzIpY9Qj_4core7default7Default7default
FNDA:0,_RNvXs3_NtCshTszjfEXlqN_19nestgate_automation8analysisNtB5_15DatasetAnalyzerNtNtCs5GmCzIpY9Qj_4core7default7Default7default
FNDA:0,_RNvXs_NtCshTszjfEXlqN_19nestgate_automation8analysisNtB4_12FileAnalyzerNtNtCs5GmCzIpY9Qj_4core7default7Default7default
FNF:54
FNH:0
DA:45,0
DA:46,0
DA:47,0
DA:48,0
DA:49,0
DA:59,0
DA:61,0
DA:62,0
DA:63,0
DA:65,0
DA:66,0
DA:67,0
DA:68,0
DA:70,0
DA:71,0
DA:72,0
DA:74,0
DA:75,0
DA:76,0
DA:77,0
DA:78,0
DA:79,0
DA:80,0
DA:81,0
DA:83,0
DA:84,0
DA:85,0
DA:86,0
DA:87,0
DA:88,0
DA:89,0
DA:90,0
DA:91,0
DA:92,0
DA:94,0
DA:95,0
DA:106,0
DA:108,0
DA:109,0
DA:119,0
DA:120,0
DA:121,0
DA:132,0
DA:133,0
DA:135,0
DA:136,0
DA:137,0
DA:139,0
DA:140,0
DA:141,0
DA:142,0
DA:143,0
DA:144,0
DA:145,0
DA:146,0
DA:148,0
DA:149,0
DA:159,0
DA:160,0
DA:161,0
DA:164,0
DA:166,0
DA:167,0
DA:171,0
DA:173,0
DA:174,0
DA:184,0
DA:185,0
DA:186,0
DA:187,0
DA:189,0
DA:192,0
DA:193,0
DA:195,0
DA:199,0
DA:200,0
DA:201,0
DA:202,0
DA:203,0
DA:204,0
DA:205,0
DA:206,0
DA:207,0
DA:208,0
DA:211,0
DA:212,0
DA:213,0
DA:215,0
DA:216,0
DA:217,0
DA:218,0
DA:219,0
DA:220,0
DA:224,0
DA:225,0
DA:226,0
DA:227,0
DA:230,0
DA:231,0
DA:232,0
DA:233,0
DA:234,0
DA:235,0
DA:237,0
DA:238,0
DA:239,0
DA:240,0
DA:241,0
DA:242,0
DA:243,0
DA:244,0
DA:246,0
DA:249,0
DA:250,0
DA:251,0
DA:252,0
DA:253,0
DA:254,0
DA:255,0
DA:256,0
DA:257,0
DA:258,0
DA:259,0
DA:262,0
DA:263,0
DA:264,0
DA:265,0
DA:266,0
DA:267,0
DA:268,0
DA:273,0
DA:276,0
DA:277,0
DA:279,0
DA:280,0
DA:281,0
DA:286,0
DA:287,0
DA:288,0
DA:289,0
DA:290,0
DA:291,0
DA:293,0
DA:296,0
DA:297,0
DA:298,0
DA:300,0
DA:310,0
DA:311,0
DA:312,0
DA:313,0
DA:315,0
DA:316,0
DA:317,0
DA:320,0
DA:321,0
DA:322,0
DA:323,0
DA:325,0
DA:326,0
DA:327,0
DA:330,0
DA:332,0
DA:335,0
DA:336,0
DA:337,0
DA:338,0
DA:339,0
DA:340,0
DA:342,0
DA:347,0
DA:349,0
DA:353,0
DA:354,0
DA:355,0
DA:365,0
DA:366,0
DA:367,0
DA:368,0
DA:369,0
DA:372,0
DA:373,0
DA:374,0
DA:375,0
DA:376,0
DA:377,0
DA:378,0
DA:380,0
DA:381,0
DA:382,0
DA:383,0
DA:384,0
DA:385,0
DA:388,0
DA:389,0
DA:390,0
DA:391,0
DA:394,0
DA:396,0
DA:397,0
DA:398,0
DA:399,0
DA:401,0
DA:402,0
DA:403,0
DA:404,0
DA:405,0
DA:407,0
DA:411,0
DA:412,0
DA:413,0
DA:425,0
DA:426,0
DA:427,0
DA:428,0
DA:429,0
DA:430,0
DA:440,0
DA:441,0
DA:442,0
DA:452,0
DA:453,0
DA:455,0
DA:456,0
DA:457,0
DA:458,0
DA:459,0
DA:461,0
DA:463,0
DA:464,0
DA:465,0
DA:466,0
DA:467,0
DA:468,0
DA:470,0
DA:473,0
DA:474,0
DA:475,0
DA:476,0
DA:477,0
DA:478,0
DA:479,0
DA:480,0
DA:481,0
DA:482,0
DA:483,0
DA:484,0
DA:485,0
DA:486,0
DA:488,0
DA:498,0
DA:500,0
DA:501,0
DA:502,0
DA:503,0
DA:505,0
DA:507,0
DA:510,0
DA:511,0
DA:512,0
DA:513,0
DA:515,0
DA:516,0
DA:517,0
DA:519,0
DA:520,0
DA:521,0
DA:523,0
DA:524,0
DA:525,0
DA:526,0
DA:527,0
DA:529,0
DA:530,0
DA:531,0
DA:532,0
DA:533,0
DA:534,0
DA:535,0
DA:539,0
DA:540,0
DA:541,0
DA:542,0
DA:543,0
DA:545,0
DA:547,0
DA:548,0
DA:558,0
DA:559,0
DA:560,0
DA:561,0
DA:562,0
DA:563,0
DA:564,0
DA:565,0
DA:568,0
DA:569,0
DA:570,0
DA:572,0
DA:573,0
DA:574,0
DA:577,0
DA:579,0
DA:580,0
DA:581,0
DA:582,0
DA:583,0
DA:584,0
DA:585,0
DA:586,0
DA:587,0
DA:588,0
DA:591,0
DA:592,0
DA:593,0
DA:594,0
DA:595,0
DA:596,0
DA:598,0
DA:600,0
DA:601,0
DA:602,0
DA:603,0
DA:606,0
DA:608,0
DA:609,0
DA:610,0
DA:614,0
DA:616,0
DA:617,0
DA:621,0
DA:622,0
DA:623,0
DA:639,0
DA:640,0
DA:641,0
DA:642,0
DA:643,0
DA:645,0
DA:646,0
DA:647,0
DA:648,0
DA:649,0
DA:650,0
DA:651,0
DA:652,0
DA:659,0
DA:660,0
BRF:0
BRH:0
LF:376
LH:0
end_of_record
SF:/home/eastgate/Development/ecoPrimals/nestgate/code/crates/nestgate-automation/src/error.rs
FN:282,_RNvNtNtCshTszjfEXlqN_19nestgate_automation5error5testss_15test_error_size
FN:103,_RNvNtNtCshTszjfEXlqN_19nestgate_automation5error5testss_16test_error_clone
FN:110,_RNvNtNtCshTszjfEXlqN_19nestgate_automation5error5testss_16test_error_debug
FN:117,_RNvNtNtCshTszjfEXlqN_19nestgate_automation5error5testss_18test_from_io_error
FN:215,_RNvNtNtCshTszjfEXlqN_19nestgate_automation5error5testss_18test_serialization
FN:223,_RNvNtNtCshTszjfEXlqN_19nestgate_automation5error5testss_20test_deserialization
FN:95,_RNvNtNtCshTszjfEXlqN_19nestgate_automation5error5testss_21test_io_error_display
FN:163,_RNvNtNtCshTszjfEXlqN_19nestgate_automation5error5testss_22test_io_error_creation
FN:206,_RNvNtNtCshTszjfEXlqN_19nestgate_automation5error5testss_22test_unicode_in_errors
FN:127,_RNvNtNtCshTszjfEXlqN_19nestgate_automation5error5testss_23test_error_is_send_sync
FN:272,_RNvNtNtCshTszjfEXlqN_19nestgate_automation5error5testss_24test_from_nestgate_error
FN:190,_RNvNtNtCshTszjfEXlqN_19nestgate_automation5error5testss_24test_long_error_messages
FN:87,_RNvNtNtCshTszjfEXlqN_19nestgate_automation5error5testss_25test_config_error_display
FN:179,_RNvNtNtCshTszjfEXlqN_19nestgate_automation5error5testss_25test_empty_error_messages
FN:242,_RNvNtNtCshTszjfEXlqN_19nestgate_automation5error5testss_25test_multiple_error_types
FN:264,_RNvNtNtCshTszjfEXlqN_19nestgate_automation5error5testss_25test_nested_error_display
FN:153,_RNvNtNtCshTszjfEXlqN_19nestgate_automation5error5testss_26test_config_error_creation
FN:71,_RNvNtNtCshTszjfEXlqN_19nestgate_automation5error5testss_27test_analysis_error_display
FN:305,_RNvNtNtCshTszjfEXlqN_19nestgate_automation5error5testss_28test_all_variants_debuggable
FN:133,_RNvNtNtCshTszjfEXlqN_19nestgate_automation5error5testss_28test_analysis_error_creation
FN:289,_RNvNtNtCshTszjfEXlqN_19nestgate_automation5error5testss_29test_all_variants_displayable
FN:79,_RNvNtNtCshTszjfEXlqN_19nestgate_automation5error5testss_29test_prediction_error_display
FN:234,_RNvNtNtCshTszjfEXlqN_19nestgate_automation5error5testss_29test_round_trip_serialization
FN:60,_RNvNtNtCshTszjfEXlqN_19nestgate_automation5error5testss_30test_automation_error_variants
FN:143,_RNvNtNtCshTszjfEXlqN_19nestgate_automation5error5testss_30test_prediction_error_creation
FN:256,_RNvNtNtCshTszjfEXlqN_19nestgate_automation5error5testss_31test_error_equality_after_clone
FN:173,_RNvNtNtCshTszjfEXlqN_19nestgate_automation5error5testss_31test_error_trait_implementation
FN:198,_RNvNtNtCshTszjfEXlqN_19nestgate_automation5error5testss_33test_special_characters_in_errors
FN:20,_RNvXNtCshTszjfEXlqN_19nestgate_automation5errorNtB2_15AutomationErrorNtNtCs5GmCzIpY9Qj_4core3fmt7Display3fmt
FN:34,_RNvXs0_NtCshTszjfEXlqN_19nestgate_automation5errorNtB5_15AutomationErrorINtNtCs5GmCzIpY9Qj_4core7convert4FromNtNtNtNtCserJaDiv4hKx_13nestgate_core5error8variants11core_errors20NestGateUnifiedErrorE4from
FN:40,_RNvXs1_NtCshTszjfEXlqN_19nestgate_automation5errorNtB5_15AutomationErrorINtNtCs5GmCzIpY9Qj_4core7convert4FromNtNtNtCscKkwsb9kWaL_3std2io5error5ErrorE4from
FN:128,_RINvNvNtNtCshTszjfEXlqN_19nestgate_automation5error5testss_23test_error_is_send_sync16assert_send_syncNtB6_15AutomationErrorEB8_
FN:51,_RNvNtCshTszjfEXlqN_19nestgate_automation5error16automation_error
FNDA:1,_RNvNtNtCshTszjfEXlqN_19nestgate_automation5error5testss_15test_error_size
FNDA:1,_RNvNtNtCshTszjfEXlqN_19nestgate_automation5error5testss_16test_error_clone
FNDA:1,_RNvNtNtCshTszjfEXlqN_19nestgate_automation5error5testss_16test_error_debug
FNDA:1,_RNvNtNtCshTszjfEXlqN_19nestgate_automation5error5testss_18test_from_io_error
FNDA:1,_RNvNtNtCshTszjfEXlqN_19nestgate_automation5error5testss_18test_serialization
FNDA:1,_RNvNtNtCshTszjfEXlqN_19nestgate_automation5error5testss_20test_deserialization
FNDA:1,_RNvNtNtCshTszjfEXlqN_19nestgate_automation5error5testss_21test_io_error_display
FNDA:1,_RNvNtNtCshTszjfEXlqN_19nestgate_automation5error5testss_22test_io_error_creation
FNDA:1,_RNvNtNtCshTszjfEXlqN_19nestgate_automation5error5testss_22test_unicode_in_errors
FNDA:1,_RNvNtNtCshTszjfEXlqN_19nestgate_automation5error5testss_23test_error_is_send_sync
FNDA:1,_RNvNtNtCshTszjfEXlqN_19nestgate_automation5error5testss_24test_from_nestgate_error
FNDA:1,_RNvNtNtCshTszjfEXlqN_19nestgate_automation5error5testss_24test_long_error_messages
FNDA:1,_RNvNtNtCshTszjfEXlqN_19nestgate_automation5error5testss_25test_config_error_display
FNDA:1,_RNvNtNtCshTszjfEXlqN_19nestgate_automation5error5testss_25test_empty_error_messages
FNDA:1,_RNvNtNtCshTszjfEXlqN_19nestgate_automation5error5testss_25test_multiple_error_types
FNDA:1,_RNvNtNtCshTszjfEXlqN_19nestgate_automation5error5testss_25test_nested_error_display
FNDA:1,_RNvNtNtCshTszjfEXlqN_19nestgate_automation5error5testss_26test_config_error_creation
FNDA:1,_RNvNtNtCshTszjfEXlqN_19nestgate_automation5error5testss_27test_analysis_error_display
FNDA:1,_RNvNtNtCshTszjfEXlqN_19nestgate_automation5error5testss_28test_all_variants_debuggable
FNDA:1,_RNvNtNtCshTszjfEXlqN_19nestgate_automation5error5testss_28test_analysis_error_creation
FNDA:1,_RNvNtNtCshTszjfEXlqN_19nestgate_automation5error5testss_29test_all_variants_displayable
FNDA:1,_RNvNtNtCshTszjfEXlqN_19nestgate_automation5error5testss_29test_prediction_error_display
FNDA:1,_RNvNtNtCshTszjfEXlqN_19nestgate_automation5error5testss_29test_round_trip_serialization
FNDA:1,_RNvNtNtCshTszjfEXlqN_19nestgate_automation5error5testss_30test_automation_error_variants
FNDA:1,_RNvNtNtCshTszjfEXlqN_19nestgate_automation5error5testss_30test_prediction_error_creation
FNDA:1,_RNvNtNtCshTszjfEXlqN_19nestgate_automation5error5testss_31test_error_equality_after_clone
FNDA:1,_RNvNtNtCshTszjfEXlqN_19nestgate_automation5error5testss_31test_error_trait_implementation
FNDA:1,_RNvNtNtCshTszjfEXlqN_19nestgate_automation5error5testss_33test_special_characters_in_errors
FNDA:21,_RNvXNtCshTszjfEXlqN_19nestgate_automation5errorNtB2_15AutomationErrorNtNtCs5GmCzIpY9Qj_4core3fmt7Display3fmt
FNDA:1,_RNvXs0_NtCshTszjfEXlqN_19nestgate_automation5errorNtB5_15AutomationErrorINtNtCs5GmCzIpY9Qj_4core7convert4FromNtNtNtNtCserJaDiv4hKx_13nestgate_core5error8variants11core_errors20NestGateUnifiedErrorE4from
FNDA:1,_RNvXs1_NtCshTszjfEXlqN_19nestgate_automation5errorNtB5_15AutomationErrorINtNtCs5GmCzIpY9Qj_4core7convert4FromNtNtNtCscKkwsb9kWaL_3std2io5error5ErrorE4from
FNDA:1,_RINvNvNtNtCshTszjfEXlqN_19nestgate_automation5error5testss_23test_error_is_send_sync16assert_send_syncNtB6_15AutomationErrorEB8_
FNDA:0,_RNvNtCshTszjfEXlqN_19nestgate_automation5error16automation_error
FNF:33
FNH:32
DA:20,21
DA:21,21
DA:22,9
DA:23,5
DA:24,4
DA:25,2
DA:26,1
DA:28,21
DA:34,1
DA:35,1
DA:36,1
DA:40,1
DA:41,1
DA:42,1
DA:51,0
DA:52,0
DA:53,0
DA:60,1
DA:61,1
DA:62,1
DA:63,1
DA:64,1
DA:65,1
DA:67,1
DA:68,1
DA:71,1
DA:72,1
DA:73,1
DA:74,1
DA:75,1
DA:76,1
DA:79,1
DA:80,1
DA:81,1
DA:82,1
DA:83,1
DA:84,1
DA:87,1
DA:88,1
DA:89,1
DA:90,1
DA:91,1
DA:92,1
DA:95,1
DA:96,1
DA:97,1
DA:98,1
DA:99,1
DA:100,1
DA:103,1
DA:104,1
DA:105,1
DA:106,1
DA:107,1
DA:110,1
DA:111,1
DA:112,1
DA:113,1
DA:114,1
DA:117,1
DA:118,1
DA:119,1
DA:120,1
DA:121,1
DA:122,0
DA:124,1
DA:127,1
DA:128,1
DA:129,1
DA:130,1
DA:133,1
DA:134,1
DA:135,1
DA:136,1
DA:138,0
DA:140,1
DA:143,1
DA:144,1
DA:145,1
DA:146,1
DA:148,0
DA:150,1
DA:153,1
DA:154,1
DA:155,1
DA:156,1
DA:158,0
DA:160,1
DA:163,1
DA:164,1
DA:165,1
DA:166,1
DA:168,0
DA:170,1
DA:173,1
DA:174,1
DA:175,1
DA:176,1
DA:179,1
DA:180,1
DA:181,1
DA:182,1
DA:183,1
DA:184,1
DA:186,1
DA:187,1
DA:190,1
DA:191,1
DA:192,1
DA:193,1
DA:194,1
DA:195,1
DA:198,1
DA:199,1
DA:200,1
DA:201,1
DA:202,1
DA:203,1
DA:206,1
DA:207,1
DA:208,1
DA:209,1
DA:210,1
DA:211,1
DA:212,1
DA:215,1
DA:216,1
DA:217,1
DA:218,1
DA:219,1
DA:220,1
DA:223,1
DA:224,1
DA:225,1
DA:226,1
DA:227,1
DA:229,0
DA:231,1
DA:234,1
DA:235,1
DA:236,1
DA:237,1
DA:238,1
DA:239,1
DA:242,1
DA:243,1
DA:244,1
DA:245,1
DA:246,1
DA:249,3
DA:250,3
DA:251,3
DA:253,1
DA:256,1
DA:257,1
DA:258,1
DA:259,1
DA:260,1
DA:261,1
DA:264,1
DA:265,1
DA:266,1
DA:267,1
DA:268,1
DA:269,1
DA:272,1
DA:273,1
DA:274,1
DA:275,1
DA:276,1
DA:277,0
DA:279,1
DA:282,1
DA:285,1
DA:286,1
DA:289,1
DA:290,1
DA:291,1
DA:292,1
DA:293,1
DA:294,1
DA:297,5
DA:298,4
DA:299,4
DA:300,4
DA:302,1
DA:305,1
DA:306,1
DA:307,1
DA:308,1
DA:309,1
DA:310,1
DA:313,5
DA:314,4
DA:315,4
DA:317,1
BRF:0
BRH:0
LF:196
LH:186
end_of_record
SF:/home/eastgate/Development/ecoPrimals/nestgate/code/crates/nestgate-automation/src/lifecycle.rs
FN:448,_RNCNCNvMs0_NtCshTszjfEXlqN_19nestgate_automation9lifecycleNtB9_23DatasetLifecycleManager15start_scheduler00Bb_
FN:464,_RNCNCNvMs0_NtCshTszjfEXlqN_19nestgate_automation9lifecycleNtB9_23DatasetLifecycleManager15start_scheduler0s_0Bb_
FN:318,_RNCNCNvMs0_NtCshTszjfEXlqN_19nestgate_automation9lifecycleNtB9_23DatasetLifecycleManager16evaluate_dataset00Bb_
FN:348,_RNCNCNvMs0_NtCshTszjfEXlqN_19nestgate_automation9lifecycleNtB9_23DatasetLifecycleManager16evaluate_dataset0s_0Bb_
FN:505,_RNCNCNvMs0_NtCshTszjfEXlqN_19nestgate_automation9lifecycleNtB9_23DatasetLifecycleManager20add_default_policies00Bb_
FN:573,_RNCNCNvMs0_NtCshTszjfEXlqN_19nestgate_automation9lifecycleNtB9_23DatasetLifecycleManager20add_default_policies0s_0Bb_
FN:603,_RNCNCNvMs0_NtCshTszjfEXlqN_19nestgate_automation9lifecycleNtB9_23DatasetLifecycleManager23get_applicable_policies00Bb_
FN:433,_RNCNvMs0_NtCshTszjfEXlqN_19nestgate_automation9lifecycleNtB7_23DatasetLifecycleManager10add_policy0B9_
FN:221,_RNCNvMs0_NtCshTszjfEXlqN_19nestgate_automation9lifecycleNtB7_23DatasetLifecycleManager10initialize0B9_
FN:262,_RNCNvMs0_NtCshTszjfEXlqN_19nestgate_automation9lifecycleNtB7_23DatasetLifecycleManager11add_dataset0B9_
FN:205,_RNCNvMs0_NtCshTszjfEXlqN_19nestgate_automation9lifecycleNtB7_23DatasetLifecycleManager11with_config0B9_
FN:368,_RNCNvMs0_NtCshTszjfEXlqN_19nestgate_automation9lifecycleNtB7_23DatasetLifecycleManager14execute_action0B9_
FN:293,_RNCNvMs0_NtCshTszjfEXlqN_19nestgate_automation9lifecycleNtB7_23DatasetLifecycleManager14remove_dataset0B9_
FN:440,_RNCNvMs0_NtCshTszjfEXlqN_19nestgate_automation9lifecycleNtB7_23DatasetLifecycleManager15start_scheduler0B9_
FN:310,_RNCNvMs0_NtCshTszjfEXlqN_19nestgate_automation9lifecycleNtB7_23DatasetLifecycleManager16evaluate_dataset0B9_
FN:421,_RNCNvMs0_NtCshTszjfEXlqN_19nestgate_automation9lifecycleNtB7_23DatasetLifecycleManager17get_dataset_state0B9_
FN:654,_RNCNvMs0_NtCshTszjfEXlqN_19nestgate_automation9lifecycleNtB7_23DatasetLifecycleManager19evaluate_conditions0B9_
FN:490,_RNCNvMs0_NtCshTszjfEXlqN_19nestgate_automation9lifecycleNtB7_23DatasetLifecycleManager20add_default_policies0B9_
FN:613,_RNCNvMs0_NtCshTszjfEXlqN_19nestgate_automation9lifecycleNtB7_23DatasetLifecycleManager20evaluate_transitions0B9_
FN:710,_RNCNvMs0_NtCshTszjfEXlqN_19nestgate_automation9lifecycleNtB7_23DatasetLifecycleManager20update_dataset_stage0B9_
FN:599,_RNCNvMs0_NtCshTszjfEXlqN_19nestgate_automation9lifecycleNtB7_23DatasetLifecycleManager23get_applicable_policies0B9_
FN:728,_RNCNvMs0_NtCshTszjfEXlqN_19nestgate_automation9lifecycleNtB7_23DatasetLifecycleManager23update_evaluation_stats0B9_
FN:242,_RNCNvMs0_NtCshTszjfEXlqN_19nestgate_automation9lifecycleNtB7_23DatasetLifecycleManager8shutdown0B9_
FN:416,_RNCNvMs0_NtCshTszjfEXlqN_19nestgate_automation9lifecycleNtB7_23DatasetLifecycleManager9get_stats0B9_
FN:154,_RNCNvXNtCshTszjfEXlqN_19nestgate_automation9lifecycleNtB4_15LifecycleConfigNtNtCs5GmCzIpY9Qj_4core7default7Default7default0B6_
FN:433,_RNvMs0_NtCshTszjfEXlqN_19nestgate_automation9lifecycleNtB5_23DatasetLifecycleManager10add_policy
FN:221,_RNvMs0_NtCshTszjfEXlqN_19nestgate_automation9lifecycleNtB5_23DatasetLifecycleManager10initialize
FN:262,_RNvMs0_NtCshTszjfEXlqN_19nestgate_automation9lifecycleNtB5_23DatasetLifecycleManager11add_dataset
FN:195,_RNvMs0_NtCshTszjfEXlqN_19nestgate_automation9lifecycleNtB5_23DatasetLifecycleManager11with_config
FN:368,_RNvMs0_NtCshTszjfEXlqN_19nestgate_automation9lifecycleNtB5_23DatasetLifecycleManager14execute_action
FN:293,_RNvMs0_NtCshTszjfEXlqN_19nestgate_automation9lifecycleNtB5_23DatasetLifecycleManager14remove_dataset
FN:440,_RNvMs0_NtCshTszjfEXlqN_19nestgate_automation9lifecycleNtB5_23DatasetLifecycleManager15start_scheduler
FN:310,_RNvMs0_NtCshTszjfEXlqN_19nestgate_automation9lifecycleNtB5_23DatasetLifecycleManager16evaluate_dataset
FN:421,_RNvMs0_NtCshTszjfEXlqN_19nestgate_automation9lifecycleNtB5_23DatasetLifecycleManager17get_dataset_state
FN:650,_RNvMs0_NtCshTszjfEXlqN_19nestgate_automation9lifecycleNtB5_23DatasetLifecycleManager19evaluate_conditions
FN:490,_RNvMs0_NtCshTszjfEXlqN_19nestgate_automation9lifecycleNtB5_23DatasetLifecycleManager20add_default_policies
FN:609,_RNvMs0_NtCshTszjfEXlqN_19nestgate_automation9lifecycleNtB5_23DatasetLifecycleManager20evaluate_transitions
FN:706,_RNvMs0_NtCshTszjfEXlqN_19nestgate_automation9lifecycleNtB5_23DatasetLifecycleManager20update_dataset_stage
FN:599,_RNvMs0_NtCshTszjfEXlqN_19nestgate_automation9lifecycleNtB5_23DatasetLifecycleManager23get_applicable_policies
FN:728,_RNvMs0_NtCshTszjfEXlqN_19nestgate_automation9lifecycleNtB5_23DatasetLifecycleManager23update_evaluation_stats
FN:664,_RNvMs0_NtCshTszjfEXlqN_19nestgate_automation9lifecycleNtB5_23DatasetLifecycleManager25evaluate_single_condition
FN:190,_RNvMs0_NtCshTszjfEXlqN_19nestgate_automation9lifecycleNtB5_23DatasetLifecycleManager3new
FN:242,_RNvMs0_NtCshTszjfEXlqN_19nestgate_automation9lifecycleNtB5_23DatasetLifecycleManager8shutdown
FN:416,_RNvMs0_NtCshTszjfEXlqN_19nestgate_automation9lifecycleNtB5_23DatasetLifecycleManager9get_stats
FN:149,_RNvXNtCshTszjfEXlqN_19nestgate_automation9lifecycleNtB2_15LifecycleConfigNtNtCs5GmCzIpY9Qj_4core7default7Default7default
FN:183,_RNvXs_NtCshTszjfEXlqN_19nestgate_automation9lifecycleNtB4_23DatasetLifecycleManagerNtNtCs5GmCzIpY9Qj_4core7default7Default7default
FNDA:0,_RNCNCNvMs0_NtCshTszjfEXlqN_19nestgate_automation9lifecycleNtB9_23DatasetLifecycleManager15start_scheduler00Bb_
FNDA:0,_RNCNCNvMs0_NtCshTszjfEXlqN_19nestgate_automation9lifecycleNtB9_23DatasetLifecycleManager15start_scheduler0s_0Bb_
FNDA:0,_RNCNCNvMs0_NtCshTszjfEXlqN_19nestgate_automation9lifecycleNtB9_23DatasetLifecycleManager16evaluate_dataset00Bb_
FNDA:0,_RNCNCNvMs0_NtCshTszjfEXlqN_19nestgate_automation9lifecycleNtB9_23DatasetLifecycleManager16evaluate_dataset0s_0Bb_
FNDA:0,_RNCNCNvMs0_NtCshTszjfEXlqN_19nestgate_automation9lifecycleNtB9_23DatasetLifecycleManager20add_default_policies00Bb_
FNDA:0,_RNCNCNvMs0_NtCshTszjfEXlqN_19nestgate_automation9lifecycleNtB9_23DatasetLifecycleManager20add_default_policies0s_0Bb_
FNDA:0,_RNCNCNvMs0_NtCshTszjfEXlqN_19nestgate_automation9lifecycleNtB9_23DatasetLifecycleManager23get_applicable_policies00Bb_
FNDA:0,_RNCNvMs0_NtCshTszjfEXlqN_19nestgate_automation9lifecycleNtB7_23DatasetLifecycleManager10add_policy0B9_
FNDA:0,_RNCNvMs0_NtCshTszjfEXlqN_19nestgate_automation9lifecycleNtB7_23DatasetLifecycleManager10initialize0B9_
FNDA:0,_RNCNvMs0_NtCshTszjfEXlqN_19nestgate_automation9lifecycleNtB7_23DatasetLifecycleManager11add_dataset0B9_
FNDA:0,_RNCNvMs0_NtCshTszjfEXlqN_19nestgate_automation9lifecycleNtB7_23DatasetLifecycleManager11with_config0B9_
FNDA:0,_RNCNvMs0_NtCshTszjfEXlqN_19nestgate_automation9lifecycleNtB7_23DatasetLifecycleManager14execute_action0B9_
FNDA:0,_RNCNvMs0_NtCshTszjfEXlqN_19nestgate_automation9lifecycleNtB7_23DatasetLifecycleManager14remove_dataset0B9_
FNDA:0,_RNCNvMs0_NtCshTszjfEXlqN_19nestgate_automation9lifecycleNtB7_23DatasetLifecycleManager15start_scheduler0B9_
FNDA:0,_RNCNvMs0_NtCshTszjfEXlqN_19nestgate_automation9lifecycleNtB7_23DatasetLifecycleManager16evaluate_dataset0B9_
FNDA:0,_RNCNvMs0_NtCshTszjfEXlqN_19nestgate_automation9lifecycleNtB7_23DatasetLifecycleManager17get_dataset_state0B9_
FNDA:0,_RNCNvMs0_NtCshTszjfEXlqN_19nestgate_automation9lifecycleNtB7_23DatasetLifecycleManager19evaluate_conditions0B9_
FNDA:0,_RNCNvMs0_NtCshTszjfEXlqN_19nestgate_automation9lifecycleNtB7_23DatasetLifecycleManager20add_default_policies0B9_
FNDA:0,_RNCNvMs0_NtCshTszjfEXlqN_19nestgate_automation9lifecycleNtB7_23DatasetLifecycleManager20evaluate_transitions0B9_
FNDA:0,_RNCNvMs0_NtCshTszjfEXlqN_19nestgate_automation9lifecycleNtB7_23DatasetLifecycleManager20update_dataset_stage0B9_
FNDA:0,_RNCNvMs0_NtCshTszjfEXlqN_19nestgate_automation9lifecycleNtB7_23DatasetLifecycleManager23get_applicable_policies0B9_
FNDA:0,_RNCNvMs0_NtCshTszjfEXlqN_19nestgate_automation9lifecycleNtB7_23DatasetLifecycleManager23update_evaluation_stats0B9_
FNDA:0,_RNCNvMs0_NtCshTszjfEXlqN_19nestgate_automation9lifecycleNtB7_23DatasetLifecycleManager8shutdown0B9_
FNDA:0,_RNCNvMs0_NtCshTszjfEXlqN_19nestgate_automation9lifecycleNtB7_23DatasetLifecycleManager9get_stats0B9_
FNDA:0,_RNCNvXNtCshTszjfEXlqN_19nestgate_automation9lifecycleNtB4_15LifecycleConfigNtNtCs5GmCzIpY9Qj_4core7default7Default7default0B6_
FNDA:0,_RNvMs0_NtCshTszjfEXlqN_19nestgate_automation9lifecycleNtB5_23DatasetLifecycleManager10add_policy
FNDA:0,_RNvMs0_NtCshTszjfEXlqN_19nestgate_automation9lifecycleNtB5_23DatasetLifecycleManager10initialize
FNDA:0,_RNvMs0_NtCshTszjfEXlqN_19nestgate_automation9lifecycleNtB5_23DatasetLifecycleManager11add_dataset
FNDA:0,_RNvMs0_NtCshTszjfEXlqN_19nestgate_automation9lifecycleNtB5_23DatasetLifecycleManager11with_config
FNDA:0,_RNvMs0_NtCshTszjfEXlqN_19nestgate_automation9lifecycleNtB5_23DatasetLifecycleManager14execute_action
FNDA:0,_RNvMs0_NtCshTszjfEXlqN_19nestgate_automation9lifecycleNtB5_23DatasetLifecycleManager14remove_dataset
FNDA:0,_RNvMs0_NtCshTszjfEXlqN_19nestgate_automation9lifecycleNtB5_23DatasetLifecycleManager15start_scheduler
FNDA:0,_RNvMs0_NtCshTszjfEXlqN_19nestgate_automation9lifecycleNtB5_23DatasetLifecycleManager16evaluate_dataset
FNDA:0,_RNvMs0_NtCshTszjfEXlqN_19nestgate_automation9lifecycleNtB5_23DatasetLifecycleManager17get_dataset_state
FNDA:0,_RNvMs0_NtCshTszjfEXlqN_19nestgate_automation9lifecycleNtB5_23DatasetLifecycleManager19evaluate_conditions
FNDA:0,_RNvMs0_NtCshTszjfEXlqN_19nestgate_automation9lifecycleNtB5_23DatasetLifecycleManager20add_default_policies
FNDA:0,_RNvMs0_NtCshTszjfEXlqN_19nestgate_automation9lifecycleNtB5_23DatasetLifecycleManager20evaluate_transitions
FNDA:0,_RNvMs0_NtCshTszjfEXlqN_19nestgate_automation9lifecycleNtB5_23DatasetLifecycleManager20update_dataset_stage
FNDA:0,_RNvMs0_NtCshTszjfEXlqN_19nestgate_automation9lifecycleNtB5_23DatasetLifecycleManager23get_applicable_policies
FNDA:0,_RNvMs0_NtCshTszjfEXlqN_19nestgate_automation9lifecycleNtB5_23DatasetLifecycleManager23update_evaluation_stats
FNDA:0,_RNvMs0_NtCshTszjfEXlqN_19nestgate_automation9lifecycleNtB5_23DatasetLifecycleManager25evaluate_single_condition
FNDA:0,_RNvMs0_NtCshTszjfEXlqN_19nestgate_automation9lifecycleNtB5_23DatasetLifecycleManager3new
FNDA:0,_RNvMs0_NtCshTszjfEXlqN_19nestgate_automation9lifecycleNtB5_23DatasetLifecycleManager8shutdown
FNDA:0,_RNvMs0_NtCshTszjfEXlqN_19nestgate_automation9lifecycleNtB5_23DatasetLifecycleManager9get_stats
FNDA:0,_RNvXNtCshTszjfEXlqN_19nestgate_automation9lifecycleNtB2_15LifecycleConfigNtNtCs5GmCzIpY9Qj_4core7default7Default7default
FNDA:0,_RNvXs_NtCshTszjfEXlqN_19nestgate_automation9lifecycleNtB4_23DatasetLifecycleManagerNtNtCs5GmCzIpY9Qj_4core7default7Default7default
FNF:46
FNH:0
DA:149,0
DA:151,0
DA:152,0
DA:153,0
DA:154,0
DA:155,0
DA:159,0
DA:161,0
DA:183,0
DA:184,0
DA:185,0
DA:190,0
DA:191,0
DA:192,0
DA:195,0
DA:196,0
DA:197,0
DA:198,0
DA:199,0
DA:200,0
DA:201,0
DA:202,0
DA:205,0
DA:208,0
DA:210,0
DA:211,0
DA:221,0
DA:222,0
DA:225,0
DA:228,0
DA:230,0
DA:231,0
DA:232,0
DA:242,0
DA:243,0
DA:246,0
DA:247,0
DA:248,0
DA:250,0
DA:251,0
DA:252,0
DA:262,0
DA:263,0
DA:265,0
DA:266,0
DA:267,0
DA:268,0
DA:269,0
DA:270,0
DA:271,0
DA:272,0
DA:273,0
DA:275,0
DA:276,0
DA:277,0
DA:278,0
DA:281,0
DA:282,0
DA:283,0
DA:293,0
DA:294,0
DA:295,0
DA:298,0
DA:299,0
DA:300,0
DA:310,0
DA:311,0
DA:313,0
DA:316,0
DA:317,0
DA:318,0
DA:319,0
DA:320,0
DA:322,0
DA:326,0
DA:329,0
DA:330,0
DA:333,0
DA:334,0
DA:335,0
DA:336,0
DA:337,0
DA:338,0
DA:341,0
DA:343,0
DA:344,0
DA:345,0
DA:346,0
DA:347,0
DA:348,0
DA:349,0
DA:350,0
DA:353,0
DA:354,0
DA:357,0
DA:358,0
DA:368,0
DA:369,0
DA:370,0
DA:374,0
DA:375,0
DA:376,0
DA:380,0
DA:384,0
DA:388,0
DA:391,0
DA:392,0
DA:395,0
DA:396,0
DA:399,0
DA:400,0
DA:403,0
DA:404,0
DA:410,0
DA:411,0
DA:412,0
DA:413,0
DA:416,0
DA:417,0
DA:418,0
DA:421,0
DA:422,0
DA:423,0
DA:433,0
DA:434,0
DA:435,0
DA:436,0
DA:437,0
DA:440,0
DA:441,0
DA:442,0
DA:445,0
DA:446,0
DA:448,0
DA:449,0
DA:452,0
DA:453,0
DA:454,0
DA:455,0
DA:456,0
DA:458,0
DA:459,0
DA:461,0
DA:464,0
DA:465,0
DA:466,0
DA:467,0
DA:468,0
DA:471,0
DA:472,0
DA:476,0
DA:480,0
DA:485,0
DA:486,0
DA:487,0
DA:490,0
DA:492,0
DA:493,0
DA:494,0
DA:495,0
DA:497,0
DA:498,0
DA:499,0
DA:500,0
DA:501,0
DA:502,0
DA:503,0
DA:504,0
DA:505,0
DA:506,0
DA:510,0
DA:511,0
DA:512,0
DA:513,0
DA:514,0
DA:515,0
DA:516,0
DA:517,0
DA:518,0
DA:519,0
DA:520,0
DA:521,0
DA:522,0
DA:523,0
DA:524,0
DA:525,0
DA:526,0
DA:527,0
DA:528,0
DA:529,0
DA:532,0
DA:533,0
DA:534,0
DA:535,0
DA:537,0
DA:538,0
DA:539,0
DA:540,0
DA:541,0
DA:544,0
DA:545,0
DA:546,0
DA:547,0
DA:548,0
DA:549,0
DA:552,0
DA:558,0
DA:561,0
DA:562,0
DA:563,0
DA:564,0
DA:565,0
DA:566,0
DA:567,0
DA:568,0
DA:569,0
DA:570,0
DA:571,0
DA:572,0
DA:573,0
DA:574,0
DA:579,0
DA:580,0
DA:581,0
DA:582,0
DA:583,0
DA:584,0
DA:585,0
DA:588,0
DA:594,0
DA:595,0
DA:596,0
DA:599,0
DA:600,0
DA:601,0
DA:602,0
DA:603,0
DA:604,0
DA:605,0
DA:606,0
DA:609,0
DA:610,0
DA:611,0
DA:612,0
DA:613,0
DA:614,0
DA:615,0
DA:617,0
DA:618,0
DA:619,0
DA:621,0
DA:622,0
DA:623,0
DA:624,0
DA:625,0
DA:626,0
DA:629,0
DA:630,0
DA:631,0
DA:633,0
DA:636,0
DA:637,0
DA:638,0
DA:640,0
DA:641,0
DA:642,0
DA:646,0
DA:647,0
DA:650,0
DA:651,0
DA:652,0
DA:653,0
DA:654,0
DA:655,0
DA:656,0
DA:657,0
DA:658,0
DA:660,0
DA:661,0
DA:664,0
DA:665,0
DA:666,0
DA:667,0
DA:668,0
DA:669,0
DA:670,0
DA:671,0
DA:672,0
DA:673,0
DA:674,0
DA:676,0
DA:678,0
DA:679,0
DA:681,0
DA:682,0
DA:683,0
DA:685,0
DA:687,0
DA:689,0
DA:690,0
DA:691,0
DA:692,0
DA:693,0
DA:694,0
DA:695,0
DA:696,0
DA:699,0
DA:703,0
DA:706,0
DA:707,0
DA:708,0
DA:709,0
DA:710,0
DA:711,0
DA:712,0
DA:713,0
DA:714,0
DA:717,0
DA:718,0
DA:721,0
DA:722,0
DA:723,0
DA:724,0
DA:725,0
DA:728,0
DA:729,0
DA:730,0
DA:731,0
DA:732,0
DA:734,0
DA:735,0
DA:736,0
DA:737,0
DA:738,0
BRF:0
BRH:0
LF:360
LH:0
end_of_record
SF:/home/eastgate/Development/ecoPrimals/nestgate/code/crates/nestgate-automation/src/manager.rs
FN:52,_RNCNvMNtCshTszjfEXlqN_19nestgate_automation7managerNtB4_25IntelligentDatasetManager20predict_optimal_tier0B6_
FN:52,_RNvMNtCshTszjfEXlqN_19nestgate_automation7managerNtB2_25IntelligentDatasetManager20predict_optimal_tier
FN:37,_RNvMNtCshTszjfEXlqN_19nestgate_automation7managerNtB2_25IntelligentDatasetManager3new
FN:46,_RNvMNtCshTszjfEXlqN_19nestgate_automation7managerNtB2_25IntelligentDatasetManager5start
FNDA:0,_RNCNvMNtCshTszjfEXlqN_19nestgate_automation7managerNtB4_25IntelligentDatasetManager20predict_optimal_tier0B6_
FNDA:0,_RNvMNtCshTszjfEXlqN_19nestgate_automation7managerNtB2_25IntelligentDatasetManager20predict_optimal_tier
FNDA:0,_RNvMNtCshTszjfEXlqN_19nestgate_automation7managerNtB2_25IntelligentDatasetManager3new
FNDA:0,_RNvMNtCshTszjfEXlqN_19nestgate_automation7managerNtB2_25IntelligentDatasetManager5start
FNF:4
FNH:0
DA:37,0
DA:38,0
DA:39,0
DA:40,0
DA:41,0
DA:42,0
DA:43,0
DA:46,0
DA:48,0
DA:49,0
DA:52,0
DA:54,0
DA:57,0
DA:58,0
DA:59,0
DA:60,0
DA:62,0
DA:65,0
DA:66,0
DA:67,0
DA:68,0
DA:69,0
DA:70,0
DA:71,0
DA:72,0
DA:73,0
DA:74,0
DA:75,0
BRF:0
BRH:0
LF:29
LH:0
end_of_record
SF:/home/eastgate/Development/ecoPrimals/nestgate/code/crates/nestgate-automation/src/types/config.rs
FN:180,_RNCNCNvMs3_NtNtCshTszjfEXlqN_19nestgate_automation5types6configNtB9_15DiscoveryConfig22from_automation_configs0_00Bd_
FN:182,_RNCNCNvMs3_NtNtCshTszjfEXlqN_19nestgate_automation5types6configNtB9_15DiscoveryConfig22from_automation_configs0_0s_0Bd_
FN:189,_RNCNCNvMs3_NtNtCshTszjfEXlqN_19nestgate_automation5types6configNtB9_15DiscoveryConfig22from_automation_configs1_00Bd_
FN:190,_RNCNCNvMs3_NtNtCshTszjfEXlqN_19nestgate_automation5types6configNtB9_15DiscoveryConfig22from_automation_configs1_0s_0Bd_
FN:175,_RNCNCNvMs3_NtNtCshTszjfEXlqN_19nestgate_automation5types6configNtB9_15DiscoveryConfig22from_automation_configs_00Bd_
FN:197,_RNCNvMs3_NtNtCshTszjfEXlqN_19nestgate_automation5types6configNtB7_15DiscoveryConfig22from_automation_config0Bb_
FN:176,_RNCNvMs3_NtNtCshTszjfEXlqN_19nestgate_automation5types6configNtB7_15DiscoveryConfig22from_automation_configs0_0Bb_
FN:185,_RNCNvMs3_NtNtCshTszjfEXlqN_19nestgate_automation5types6configNtB7_15DiscoveryConfig22from_automation_configs1_0Bb_
FN:175,_RNCNvMs3_NtNtCshTszjfEXlqN_19nestgate_automation5types6configNtB7_15DiscoveryConfig22from_automation_configs_0Bb_
FN:62,_RNCNvMs_NtNtCshTszjfEXlqN_19nestgate_automation5types6configNtB6_16AutomationConfig10production0Ba_
FN:83,_RNCNvMs_NtNtCshTszjfEXlqN_19nestgate_automation5types6configNtB6_16AutomationConfig11development0Ba_
FN:169,_RNvMs3_NtNtCshTszjfEXlqN_19nestgate_automation5types6configNtB5_15DiscoveryConfig22from_automation_config
FN:49,_RNvMs_NtNtCshTszjfEXlqN_19nestgate_automation5types6configNtB4_16AutomationConfig10production
FN:70,_RNvMs_NtNtCshTszjfEXlqN_19nestgate_automation5types6configNtB4_16AutomationConfig11development
FN:31,_RNvXNtNtCshTszjfEXlqN_19nestgate_automation5types6configNtB2_16AutomationConfigNtNtCs5GmCzIpY9Qj_4core7default7Default7default
FN:103,_RNvXs0_NtNtCshTszjfEXlqN_19nestgate_automation5types6configNtB5_14AnalysisConfigNtNtCs5GmCzIpY9Qj_4core7default7Default7default
FN:124,_RNvXs1_NtNtCshTszjfEXlqN_19nestgate_automation5types6configNtB5_16PredictionConfigNtNtCs5GmCzIpY9Qj_4core7default7Default7default
FN:146,_RNvXs2_NtNtCshTszjfEXlqN_19nestgate_automation5types6configNtB5_15LifecycleConfigNtNtCs5GmCzIpY9Qj_4core7default7Default7default
FNDA:0,_RNCNCNvMs3_NtNtCshTszjfEXlqN_19nestgate_automation5types6configNtB9_15DiscoveryConfig22from_automation_configs0_00Bd_
FNDA:0,_RNCNCNvMs3_NtNtCshTszjfEXlqN_19nestgate_automation5types6configNtB9_15DiscoveryConfig22from_automation_configs0_0s_0Bd_
FNDA:0,_RNCNCNvMs3_NtNtCshTszjfEXlqN_19nestgate_automation5types6configNtB9_15DiscoveryConfig22from_automation_configs1_00Bd_
FNDA:0,_RNCNCNvMs3_NtNtCshTszjfEXlqN_19nestgate_automation5types6configNtB9_15DiscoveryConfig22from_automation_configs1_0s_0Bd_
FNDA:0,_RNCNCNvMs3_NtNtCshTszjfEXlqN_19nestgate_automation5types6configNtB9_15DiscoveryConfig22from_automation_configs_00Bd_
FNDA:0,_RNCNvMs3_NtNtCshTszjfEXlqN_19nestgate_automation5types6configNtB7_15DiscoveryConfig22from_automation_config0Bb_
FNDA:0,_RNCNvMs3_NtNtCshTszjfEXlqN_19nestgate_automation5types6configNtB7_15DiscoveryConfig22from_automation_configs0_0Bb_
FNDA:0,_RNCNvMs3_NtNtCshTszjfEXlqN_19nestgate_automation5types6configNtB7_15DiscoveryConfig22from_automation_configs1_0Bb_
FNDA:0,_RNCNvMs3_NtNtCshTszjfEXlqN_19nestgate_automation5types6configNtB7_15DiscoveryConfig22from_automation_configs_0Bb_
FNDA:0,_RNCNvMs_NtNtCshTszjfEXlqN_19nestgate_automation5types6configNtB6_16AutomationConfig10production0Ba_
FNDA:0,_RNCNvMs_NtNtCshTszjfEXlqN_19nestgate_automation5types6configNtB6_16AutomationConfig11development0Ba_
FNDA:0,_RNvMs3_NtNtCshTszjfEXlqN_19nestgate_automation5types6configNtB5_15DiscoveryConfig22from_automation_config
FNDA:0,_RNvMs_NtNtCshTszjfEXlqN_19nestgate_automation5types6configNtB4_16AutomationConfig10production
FNDA:0,_RNvMs_NtNtCshTszjfEXlqN_19nestgate_automation5types6configNtB4_16AutomationConfig11development
FNDA:0,_RNvXNtNtCshTszjfEXlqN_19nestgate_automation5types6configNtB2_16AutomationConfigNtNtCs5GmCzIpY9Qj_4core7default7Default7default
FNDA:0,_RNvXs0_NtNtCshTszjfEXlqN_19nestgate_automation5types6configNtB5_14AnalysisConfigNtNtCs5GmCzIpY9Qj_4core7default7Default7default
FNDA:0,_RNvXs1_NtNtCshTszjfEXlqN_19nestgate_automation5types6configNtB5_16PredictionConfigNtNtCs5GmCzIpY9Qj_4core7default7Default7default
FNDA:0,_RNvXs2_NtNtCshTszjfEXlqN_19nestgate_automation5types6configNtB5_15LifecycleConfigNtNtCs5GmCzIpY9Qj_4core7default7Default7default
FNF:18
FNH:0
DA:31,0
DA:32,0
DA:33,0
DA:34,0
DA:35,0
DA:36,0
DA:37,0
DA:38,0
DA:39,0
DA:40,0
DA:41,0
DA:42,0
DA:43,0
DA:49,0
DA:51,0
DA:52,0
DA:53,0
DA:60,0
DA:61,0
DA:62,0
DA:63,0
DA:66,0
DA:70,0
DA:72,0
DA:73,0
DA:74,0
DA:81,0
DA:82,0
DA:83,0
DA:84,0
DA:87,0
DA:103,0
DA:104,0
DA:105,0
DA:106,0
DA:107,0
DA:108,0
DA:109,0
DA:110,0
DA:124,0
DA:125,0
DA:126,0
DA:127,0
DA:128,0
DA:129,0
DA:130,0
DA:146,0
DA:147,0
DA:148,0
DA:149,0
DA:150,0
DA:151,0
DA:152,0
DA:153,0
DA:169,0
DA:171,0
DA:172,0
DA:173,0
DA:174,0
DA:175,0
DA:176,0
DA:177,0
DA:178,0
DA:179,0
DA:180,0
DA:181,0
DA:182,0
DA:184,0
DA:185,0
DA:186,0
DA:187,0
DA:188,0
DA:189,0
DA:190,0
DA:192,0
DA:195,0
DA:196,0
DA:197,0
DA:198,0
DA:202,0
BRF:0
BRH:0
LF:91
LH:0
end_of_record
SF:/home/eastgate/Development/ecoPrimals/nestgate/code/crates/nestgate-automation/src/types/ecosystem.rs
FN:40,_RNvXNtNtCshTszjfEXlqN_19nestgate_automation5types9ecosystemNtB2_18CapabilityProviderNtNtCs5GmCzIpY9Qj_4core7default7Default7default
FNDA:0,_RNvXNtNtCshTszjfEXlqN_19nestgate_automation5types9ecosystemNtB2_18CapabilityProviderNtNtCs5GmCzIpY9Qj_4core7default7Default7default
FNF:1
FNH:0
DA:40,0
DA:41,0
DA:42,0
DA:43,0
DA:44,0
DA:45,0
DA:46,0
DA:47,0
DA:48,0
DA:49,0
BRF:0
BRH:0
LF:10
LH:0
end_of_record
SF:/home/eastgate/Development/ecoPrimals/nestgate/code/crates/nestgate-automation/src/types/optimization.rs
FN:63,_RNvXNtNtCshTszjfEXlqN_19nestgate_automation5types12optimizationNtB2_14TierThresholdsNtNtCs5GmCzIpY9Qj_4core7default7Default7default
FN:90,_RNvXs0_NtNtCshTszjfEXlqN_19nestgate_automation5types12optimizationNtB5_13AgeThresholdsNtNtCs5GmCzIpY9Qj_4core7default7Default7default
FN:113,_RNvXs1_NtNtCshTszjfEXlqN_19nestgate_automation5types12optimizationNtB5_22PerformanceExpectationNtNtCs5GmCzIpY9Qj_4core7default7Default7default
FN:75,_RNvXs_NtNtCshTszjfEXlqN_19nestgate_automation5types12optimizationNtB4_14SizeThresholdsNtNtCs5GmCzIpY9Qj_4core7default7Default7default
FNDA:0,_RNvXNtNtCshTszjfEXlqN_19nestgate_automation5types12optimizationNtB2_14TierThresholdsNtNtCs5GmCzIpY9Qj_4core7default7Default7default
FNDA:0,_RNvXs0_NtNtCshTszjfEXlqN_19nestgate_automation5types12optimizationNtB5_13AgeThresholdsNtNtCs5GmCzIpY9Qj_4core7default7Default7default
FNDA:0,_RNvXs1_NtNtCshTszjfEXlqN_19nestgate_automation5types12optimizationNtB5_22PerformanceExpectationNtNtCs5GmCzIpY9Qj_4core7default7Default7default
FNDA:0,_RNvXs_NtNtCshTszjfEXlqN_19nestgate_automation5types12optimizationNtB4_14SizeThresholdsNtNtCs5GmCzIpY9Qj_4core7default7Default7default
FNF:4
FNH:0
DA:63,0
DA:64,0
DA:65,0
DA:66,0
DA:67,0
DA:68,0
DA:69,0
DA:70,0
DA:71,0
DA:75,0
DA:79,0
DA:83,0
DA:86,0
DA:90,0
DA:91,0
DA:92,0
DA:93,0
DA:94,0
DA:95,0
DA:113,0
DA:114,0
DA:115,0
DA:116,0
DA:117,0
DA:118,0
DA:119,0
DA:120,0
DA:121,0
BRF:0
BRH:0
LF:28
LH:0
end_of_record
SF:/home/eastgate/Development/ecoPrimals/nestgate/code/crates/nestgate-automation/src/types/prediction.rs
FN:149,_RNvMs0_NtNtCshTszjfEXlqN_19nestgate_automation5types10predictionNtB5_20LegacyTierPrediction8is_valid
FN:60,_RNvXNtNtCshTszjfEXlqN_19nestgate_automation5types10predictionNtB2_19FileCharacteristicsNtNtCs5GmCzIpY9Qj_4core7default7Default7default
FN:156,_RNvXs1_NtNtCshTszjfEXlqN_19nestgate_automation5types10predictionNtNtNtCserJaDiv4hKx_13nestgate_core13unified_enums20storage_access_types15UnifiedTierTypeINtNtCs5GmCzIpY9Qj_4core7convert4FromNtB5_8TierTypeE4from
FN:166,_RNvXs2_NtNtCshTszjfEXlqN_19nestgate_automation5types10predictionNtB5_8TierTypeINtNtCs5GmCzIpY9Qj_4core7convert4FromNtNtNtCserJaDiv4hKx_13nestgate_core13unified_enums20storage_access_types15UnifiedTierTypeE4from
FN:185,_RNvXs3_NtNtCshTszjfEXlqN_19nestgate_automation5types10predictionNtB5_18TierClassificationINtNtCs5GmCzIpY9Qj_4core7convert4FromNtNtNtCserJaDiv4hKx_13nestgate_core13unified_enums20storage_access_types15UnifiedTierTypeE4from
FN:91,_RNvXs_NtNtCshTszjfEXlqN_19nestgate_automation5types10predictionNtB4_13AccessPatternNtNtCs5GmCzIpY9Qj_4core7default7Default7default
FNDA:0,_RNvMs0_NtNtCshTszjfEXlqN_19nestgate_automation5types10predictionNtB5_20LegacyTierPrediction8is_valid
FNDA:0,_RNvXNtNtCshTszjfEXlqN_19nestgate_automation5types10predictionNtB2_19FileCharacteristicsNtNtCs5GmCzIpY9Qj_4core7default7Default7default
FNDA:0,_RNvXs1_NtNtCshTszjfEXlqN_19nestgate_automation5types10predictionNtNtNtCserJaDiv4hKx_13nestgate_core13unified_enums20storage_access_types15UnifiedTierTypeINtNtCs5GmCzIpY9Qj_4core7convert4FromNtB5_8TierTypeE4from
FNDA:0,_RNvXs2_NtNtCshTszjfEXlqN_19nestgate_automation5types10predictionNtB5_8TierTypeINtNtCs5GmCzIpY9Qj_4core7convert4FromNtNtNtCserJaDiv4hKx_13nestgate_core13unified_enums20storage_access_types15UnifiedTierTypeE4from
FNDA:0,_RNvXs3_NtNtCshTszjfEXlqN_19nestgate_automation5types10predictionNtB5_18TierClassificationINtNtCs5GmCzIpY9Qj_4core7convert4FromNtNtNtCserJaDiv4hKx_13nestgate_core13unified_enums20storage_access_types15UnifiedTierTypeE4from
FNDA:0,_RNvXs_NtNtCshTszjfEXlqN_19nestgate_automation5types10predictionNtB4_13AccessPatternNtNtCs5GmCzIpY9Qj_4core7default7Default7default
FNF:6
FNH:0
DA:60,0
DA:61,0
DA:62,0
DA:63,0
DA:64,0
DA:65,0
DA:66,0
DA:67,0
DA:91,0
DA:92,0
DA:93,0
DA:94,0
DA:95,0
DA:96,0
DA:97,0
DA:98,0
DA:99,0
DA:100,0
DA:101,0
DA:149,0
DA:150,0
DA:151,0
DA:156,0
DA:157,0
DA:158,0
DA:159,0
DA:160,0
DA:162,0
DA:166,0
DA:167,0
DA:168,0
DA:169,0
DA:170,0
DA:171,0
DA:172,0
DA:173,0
DA:175,0
DA:185,0
DA:186,0
DA:187,0
DA:188,0
DA:189,0
DA:190,0
DA:191,0
DA:192,0
DA:194,0
BRF:0
BRH:0
LF:46
LH:0
end_of_record
SF:/home/eastgate/Development/ecoPrimals/nestgate/code/crates/nestgate-bin/src/cli.rs
FN:236,_RNCNCNvMNtCshGsXNO5iFhA_12nestgate_bin3cliNtB6_3Cli3run00B8_
FN:223,_RNCNvMNtCshGsXNO5iFhA_12nestgate_bin3cliNtB4_3Cli3run0B6_
FN:223,_RNvMNtCshGsXNO5iFhA_12nestgate_bin3cliNtB2_3Cli3run
FN:269,_RNvNtCshGsXNO5iFhA_12nestgate_bin3cli10parse_args
FN:285,_RNvNtCshGsXNO5iFhA_12nestgate_bin3cli12print_banner
FN:273,_RNvNtCshGsXNO5iFhA_12nestgate_bin3cli13setup_logging
FNDA:0,_RNCNCNvMNtCshGsXNO5iFhA_12nestgate_bin3cliNtB6_3Cli3run00B8_
FNDA:0,_RNCNvMNtCshGsXNO5iFhA_12nestgate_bin3cliNtB4_3Cli3run0B6_
FNDA:0,_RNvMNtCshGsXNO5iFhA_12nestgate_bin3cliNtB2_3Cli3run
FNDA:0,_RNvNtCshGsXNO5iFhA_12nestgate_bin3cli10parse_args
FNDA:0,_RNvNtCshGsXNO5iFhA_12nestgate_bin3cli12print_banner
FNDA:0,_RNvNtCshGsXNO5iFhA_12nestgate_bin3cli13setup_logging
FNF:6
FNH:0
DA:223,0
DA:227,0
DA:230,0
DA:233,0
DA:234,0
DA:235,0
DA:236,0
DA:237,0
DA:238,0
DA:240,0
DA:241,0
DA:242,0
DA:243,0
DA:244,0
DA:245,0
DA:246,0
DA:247,0
DA:248,0
DA:249,0
DA:250,0
DA:251,0
DA:252,0
DA:253,0
DA:255,0
DA:256,0
DA:257,0
DA:258,0
DA:259,0
DA:260,0
DA:263,0
DA:264,0
DA:269,0
DA:270,0
DA:271,0
DA:273,0
DA:274,0
DA:275,0
DA:276,0
DA:277,0
DA:278,0
DA:279,0
DA:280,0
DA:281,0
DA:282,0
DA:285,0
DA:286,0
DA:287,0
DA:290,0
DA:291,0
DA:292,0
DA:293,0
DA:294,0
DA:295,0
DA:296,0
BRF:0
BRH:0
LF:57
LH:0
end_of_record
SF:/home/eastgate/Development/ecoPrimals/nestgate/code/crates/nestgate-bin/src/commands/zfs.rs
FN:82,_RNCNvMs_NtNtCshGsXNO5iFhA_12nestgate_bin8commands3zfsNtB6_10ZfsHandler3new0Ba_
FN:90,_RNCNvMs_NtNtCshGsXNO5iFhA_12nestgate_bin8commands3zfsNtB6_10ZfsHandler7execute0Ba_
FN:198,_RNvMs_NtNtCshGsXNO5iFhA_12nestgate_bin8commands3zfsNtB4_10ZfsHandler14show_api_usage
FN:80,_RNvMs_NtNtCshGsXNO5iFhA_12nestgate_bin8commands3zfsNtB4_10ZfsHandler3new
FN:90,_RNvMs_NtNtCshGsXNO5iFhA_12nestgate_bin8commands3zfsNtB4_10ZfsHandler7execute
FN:73,_RNvXNtNtCshGsXNO5iFhA_12nestgate_bin8commands3zfsNtB2_10ZfsHandlerNtNtCs5GmCzIpY9Qj_4core7default7Default7default
FNDA:0,_RNCNvMs_NtNtCshGsXNO5iFhA_12nestgate_bin8commands3zfsNtB6_10ZfsHandler3new0Ba_
FNDA:0,_RNCNvMs_NtNtCshGsXNO5iFhA_12nestgate_bin8commands3zfsNtB6_10ZfsHandler7execute0Ba_
FNDA:0,_RNvMs_NtNtCshGsXNO5iFhA_12nestgate_bin8commands3zfsNtB4_10ZfsHandler14show_api_usage
FNDA:0,_RNvMs_NtNtCshGsXNO5iFhA_12nestgate_bin8commands3zfsNtB4_10ZfsHandler3new
FNDA:0,_RNvMs_NtNtCshGsXNO5iFhA_12nestgate_bin8commands3zfsNtB4_10ZfsHandler7execute
FNDA:0,_RNvXNtNtCshGsXNO5iFhA_12nestgate_bin8commands3zfsNtB2_10ZfsHandlerNtNtCs5GmCzIpY9Qj_4core7default7Default7default
FNF:6
FNH:0
DA:73,0
DA:74,0
DA:75,0
DA:80,0
DA:81,0
DA:82,0
DA:84,0
DA:85,0
DA:86,0
DA:87,0
DA:90,0
DA:91,0
DA:92,0
DA:93,0
DA:95,0
DA:97,0
DA:98,0
DA:100,0
DA:101,0
DA:102,0
DA:103,0
DA:104,0
DA:105,0
DA:106,0
DA:107,0
DA:108,0
DA:109,0
DA:110,0
DA:111,0
DA:112,0
DA:114,0
DA:115,0
DA:116,0
DA:117,0
DA:118,0
DA:119,0
DA:120,0
DA:121,0
DA:122,0
DA:125,0
DA:126,0
DA:129,0
DA:130,0
DA:131,0
DA:132,0
DA:134,0
DA:135,0
DA:136,0
DA:137,0
DA:139,0
DA:140,0
DA:141,0
DA:142,0
DA:146,0
DA:148,0
DA:150,0
DA:151,0
DA:153,0
DA:154,0
DA:155,0
DA:156,0
DA:160,0
DA:163,0
DA:164,0
DA:165,0
DA:166,0
DA:167,0
DA:170,0
DA:171,0
DA:172,0
DA:173,0
DA:174,0
DA:175,0
DA:176,0
DA:178,0
DA:179,0
DA:180,0
DA:182,0
DA:183,0
DA:186,0
DA:187,0
DA:188,0
DA:189,0
DA:190,0
DA:191,0
DA:192,0
DA:196,0
DA:198,0
DA:199,0
DA:200,0
DA:202,0
DA:203,0
DA:204,0
DA:205,0
DA:206,0
DA:207,0
DA:208,0
DA:210,0
DA:211,0
DA:212,0
DA:214,0
DA:215,0
BRF:0
BRH:0
LF:104
LH:0
end_of_record
SF:/home/eastgate/Development/ecoPrimals/nestgate/code/crates/nestgate-bin/src/error.rs
FN:138,_RINvMNtCshGsXNO5iFhA_12nestgate_bin5errorNtB3_14BinErrorHelper13runtime_errorpEB5_
FN:100,_RINvMNtCshGsXNO5iFhA_12nestgate_bin5errorNtB3_14BinErrorHelper19configuration_errorpEB5_
FN:111,_RINvMNtCshGsXNO5iFhA_12nestgate_bin5errorNtB3_14BinErrorHelper22argument_parsing_errorpEB5_
FN:83,_RINvMNtCshGsXNO5iFhA_12nestgate_bin5errorNtB3_14BinErrorHelper23command_execution_errorpEB5_
FN:123,_RINvMNtCshGsXNO5iFhA_12nestgate_bin5errorNtB3_14BinErrorHelper28service_initialization_errorpEB5_
FN:227,_RINvMs0_NtCshGsXNO5iFhA_12nestgate_bin5errorNtB6_16NestGateBinError12config_errorpEB8_
FN:251,_RINvMs0_NtCshGsXNO5iFhA_12nestgate_bin5errorNtB6_16NestGateBinError13runtime_errorpEB8_
FN:235,_RINvMs0_NtCshGsXNO5iFhA_12nestgate_bin5errorNtB6_16NestGateBinError14argument_errorpEB8_
FN:214,_RINvMs0_NtCshGsXNO5iFhA_12nestgate_bin5errorNtB6_16NestGateBinError14command_failedpEB8_
FN:243,_RINvMs0_NtCshGsXNO5iFhA_12nestgate_bin5errorNtB6_16NestGateBinError18service_init_errorpEB8_
FN:143,_RNCINvMNtCshGsXNO5iFhA_12nestgate_bin5errorNtB5_14BinErrorHelper13runtime_errorpE0B7_
FN:105,_RNCINvMNtCshGsXNO5iFhA_12nestgate_bin5errorNtB5_14BinErrorHelper19configuration_errorpE0B7_
FN:118,_RNCINvMNtCshGsXNO5iFhA_12nestgate_bin5errorNtB5_14BinErrorHelper22argument_parsing_errorpE0B7_
FN:131,_RNCINvMNtCshGsXNO5iFhA_12nestgate_bin5errorNtB5_14BinErrorHelper28service_initialization_errorpE0B7_
FN:274,_RNCNvXININtCshGsXNO5iFhA_12nestgate_bin5errors1_0pEINtNtCs5GmCzIpY9Qj_4core6result6ResultpNtNtNtNtCserJaDiv4hKx_13nestgate_core5error8variants11core_errors20NestGateUnifiedErrorEINtB7_12BinResultExtpE12with_context0B9_
FN:280,_RNCNvXININtCshGsXNO5iFhA_12nestgate_bin5errors1_0pEINtNtCs5GmCzIpY9Qj_4core6result6ResultpNtNtNtNtCserJaDiv4hKx_13nestgate_core5error8variants11core_errors20NestGateUnifiedErrorEINtB7_12BinResultExtpE14into_canonical0B9_
FN:161,_RNCNvXs_NtCshGsXNO5iFhA_12nestgate_bin5errorNtNtNtNtCserJaDiv4hKx_13nestgate_core5error8variants11core_errors20NestGateUnifiedErrorINtNtCs5GmCzIpY9Qj_4core7convert4FromNtB6_16NestGateBinErrorE4from0B8_
FN:179,_RNCNvXs_NtCshGsXNO5iFhA_12nestgate_bin5errorNtNtNtNtCserJaDiv4hKx_13nestgate_core5error8variants11core_errors20NestGateUnifiedErrorINtNtCs5GmCzIpY9Qj_4core7convert4FromNtB6_16NestGateBinErrorE4froms0_0B8_
FN:190,_RNCNvXs_NtCshGsXNO5iFhA_12nestgate_bin5errorNtNtNtNtCserJaDiv4hKx_13nestgate_core5error8variants11core_errors20NestGateUnifiedErrorINtNtCs5GmCzIpY9Qj_4core7convert4FromNtB6_16NestGateBinErrorE4froms1_0B8_
FN:172,_RNCNvXs_NtCshGsXNO5iFhA_12nestgate_bin5errorNtNtNtNtCserJaDiv4hKx_13nestgate_core5error8variants11core_errors20NestGateUnifiedErrorINtNtCs5GmCzIpY9Qj_4core7convert4FromNtB6_16NestGateBinErrorE4froms_0B8_
FN:273,_RNvXININtCshGsXNO5iFhA_12nestgate_bin5errors1_0pEINtNtCs5GmCzIpY9Qj_4core6result6ResultpNtNtNtNtCserJaDiv4hKx_13nestgate_core5error8variants11core_errors20NestGateUnifiedErrorEINtB5_12BinResultExtpE12with_contextB7_
FN:279,_RNvXININtCshGsXNO5iFhA_12nestgate_bin5errors1_0pEINtNtCs5GmCzIpY9Qj_4core6result6ResultpNtNtNtNtCserJaDiv4hKx_13nestgate_core5error8variants11core_errors20NestGateUnifiedErrorEINtB5_12BinResultExtpE14into_canonicalB7_
FN:156,_RNvXs_NtCshGsXNO5iFhA_12nestgate_bin5errorNtNtNtNtCserJaDiv4hKx_13nestgate_core5error8variants11core_errors20NestGateUnifiedErrorINtNtCs5GmCzIpY9Qj_4core7convert4FromNtB4_16NestGateBinErrorE4from
FNDA:0,_RINvMNtCshGsXNO5iFhA_12nestgate_bin5errorNtB3_14BinErrorHelper13runtime_errorpEB5_
FNDA:0,_RINvMNtCshGsXNO5iFhA_12nestgate_bin5errorNtB3_14BinErrorHelper19configuration_errorpEB5_
FNDA:0,_RINvMNtCshGsXNO5iFhA_12nestgate_bin5errorNtB3_14BinErrorHelper22argument_parsing_errorpEB5_
FNDA:0,_RINvMNtCshGsXNO5iFhA_12nestgate_bin5errorNtB3_14BinErrorHelper23command_execution_errorpEB5_
FNDA:0,_RINvMNtCshGsXNO5iFhA_12nestgate_bin5errorNtB3_14BinErrorHelper28service_initialization_errorpEB5_
FNDA:0,_RINvMs0_NtCshGsXNO5iFhA_12nestgate_bin5errorNtB6_16NestGateBinError12config_errorpEB8_
FNDA:0,_RINvMs0_NtCshGsXNO5iFhA_12nestgate_bin5errorNtB6_16NestGateBinError13runtime_errorpEB8_
FNDA:0,_RINvMs0_NtCshGsXNO5iFhA_12nestgate_bin5errorNtB6_16NestGateBinError14argument_errorpEB8_
FNDA:0,_RINvMs0_NtCshGsXNO5iFhA_12nestgate_bin5errorNtB6_16NestGateBinError14command_failedpEB8_
FNDA:0,_RINvMs0_NtCshGsXNO5iFhA_12nestgate_bin5errorNtB6_16NestGateBinError18service_init_errorpEB8_
FNDA:0,_RNCINvMNtCshGsXNO5iFhA_12nestgate_bin5errorNtB5_14BinErrorHelper13runtime_errorpE0B7_
FNDA:0,_RNCINvMNtCshGsXNO5iFhA_12nestgate_bin5errorNtB5_14BinErrorHelper19configuration_errorpE0B7_
FNDA:0,_RNCINvMNtCshGsXNO5iFhA_12nestgate_bin5errorNtB5_14BinErrorHelper22argument_parsing_errorpE0B7_
FNDA:0,_RNCINvMNtCshGsXNO5iFhA_12nestgate_bin5errorNtB5_14BinErrorHelper28service_initialization_errorpE0B7_
FNDA:0,_RNCNvXININtCshGsXNO5iFhA_12nestgate_bin5errors1_0pEINtNtCs5GmCzIpY9Qj_4core6result6ResultpNtNtNtNtCserJaDiv4hKx_13nestgate_core5error8variants11core_errors20NestGateUnifiedErrorEINtB7_12BinResultExtpE12with_context0B9_
FNDA:0,_RNCNvXININtCshGsXNO5iFhA_12nestgate_bin5errors1_0pEINtNtCs5GmCzIpY9Qj_4core6result6ResultpNtNtNtNtCserJaDiv4hKx_13nestgate_core5error8variants11core_errors20NestGateUnifiedErrorEINtB7_12BinResultExtpE14into_canonical0B9_
FNDA:0,_RNCNvXs_NtCshGsXNO5iFhA_12nestgate_bin5errorNtNtNtNtCserJaDiv4hKx_13nestgate_core5error8variants11core_errors20NestGateUnifiedErrorINtNtCs5GmCzIpY9Qj_4core7convert4FromNtB6_16NestGateBinErrorE4from0B8_
FNDA:0,_RNCNvXs_NtCshGsXNO5iFhA_12nestgate_bin5errorNtNtNtNtCserJaDiv4hKx_13nestgate_core5error8variants11core_errors20NestGateUnifiedErrorINtNtCs5GmCzIpY9Qj_4core7convert4FromNtB6_16NestGateBinErrorE4froms0_0B8_
FNDA:0,_RNCNvXs_NtCshGsXNO5iFhA_12nestgate_bin5errorNtNtNtNtCserJaDiv4hKx_13nestgate_core5error8variants11core_errors20NestGateUnifiedErrorINtNtCs5GmCzIpY9Qj_4core7convert4FromNtB6_16NestGateBinErrorE4froms1_0B8_
FNDA:0,_RNCNvXs_NtCshGsXNO5iFhA_12nestgate_bin5errorNtNtNtNtCserJaDiv4hKx_13nestgate_core5error8variants11core_errors20NestGateUnifiedErrorINtNtCs5GmCzIpY9Qj_4core7convert4FromNtB6_16NestGateBinErrorE4froms_0B8_
FNDA:0,_RNvXININtCshGsXNO5iFhA_12nestgate_bin5errors1_0pEINtNtCs5GmCzIpY9Qj_4core6result6ResultpNtNtNtNtCserJaDiv4hKx_13nestgate_core5error8variants11core_errors20NestGateUnifiedErrorEINtB5_12BinResultExtpE12with_contextB7_
FNDA:0,_RNvXININtCshGsXNO5iFhA_12nestgate_bin5errors1_0pEINtNtCs5GmCzIpY9Qj_4core6result6ResultpNtNtNtNtCserJaDiv4hKx_13nestgate_core5error8variants11core_errors20NestGateUnifiedErrorEINtB5_12BinResultExtpE14into_canonicalB7_
FNDA:0,_RNvXs_NtCshGsXNO5iFhA_12nestgate_bin5errorNtNtNtNtCserJaDiv4hKx_13nestgate_core5error8variants11core_errors20NestGateUnifiedErrorINtNtCs5GmCzIpY9Qj_4core7convert4FromNtB4_16NestGateBinErrorE4from
FNF:23
FNH:0
DA:83,0
DA:84,0
DA:85,0
DA:86,0
DA:87,0
DA:88,0
DA:89,0
DA:90,0
DA:91,0
DA:97,0
DA:100,0
DA:101,0
DA:102,0
DA:103,0
DA:104,0
DA:105,0
DA:106,0
DA:108,0
DA:111,0
DA:112,0
DA:113,0
DA:114,0
DA:115,0
DA:116,0
DA:117,0
DA:118,0
DA:120,0
DA:123,0
DA:124,0
DA:125,0
DA:126,0
DA:127,0
DA:128,0
DA:129,0
DA:130,0
DA:131,0
DA:135,0
DA:138,0
DA:139,0
DA:140,0
DA:141,0
DA:142,0
DA:143,0
DA:147,0
DA:156,0
DA:157,0
DA:158,0
DA:159,0
DA:160,0
DA:161,0
DA:166,0
DA:167,0
DA:168,0
DA:169,0
DA:170,0
DA:171,0
DA:172,0
DA:176,0
DA:177,0
DA:178,0
DA:179,0
DA:185,0
DA:186,0
DA:187,0
DA:188,0
DA:189,0
DA:190,0
DA:196,0
DA:197,0
DA:198,0
DA:199,0
DA:200,0
DA:204,0
DA:214,0
DA:215,0
DA:216,0
DA:217,0
DA:218,0
DA:219,0
DA:220,0
DA:221,0
DA:222,0
DA:223,0
DA:224,0
DA:227,0
DA:228,0
DA:229,0
DA:230,0
DA:231,0
DA:232,0
DA:235,0
DA:236,0
DA:237,0
DA:238,0
DA:239,0
DA:240,0
DA:243,0
DA:244,0
DA:245,0
DA:246,0
DA:247,0
DA:248,0
DA:251,0
DA:252,0
DA:253,0
DA:254,0
DA:255,0
DA:256,0
DA:273,0
DA:274,0
DA:275,0
DA:276,0
DA:277,0
DA:279,0
DA:280,0
DA:281,0
BRF:0
BRH:0
LF:126
LH:0
end_of_record
SF:/home/eastgate/Development/ecoPrimals/nestgate/code/crates/nestgate-canonical/src/config.rs
FN:76,_RNvNtNtCsaqyYch7mDu7_18nestgate_canonical6config5testss_29test_nestgate_config_from_env
FN:128,_RNvNtNtCsaqyYch7mDu7_18nestgate_canonical6config5testss_35test_nestgate_config_default_values
FN:142,_RNvNtNtCsaqyYch7mDu7_18nestgate_canonical6config5testss_36test_nestgate_config_default_network
FN:150,_RNvNtNtCsaqyYch7mDu7_18nestgate_canonical6config5testss_36test_nestgate_config_default_storage
FN:159,_RNvNtNtCsaqyYch7mDu7_18nestgate_canonical6config5testss_37test_nestgate_config_default_security
FN:86,_RNvNtNtCsaqyYch7mDu7_18nestgate_canonical6config5testss_37test_nestgate_config_validate_success
FN:104,_RNvNtNtCsaqyYch7mDu7_18nestgate_canonical6config5testss_39test_nestgate_config_validate_zero_port
FN:167,_RNvNtNtCsaqyYch7mDu7_18nestgate_canonical6config5testss_40test_nestgate_config_default_performance
FN:122,_RNvNtNtCsaqyYch7mDu7_18nestgate_canonical6config5testss_42test_nestgate_config_from_file_nonexistent
FN:113,_RNvNtNtCsaqyYch7mDu7_18nestgate_canonical6config5testss_44test_nestgate_config_validate_empty_data_dir
FN:92,_RNvNtNtCsaqyYch7mDu7_18nestgate_canonical6config5testss_48test_nestgate_config_validate_empty_service_name
FN:22,_RNvMNtCsaqyYch7mDu7_18nestgate_canonical6configNtNtB4_5types15CanonicalConfig8from_env
FN:54,_RNvMNtCsaqyYch7mDu7_18nestgate_canonical6configNtNtB4_5types15CanonicalConfig8validate
FN:34,_RINvMNtCsaqyYch7mDu7_18nestgate_canonical6configNtNtB5_5types15CanonicalConfig9from_fileReEB5_
FN:36,_RNCINvMNtCsaqyYch7mDu7_18nestgate_canonical6configNtNtB7_5types15CanonicalConfig9from_fileReE0B7_
FN:39,_RNCINvMNtCsaqyYch7mDu7_18nestgate_canonical6configNtNtB7_5types15CanonicalConfig9from_fileReEs_0B7_
FNDA:1,_RNvNtNtCsaqyYch7mDu7_18nestgate_canonical6config5testss_29test_nestgate_config_from_env
FNDA:1,_RNvNtNtCsaqyYch7mDu7_18nestgate_canonical6config5testss_35test_nestgate_config_default_values
FNDA:1,_RNvNtNtCsaqyYch7mDu7_18nestgate_canonical6config5testss_36test_nestgate_config_default_network
FNDA:1,_RNvNtNtCsaqyYch7mDu7_18nestgate_canonical6config5testss_36test_nestgate_config_default_storage
FNDA:1,_RNvNtNtCsaqyYch7mDu7_18nestgate_canonical6config5testss_37test_nestgate_config_default_security
FNDA:1,_RNvNtNtCsaqyYch7mDu7_18nestgate_canonical6config5testss_37test_nestgate_config_validate_success
FNDA:1,_RNvNtNtCsaqyYch7mDu7_18nestgate_canonical6config5testss_39test_nestgate_config_validate_zero_port
FNDA:1,_RNvNtNtCsaqyYch7mDu7_18nestgate_canonical6config5testss_40test_nestgate_config_default_performance
FNDA:1,_RNvNtNtCsaqyYch7mDu7_18nestgate_canonical6config5testss_42test_nestgate_config_from_file_nonexistent
FNDA:1,_RNvNtNtCsaqyYch7mDu7_18nestgate_canonical6config5testss_44test_nestgate_config_validate_empty_data_dir
FNDA:1,_RNvNtNtCsaqyYch7mDu7_18nestgate_canonical6config5testss_48test_nestgate_config_validate_empty_service_name
FNDA:1,_RNvMNtCsaqyYch7mDu7_18nestgate_canonical6configNtNtB4_5types15CanonicalConfig8from_env
FNDA:4,_RNvMNtCsaqyYch7mDu7_18nestgate_canonical6configNtNtB4_5types15CanonicalConfig8validate
FNDA:1,_RINvMNtCsaqyYch7mDu7_18nestgate_canonical6configNtNtB5_5types15CanonicalConfig9from_fileReEB5_
FNDA:1,_RNCINvMNtCsaqyYch7mDu7_18nestgate_canonical6configNtNtB7_5types15CanonicalConfig9from_fileReE0B7_
FNDA:0,_RNCINvMNtCsaqyYch7mDu7_18nestgate_canonical6configNtNtB7_5types15CanonicalConfig9from_fileReEs_0B7_
FNF:16
FNH:15
DA:22,1
DA:23,1
DA:24,1
DA:34,1
DA:35,1
DA:36,1
DA:38,0
DA:39,0
DA:41,0
DA:42,0
DA:43,1
DA:54,4
DA:55,4
DA:56,1
DA:57,3
DA:59,3
DA:60,1
DA:61,2
DA:63,2
DA:64,1
DA:65,1
DA:67,1
DA:68,4
DA:76,1
DA:77,1
DA:78,1
DA:79,1
DA:80,1
DA:81,1
DA:82,1
DA:83,1
DA:86,1
DA:87,1
DA:88,1
DA:89,1
DA:92,1
DA:93,1
DA:94,1
DA:95,1
DA:96,1
DA:97,1
DA:98,1
DA:99,1
DA:100,1
DA:104,1
DA:105,1
DA:106,1
DA:107,1
DA:108,1
DA:109,1
DA:110,1
DA:113,1
DA:114,1
DA:115,1
DA:116,1
DA:117,1
DA:118,1
DA:119,1
DA:122,1
DA:123,1
DA:124,1
DA:125,1
DA:128,1
DA:129,1
DA:130,1
DA:131,1
DA:132,1
DA:133,1
DA:134,1
DA:135,1
DA:136,1
DA:137,1
DA:138,1
DA:142,1
DA:143,1
DA:144,1
DA:145,1
DA:146,1
DA:147,1
DA:150,1
DA:151,1
DA:152,1
DA:153,1
DA:154,1
DA:155,1
DA:156,1
DA:159,1
DA:160,1
DA:161,1
DA:162,1
DA:163,1
DA:164,1
DA:167,1
DA:168,1
DA:169,1
DA:170,1
DA:171,1
DA:172,1
DA:173,1
BRF:0
BRH:0
LF:101
LH:96
end_of_record
SF:/home/eastgate/Development/ecoPrimals/nestgate/code/crates/nestgate-canonical/src/error.rs
FN:544,_RNCNvNtNtCsaqyYch7mDu7_18nestgate_canonical5error5testss_15test_result_map0B7_
FN:551,_RNCNvNtNtCsaqyYch7mDu7_18nestgate_canonical5error5testss_20test_result_and_then0B7_
FN:285,_RNvNtNtCsaqyYch7mDu7_18nestgate_canonical5error5testss_14test_result_ok
FN:292,_RNvNtNtCsaqyYch7mDu7_18nestgate_canonical5error5testss_15test_result_err
FN:542,_RNvNtNtCsaqyYch7mDu7_18nestgate_canonical5error5testss_15test_result_map
FN:270,_RNvNtNtCsaqyYch7mDu7_18nestgate_canonical5error5testss_16test_error_clone
FN:277,_RNvNtNtCsaqyYch7mDu7_18nestgate_canonical5error5testss_16test_error_debug
FN:497,_RNvNtNtCsaqyYch7mDu7_18nestgate_canonical5error5testss_17test_long_message
FN:490,_RNvNtNtCsaqyYch7mDu7_18nestgate_canonical5error5testss_18test_empty_message
FN:209,_RNvNtNtCsaqyYch7mDu7_18nestgate_canonical5error5testss_18test_network_error
FN:225,_RNvNtNtCsaqyYch7mDu7_18nestgate_canonical5error5testss_18test_storage_error
FN:248,_RNvNtNtCsaqyYch7mDu7_18nestgate_canonical5error5testss_19test_internal_error
FN:241,_RNvNtNtCsaqyYch7mDu7_18nestgate_canonical5error5testss_19test_security_error
FN:549,_RNvNtNtCsaqyYch7mDu7_18nestgate_canonical5error5testss_20test_result_and_then
FN:531,_RNvNtNtCsaqyYch7mDu7_18nestgate_canonical5error5testss_20test_result_ok_value
FN:513,_RNvNtNtCsaqyYch7mDu7_18nestgate_canonical5error5testss_20test_unicode_message
FN:256,_RNvNtNtCsaqyYch7mDu7_18nestgate_canonical5error5testss_21test_validation_error
FN:264,_RNvNtNtCsaqyYch7mDu7_18nestgate_canonical5error5testss_22test_file_system_error
FN:456,_RNvNtNtCsaqyYch7mDu7_18nestgate_canonical5error5testss_23test_clone_all_variants
FN:473,_RNvNtNtCsaqyYch7mDu7_18nestgate_canonical5error5testss_23test_debug_all_variants
FN:505,_RNvNtNtCsaqyYch7mDu7_18nestgate_canonical5error5testss_23test_special_characters
FN:193,_RNvNtNtCsaqyYch7mDu7_18nestgate_canonical5error5testss_24test_configuration_error
FN:392,_RNvNtNtCsaqyYch7mDu7_18nestgate_canonical5error5testss_25test_error_source_is_none
FN:298,_RNvNtNtCsaqyYch7mDu7_18nestgate_canonical5error5testss_25test_nestgate_result_type
FN:413,_RNvNtNtCsaqyYch7mDu7_18nestgate_canonical5error5testss_26test_serialization_network
FN:420,_RNvNtNtCsaqyYch7mDu7_18nestgate_canonical5error5testss_26test_serialization_storage
FN:434,_RNvNtNtCsaqyYch7mDu7_18nestgate_canonical5error5testss_27test_serialization_internal
FN:427,_RNvNtNtCsaqyYch7mDu7_18nestgate_canonical5error5testss_27test_serialization_security
FN:374,_RNvNtNtCsaqyYch7mDu7_18nestgate_canonical5error5testss_27test_validation_error_field
FN:583,_RNvNtNtCsaqyYch7mDu7_18nestgate_canonical5error5testss_28test_nestgate_result_with_ok
FN:232,_RNvNtNtCsaqyYch7mDu7_18nestgate_canonical5error5testss_28test_storage_error_with_path
FN:362,_RNvNtNtCsaqyYch7mDu7_18nestgate_canonical5error5testss_29test_internal_error_component
FN:521,_RNvNtNtCsaqyYch7mDu7_18nestgate_canonical5error5testss_29test_result_error_propagation
FN:448,_RNvNtNtCsaqyYch7mDu7_18nestgate_canonical5error5testss_29test_round_trip_serialization
FN:441,_RNvNtNtCsaqyYch7mDu7_18nestgate_canonical5error5testss_29test_serialization_validation
FN:386,_RNvNtNtCsaqyYch7mDu7_18nestgate_canonical5error5testss_31test_error_trait_implementation
FN:573,_RNvNtNtCsaqyYch7mDu7_18nestgate_canonical5error5testss_31test_nestgate_result_with_error
FN:328,_RNvNtNtCsaqyYch7mDu7_18nestgate_canonical5error5testss_31test_storage_error_without_path
FN:556,_RNvNtNtCsaqyYch7mDu7_18nestgate_canonical5error5testss_32test_file_system_error_with_path
FN:216,_RNvNtNtCsaqyYch7mDu7_18nestgate_canonical5error5testss_32test_network_error_with_endpoint
FN:339,_RNvNtNtCsaqyYch7mDu7_18nestgate_canonical5error5testss_32test_security_error_with_details
FN:399,_RNvNtNtCsaqyYch7mDu7_18nestgate_canonical5error5testss_32test_serialization_configuration
FN:406,_RNvNtNtCsaqyYch7mDu7_18nestgate_canonical5error5testss_34test_deserialization_configuration
FN:200,_RNvNtNtCsaqyYch7mDu7_18nestgate_canonical5error5testss_35test_configuration_error_with_field
FN:565,_RNvNtNtCsaqyYch7mDu7_18nestgate_canonical5error5testss_35test_file_system_error_without_path
FN:317,_RNvNtNtCsaqyYch7mDu7_18nestgate_canonical5error5testss_35test_network_error_without_endpoint
FN:351,_RNvNtNtCsaqyYch7mDu7_18nestgate_canonical5error5testss_35test_security_error_without_details
FN:306,_RNvNtNtCsaqyYch7mDu7_18nestgate_canonical5error5testss_38test_configuration_error_without_field
FN:532,_RNvNvNtNtCsaqyYch7mDu7_18nestgate_canonical5error5testss_20test_result_ok_value10returns_ok
FN:522,_RNvNvNtNtCsaqyYch7mDu7_18nestgate_canonical5error5testss_29test_result_error_propagation13returns_error
FN:45,_RNvXNtCsaqyYch7mDu7_18nestgate_canonical5errorNtB2_13NestGateErrorNtNtCs5GmCzIpY9Qj_4core3fmt7Display3fmt
FN:172,_RINvMs0_NtCsaqyYch7mDu7_18nestgate_canonical5errorNtB6_13NestGateError10validationNtNtCscmSb185pVu_5alloc6string6StringEB8_
FN:172,_RINvMs0_NtCsaqyYch7mDu7_18nestgate_canonical5errorNtB6_13NestGateError10validationReEB8_
FN:180,_RINvMs0_NtCsaqyYch7mDu7_18nestgate_canonical5errorNtB6_13NestGateError11file_systemReB1j_EB8_
FN:180,_RINvMs0_NtCsaqyYch7mDu7_18nestgate_canonical5errorNtB6_13NestGateError11file_systemReNtNtCscmSb185pVu_5alloc6string6StringEB8_
FN:148,_RINvMs0_NtCsaqyYch7mDu7_18nestgate_canonical5errorNtB6_13NestGateError12storage_pathReB1k_EB8_
FN:108,_RINvMs0_NtCsaqyYch7mDu7_18nestgate_canonical5errorNtB6_13NestGateError13configurationRNtNtCscmSb185pVu_5alloc6string6StringEB8_
FN:108,_RINvMs0_NtCsaqyYch7mDu7_18nestgate_canonical5errorNtB6_13NestGateError13configurationReEB8_
FN:132,_RINvMs0_NtCsaqyYch7mDu7_18nestgate_canonical5errorNtB6_13NestGateError16network_endpointReB1o_EB8_
FN:116,_RINvMs0_NtCsaqyYch7mDu7_18nestgate_canonical5errorNtB6_13NestGateError19configuration_fieldReB1r_EB8_
FN:124,_RINvMs0_NtCsaqyYch7mDu7_18nestgate_canonical5errorNtB6_13NestGateError7networkReEB8_
FN:140,_RINvMs0_NtCsaqyYch7mDu7_18nestgate_canonical5errorNtB6_13NestGateError7storageReEB8_
FN:164,_RINvMs0_NtCsaqyYch7mDu7_18nestgate_canonical5errorNtB6_13NestGateError8internalReEB8_
FN:156,_RINvMs0_NtCsaqyYch7mDu7_18nestgate_canonical5errorNtB6_13NestGateError8securityReEB8_
FNDA:1,_RNCNvNtNtCsaqyYch7mDu7_18nestgate_canonical5error5testss_15test_result_map0B7_
FNDA:1,_RNCNvNtNtCsaqyYch7mDu7_18nestgate_canonical5error5testss_20test_result_and_then0B7_
FNDA:1,_RNvNtNtCsaqyYch7mDu7_18nestgate_canonical5error5testss_14test_result_ok
FNDA:1,_RNvNtNtCsaqyYch7mDu7_18nestgate_canonical5error5testss_15test_result_err
FNDA:1,_RNvNtNtCsaqyYch7mDu7_18nestgate_canonical5error5testss_15test_result_map
FNDA:1,_RNvNtNtCsaqyYch7mDu7_18nestgate_canonical5error5testss_16test_error_clone
FNDA:1,_RNvNtNtCsaqyYch7mDu7_18nestgate_canonical5error5testss_16test_error_debug
FNDA:1,_RNvNtNtCsaqyYch7mDu7_18nestgate_canonical5error5testss_17test_long_message
FNDA:1,_RNvNtNtCsaqyYch7mDu7_18nestgate_canonical5error5testss_18test_empty_message
FNDA:1,_RNvNtNtCsaqyYch7mDu7_18nestgate_canonical5error5testss_18test_network_error
FNDA:1,_RNvNtNtCsaqyYch7mDu7_18nestgate_canonical5error5testss_18test_storage_error
FNDA:1,_RNvNtNtCsaqyYch7mDu7_18nestgate_canonical5error5testss_19test_internal_error
FNDA:1,_RNvNtNtCsaqyYch7mDu7_18nestgate_canonical5error5testss_19test_security_error
FNDA:1,_RNvNtNtCsaqyYch7mDu7_18nestgate_canonical5error5testss_20test_result_and_then
FNDA:1,_RNvNtNtCsaqyYch7mDu7_18nestgate_canonical5error5testss_20test_result_ok_value
FNDA:1,_RNvNtNtCsaqyYch7mDu7_18nestgate_canonical5error5testss_20test_unicode_message
FNDA:1,_RNvNtNtCsaqyYch7mDu7_18nestgate_canonical5error5testss_21test_validation_error
FNDA:1,_RNvNtNtCsaqyYch7mDu7_18nestgate_canonical5error5testss_22test_file_system_error
FNDA:1,_RNvNtNtCsaqyYch7mDu7_18nestgate_canonical5error5testss_23test_clone_all_variants
FNDA:1,_RNvNtNtCsaqyYch7mDu7_18nestgate_canonical5error5testss_23test_debug_all_variants
FNDA:1,_RNvNtNtCsaqyYch7mDu7_18nestgate_canonical5error5testss_23test_special_characters
FNDA:1,_RNvNtNtCsaqyYch7mDu7_18nestgate_canonical5error5testss_24test_configuration_error
FNDA:1,_RNvNtNtCsaqyYch7mDu7_18nestgate_canonical5error5testss_25test_error_source_is_none
FNDA:1,_RNvNtNtCsaqyYch7mDu7_18nestgate_canonical5error5testss_25test_nestgate_result_type
FNDA:1,_RNvNtNtCsaqyYch7mDu7_18nestgate_canonical5error5testss_26test_serialization_network
FNDA:1,_RNvNtNtCsaqyYch7mDu7_18nestgate_canonical5error5testss_26test_serialization_storage
FNDA:1,_RNvNtNtCsaqyYch7mDu7_18nestgate_canonical5error5testss_27test_serialization_internal
FNDA:1,_RNvNtNtCsaqyYch7mDu7_18nestgate_canonical5error5testss_27test_serialization_security
FNDA:1,_RNvNtNtCsaqyYch7mDu7_18nestgate_canonical5error5testss_27test_validation_error_field
FNDA:1,_RNvNtNtCsaqyYch7mDu7_18nestgate_canonical5error5testss_28test_nestgate_result_with_ok
FNDA:1,_RNvNtNtCsaqyYch7mDu7_18nestgate_canonical5error5testss_28test_storage_error_with_path
FNDA:1,_RNvNtNtCsaqyYch7mDu7_18nestgate_canonical5error5testss_29test_internal_error_component
FNDA:1,_RNvNtNtCsaqyYch7mDu7_18nestgate_canonical5error5testss_29test_result_error_propagation
FNDA:1,_RNvNtNtCsaqyYch7mDu7_18nestgate_canonical5error5testss_29test_round_trip_serialization
FNDA:1,_RNvNtNtCsaqyYch7mDu7_18nestgate_canonical5error5testss_29test_serialization_validation
FNDA:1,_RNvNtNtCsaqyYch7mDu7_18nestgate_canonical5error5testss_31test_error_trait_implementation
FNDA:1,_RNvNtNtCsaqyYch7mDu7_18nestgate_canonical5error5testss_31test_nestgate_result_with_error
FNDA:1,_RNvNtNtCsaqyYch7mDu7_18nestgate_canonical5error5testss_31test_storage_error_without_path
FNDA:1,_RNvNtNtCsaqyYch7mDu7_18nestgate_canonical5error5testss_32test_file_system_error_with_path
FNDA:1,_RNvNtNtCsaqyYch7mDu7_18nestgate_canonical5error5testss_32test_network_error_with_endpoint
FNDA:1,_RNvNtNtCsaqyYch7mDu7_18nestgate_canonical5error5testss_32test_security_error_with_details
FNDA:1,_RNvNtNtCsaqyYch7mDu7_18nestgate_canonical5error5testss_32test_serialization_configuration
FNDA:1,_RNvNtNtCsaqyYch7mDu7_18nestgate_canonical5error5testss_34test_deserialization_configuration
FNDA:1,_RNvNtNtCsaqyYch7mDu7_18nestgate_canonical5error5testss_35test_configuration_error_with_field
FNDA:1,_RNvNtNtCsaqyYch7mDu7_18nestgate_canonical5error5testss_35test_file_system_error_without_path
FNDA:1,_RNvNtNtCsaqyYch7mDu7_18nestgate_canonical5error5testss_35test_network_error_without_endpoint
FNDA:1,_RNvNtNtCsaqyYch7mDu7_18nestgate_canonical5error5testss_35test_security_error_without_details
FNDA:1,_RNvNtNtCsaqyYch7mDu7_18nestgate_canonical5error5testss_38test_configuration_error_without_field
FNDA:1,_RNvNvNtNtCsaqyYch7mDu7_18nestgate_canonical5error5testss_20test_result_ok_value10returns_ok
FNDA:1,_RNvNvNtNtCsaqyYch7mDu7_18nestgate_canonical5error5testss_29test_result_error_propagation13returns_error
FNDA:47,_RNvXNtCsaqyYch7mDu7_18nestgate_canonical5errorNtB2_13NestGateErrorNtNtCs5GmCzIpY9Qj_4core3fmt7Display3fmt
FNDA:1,_RINvMs0_NtCsaqyYch7mDu7_18nestgate_canonical5errorNtB6_13NestGateError10validationNtNtCscmSb185pVu_5alloc6string6StringEB8_
FNDA:12,_RINvMs0_NtCsaqyYch7mDu7_18nestgate_canonical5errorNtB6_13NestGateError10validationReEB8_
FNDA:2,_RINvMs0_NtCsaqyYch7mDu7_18nestgate_canonical5errorNtB6_13NestGateError11file_systemReB1j_EB8_
FNDA:1,_RINvMs0_NtCsaqyYch7mDu7_18nestgate_canonical5errorNtB6_13NestGateError11file_systemReNtNtCscmSb185pVu_5alloc6string6StringEB8_
FNDA:2,_RINvMs0_NtCsaqyYch7mDu7_18nestgate_canonical5errorNtB6_13NestGateError12storage_pathReB1k_EB8_
FNDA:1,_RINvMs0_NtCsaqyYch7mDu7_18nestgate_canonical5errorNtB6_13NestGateError13configurationRNtNtCscmSb185pVu_5alloc6string6StringEB8_
FNDA:8,_RINvMs0_NtCsaqyYch7mDu7_18nestgate_canonical5errorNtB6_13NestGateError13configurationReEB8_
FNDA:3,_RINvMs0_NtCsaqyYch7mDu7_18nestgate_canonical5errorNtB6_13NestGateError16network_endpointReB1o_EB8_
FNDA:1,_RINvMs0_NtCsaqyYch7mDu7_18nestgate_canonical5errorNtB6_13NestGateError19configuration_fieldReB1r_EB8_
FNDA:4,_RINvMs0_NtCsaqyYch7mDu7_18nestgate_canonical5errorNtB6_13NestGateError7networkReEB8_
FNDA:3,_RINvMs0_NtCsaqyYch7mDu7_18nestgate_canonical5errorNtB6_13NestGateError7storageReEB8_
FNDA:4,_RINvMs0_NtCsaqyYch7mDu7_18nestgate_canonical5errorNtB6_13NestGateError8internalReEB8_
FNDA:4,_RINvMs0_NtCsaqyYch7mDu7_18nestgate_canonical5errorNtB6_13NestGateError8securityReEB8_
FNF:61
FNH:61
DA:45,47
DA:46,47
DA:47,10
DA:48,10
DA:49,10
DA:50,1
DA:51,9
DA:52,10
DA:55,10
DA:57,10
DA:58,10
DA:59,3
DA:60,7
DA:61,10
DA:63,9
DA:64,9
DA:65,9
DA:66,3
DA:67,6
DA:68,9
DA:71,6
DA:73,6
DA:74,6
DA:75,1
DA:76,5
DA:77,6
DA:79,4
DA:80,4
DA:81,4
DA:83,8
DA:84,8
DA:85,8
DA:88,47
DA:108,9
DA:109,9
DA:110,9
DA:111,9
DA:112,9
DA:113,9
DA:116,1
DA:117,1
DA:118,1
DA:119,1
DA:120,1
DA:121,1
DA:124,4
DA:125,4
DA:126,4
DA:127,4
DA:128,4
DA:129,4
DA:132,3
DA:133,3
DA:134,3
DA:135,3
DA:136,3
DA:137,3
DA:140,3
DA:141,3
DA:142,3
DA:143,3
DA:144,3
DA:145,3
DA:148,2
DA:149,2
DA:150,2
DA:151,2
DA:152,2
DA:153,2
DA:156,4
DA:157,4
DA:158,4
DA:159,4
DA:160,4
DA:161,4
DA:164,4
DA:165,4
DA:166,4
DA:167,4
DA:168,4
DA:169,4
DA:172,13
DA:173,13
DA:174,13
DA:175,13
DA:176,13
DA:177,13
DA:180,3
DA:181,3
DA:182,3
DA:183,3
DA:184,3
DA:185,3
DA:193,1
DA:194,1
DA:195,1
DA:196,1
DA:197,1
DA:200,1
DA:201,1
DA:202,1
DA:203,1
DA:204,1
DA:205,1
DA:206,1
DA:209,1
DA:210,1
DA:211,1
DA:212,1
DA:213,1
DA:216,1
DA:217,1
DA:218,1
DA:219,1
DA:220,1
DA:221,1
DA:222,1
DA:225,1
DA:226,1
DA:227,1
DA:228,1
DA:229,1
DA:232,1
DA:233,1
DA:234,1
DA:235,1
DA:236,1
DA:237,1
DA:238,1
DA:241,1
DA:242,1
DA:243,1
DA:244,1
DA:245,1
DA:248,1
DA:249,1
DA:250,1
DA:251,1
DA:252,1
DA:253,1
DA:256,1
DA:257,1
DA:258,1
DA:259,1
DA:260,1
DA:261,1
DA:264,1
DA:265,1
DA:266,1
DA:267,1
DA:270,1
DA:271,1
DA:272,1
DA:273,1
DA:274,1
DA:277,1
DA:278,1
DA:279,1
DA:280,1
DA:281,1
DA:285,1
DA:286,1
DA:287,1
DA:288,1
DA:289,1
DA:292,1
DA:293,1
DA:294,1
DA:295,1
DA:298,1
DA:299,1
DA:300,1
DA:301,1
DA:306,1
DA:307,1
DA:308,1
DA:309,1
DA:310,1
DA:311,1
DA:312,1
DA:313,1
DA:314,1
DA:317,1
DA:318,1
DA:319,1
DA:320,1
DA:321,1
DA:322,1
DA:323,1
DA:324,1
DA:325,1
DA:328,1
DA:329,1
DA:330,1
DA:331,1
DA:332,1
DA:333,1
DA:334,1
DA:335,1
DA:336,1
DA:339,1
DA:340,1
DA:341,1
DA:342,1
DA:343,1
DA:344,1
DA:345,1
DA:346,1
DA:347,1
DA:348,1
DA:351,1
DA:352,1
DA:353,1
DA:354,1
DA:355,1
DA:356,1
DA:357,1
DA:358,1
DA:359,1
DA:362,1
DA:363,1
DA:364,1
DA:365,1
DA:366,1
DA:367,1
DA:368,1
DA:369,1
DA:370,1
DA:371,1
DA:374,1
DA:375,1
DA:376,1
DA:377,1
DA:378,1
DA:379,1
DA:380,1
DA:381,1
DA:382,1
DA:383,1
DA:386,1
DA:387,1
DA:388,1
DA:389,1
DA:392,1
DA:393,1
DA:395,1
DA:396,1
DA:399,1
DA:400,1
DA:401,1
DA:402,1
DA:403,1
DA:406,1
DA:407,1
DA:408,1
DA:409,1
DA:410,1
DA:413,1
DA:414,1
DA:415,1
DA:416,1
DA:417,1
DA:420,1
DA:421,1
DA:422,1
DA:423,1
DA:424,1
DA:427,1
DA:428,1
DA:429,1
DA:430,1
DA:431,1
DA:434,1
DA:435,1
DA:436,1
DA:437,1
DA:438,1
DA:441,1
DA:442,1
DA:443,1
DA:444,1
DA:445,1
DA:448,1
DA:449,1
DA:450,1
DA:451,1
DA:452,1
DA:453,1
DA:456,1
DA:457,1
DA:458,1
DA:459,1
DA:460,1
DA:461,1
DA:462,1
DA:463,1
DA:466,7
DA:467,6
DA:468,6
DA:470,1
DA:473,1
DA:474,1
DA:475,1
DA:476,1
DA:477,1
DA:478,1
DA:479,1
DA:480,1
DA:483,7
DA:484,6
DA:485,6
DA:487,1
DA:490,1
DA:491,1
DA:492,1
DA:493,1
DA:494,1
DA:497,1
DA:498,1
DA:499,1
DA:500,1
DA:501,1
DA:502,1
DA:505,1
DA:506,1
DA:507,1
DA:508,1
DA:509,1
DA:510,1
DA:513,1
DA:514,1
DA:515,1
DA:516,1
DA:517,1
DA:518,1
DA:521,1
DA:522,1
DA:523,1
DA:524,1
DA:526,1
DA:527,1
DA:528,1
DA:531,1
DA:532,1
DA:533,1
DA:534,1
DA:536,1
DA:537,1
DA:538,1
DA:539,1
DA:542,1
DA:543,1
DA:544,1
DA:545,1
DA:546,1
DA:549,1
DA:550,1
DA:551,1
DA:552,1
DA:553,1
DA:556,1
DA:557,1
DA:558,1
DA:559,1
DA:560,1
DA:561,1
DA:562,1
DA:565,1
DA:566,1
DA:567,1
DA:568,1
DA:569,1
DA:570,1
DA:573,1
DA:574,1
DA:575,1
DA:576,1
DA:577,1
DA:578,0
DA:579,1
DA:583,1
DA:584,1
DA:585,1
DA:586,1
DA:587,1
BRF:0
BRH:0
LF:387
LH:386
end_of_record
SF:/home/eastgate/Development/ecoPrimals/nestgate/code/crates/nestgate-canonical/src/traits.rs
FN:158,_RNCNvXs_NtCsaqyYch7mDu7_18nestgate_canonical6traitsNtB6_20UniversalServiceImplNtB6_16CanonicalService12health_check0B8_
FN:171,_RNCNvXs_NtCsaqyYch7mDu7_18nestgate_canonical6traitsNtB6_20UniversalServiceImplNtB6_16CanonicalService4stop0B8_
FN:166,_RNCNvXs_NtCsaqyYch7mDu7_18nestgate_canonical6traitsNtB6_20UniversalServiceImplNtB6_16CanonicalService5start0B8_
FN:137,_RNvMNtCsaqyYch7mDu7_18nestgate_canonical6traitsNtB2_20UniversalServiceImpl3new
FN:158,_RNvXs_NtCsaqyYch7mDu7_18nestgate_canonical6traitsNtB4_20UniversalServiceImplNtB4_16CanonicalService12health_check
FN:171,_RNvXs_NtCsaqyYch7mDu7_18nestgate_canonical6traitsNtB4_20UniversalServiceImplNtB4_16CanonicalService4stop
FN:166,_RNvXs_NtCsaqyYch7mDu7_18nestgate_canonical6traitsNtB4_20UniversalServiceImplNtB4_16CanonicalService5start
FNDA:0,_RNCNvXs_NtCsaqyYch7mDu7_18nestgate_canonical6traitsNtB6_20UniversalServiceImplNtB6_16CanonicalService12health_check0B8_
FNDA:0,_RNCNvXs_NtCsaqyYch7mDu7_18nestgate_canonical6traitsNtB6_20UniversalServiceImplNtB6_16CanonicalService4stop0B8_
FNDA:0,_RNCNvXs_NtCsaqyYch7mDu7_18nestgate_canonical6traitsNtB6_20UniversalServiceImplNtB6_16CanonicalService5start0B8_
FNDA:0,_RNvMNtCsaqyYch7mDu7_18nestgate_canonical6traitsNtB2_20UniversalServiceImpl3new
FNDA:0,_RNvXs_NtCsaqyYch7mDu7_18nestgate_canonical6traitsNtB4_20UniversalServiceImplNtB4_16CanonicalService12health_check
FNDA:0,_RNvXs_NtCsaqyYch7mDu7_18nestgate_canonical6traitsNtB4_20UniversalServiceImplNtB4_16CanonicalService4stop
FNDA:0,_RNvXs_NtCsaqyYch7mDu7_18nestgate_canonical6traitsNtB4_20UniversalServiceImplNtB4_16CanonicalService5start
FNF:7
FNH:0
DA:137,0
DA:138,0
DA:139,0
DA:140,0
DA:141,0
DA:142,0
DA:143,0
DA:144,0
DA:145,0
DA:146,0
DA:147,0
DA:148,0
DA:149,0
DA:150,0
DA:151,0
DA:158,0
DA:159,0
DA:160,0
DA:161,0
DA:162,0
DA:163,0
DA:164,0
DA:166,0
DA:168,0
DA:169,0
DA:171,0
DA:173,0
DA:174,0
DA:175,0
DA:176,0
DA:177,0
DA:178,0
DA:179,0
BRF:0
BRH:0
LF:36
LH:0
end_of_record
SF:/home/eastgate/Development/ecoPrimals/nestgate/code/crates/nestgate-canonical/src/types.rs
FN:885,_RNvNtNtCsaqyYch7mDu7_18nestgate_canonical5types5testss_22test_auth_config_clone
FN:424,_RNvNtNtCsaqyYch7mDu7_18nestgate_canonical5types5testss_22test_capability_id_new
FN:893,_RNvNtNtCsaqyYch7mDu7_18nestgate_canonical5types5testss_23test_auth_config_custom
FN:497,_RNvNtNtCsaqyYch7mDu7_18nestgate_canonical5types5testss_23test_storage_tier_clone
FN:875,_RNvNtNtCsaqyYch7mDu7_18nestgate_canonical5types5testss_24test_auth_config_default
FN:448,_RNvNtNtCsaqyYch7mDu7_18nestgate_canonical5types5testss_24test_capability_id_clone
FN:935,_RNvNtNtCsaqyYch7mDu7_18nestgate_canonical5types5testss_24test_file_analysis_clone
FN:525,_RNvNtNtCsaqyYch7mDu7_18nestgate_canonical5types5testss_25test_access_pattern_clone
FN:630,_RNvNtNtCsaqyYch7mDu7_18nestgate_canonical5types5testss_25test_network_config_clone
FN:558,_RNvNtNtCsaqyYch7mDu7_18nestgate_canonical5types5testss_25test_service_health_clone
FN:657,_RNvNtNtCsaqyYch7mDu7_18nestgate_canonical5types5testss_25test_storage_config_clone
FN:436,_RNvNtNtCsaqyYch7mDu7_18nestgate_canonical5types5testss_26test_capability_id_getters
FN:703,_RNvNtNtCsaqyYch7mDu7_18nestgate_canonical5types5testss_26test_password_policy_clone
FN:683,_RNvNtNtCsaqyYch7mDu7_18nestgate_canonical5types5testss_26test_security_config_clone
FN:592,_RNvNtNtCsaqyYch7mDu7_18nestgate_canonical5types5testss_26test_service_metrics_clone
FN:491,_RNvNtNtCsaqyYch7mDu7_18nestgate_canonical5types5testss_26test_storage_tier_equality
FN:482,_RNvNtNtCsaqyYch7mDu7_18nestgate_canonical5types5testss_26test_storage_tier_variants
FN:865,_RNvNtNtCsaqyYch7mDu7_18nestgate_canonical5types5testss_27test_canonical_config_clone
FN:459,_RNvNtNtCsaqyYch7mDu7_18nestgate_canonical5types5testss_27test_capability_id_equality
FN:915,_RNvNtNtCsaqyYch7mDu7_18nestgate_canonical5types5testss_27test_file_analysis_creation
FN:620,_RNvNtNtCsaqyYch7mDu7_18nestgate_canonical5types5testss_27test_network_config_default
FN:534,_RNvNtNtCsaqyYch7mDu7_18nestgate_canonical5types5testss_27test_service_health_default
FN:542,_RNvNtNtCsaqyYch7mDu7_18nestgate_canonical5types5testss_27test_service_health_healthy
FN:647,_RNvNtNtCsaqyYch7mDu7_18nestgate_canonical5types5testss_27test_storage_config_default
FN:519,_RNvNtNtCsaqyYch7mDu7_18nestgate_canonical5types5testss_28test_access_pattern_equality
FN:506,_RNvNtNtCsaqyYch7mDu7_18nestgate_canonical5types5testss_28test_access_pattern_variants
FN:693,_RNvNtNtCsaqyYch7mDu7_18nestgate_canonical5types5testss_28test_password_policy_default
FN:674,_RNvNtNtCsaqyYch7mDu7_18nestgate_canonical5types5testss_28test_security_config_default
FN:550,_RNvNtNtCsaqyYch7mDu7_18nestgate_canonical5types5testss_28test_service_health_shutdown
FN:579,_RNvNtNtCsaqyYch7mDu7_18nestgate_canonical5types5testss_28test_service_metrics_default
FN:854,_RNvNtNtCsaqyYch7mDu7_18nestgate_canonical5types5testss_29test_canonical_config_default
FN:814,_RNvNtNtCsaqyYch7mDu7_18nestgate_canonical5types5testss_29test_canonical_response_error
FN:737,_RNvNtNtCsaqyYch7mDu7_18nestgate_canonical5types5testss_29test_performance_config_clone
FN:753,_RNvNtNtCsaqyYch7mDu7_18nestgate_canonical5types5testss_31test_canonical_request_creation
FN:790,_RNvNtNtCsaqyYch7mDu7_18nestgate_canonical5types5testss_31test_canonical_response_default
FN:800,_RNvNtNtCsaqyYch7mDu7_18nestgate_canonical5types5testss_31test_canonical_response_success
FN:727,_RNvNtNtCsaqyYch7mDu7_18nestgate_canonical5types5testss_31test_performance_config_default
FN:395,_RNvNtNtCsaqyYch7mDu7_18nestgate_canonical5types5testss_31test_unified_service_type_clone
FN:468,_RNvNtNtCsaqyYch7mDu7_18nestgate_canonical5types5testss_32test_capability_id_serialization
FN:566,_RNvNtNtCsaqyYch7mDu7_18nestgate_canonical5types5testss_32test_service_health_with_details
FN:382,_RNvNtNtCsaqyYch7mDu7_18nestgate_canonical5types5testss_33test_unified_service_type_display
FN:717,_RNvNtNtCsaqyYch7mDu7_18nestgate_canonical5types5testss_34test_password_policy_serialization
FN:609,_RNvNtNtCsaqyYch7mDu7_18nestgate_canonical5types5testss_34test_service_metrics_serialization
FN:402,_RNvNtNtCsaqyYch7mDu7_18nestgate_canonical5types5testss_34test_unified_service_type_equality
FN:771,_RNvNtNtCsaqyYch7mDu7_18nestgate_canonical5types5testss_35test_canonical_request_with_payload
FN:828,_RNvNtNtCsaqyYch7mDu7_18nestgate_canonical5types5testss_36test_canonical_response_with_metrics
FN:408,_RNvNtNtCsaqyYch7mDu7_18nestgate_canonical5types5testss_39test_unified_service_type_serialization
FN:415,_RNvNtNtCsaqyYch7mDu7_18nestgate_canonical5types5testss_41test_unified_service_type_deserialization
FN:283,_RNCNvXs5_NtCsaqyYch7mDu7_18nestgate_canonical5typesNtB7_13NetworkConfigNtNtCs5GmCzIpY9Qj_4core7default7Default7default0B9_
FN:285,_RNCNvXs5_NtCsaqyYch7mDu7_18nestgate_canonical5typesNtB7_13NetworkConfigNtNtCs5GmCzIpY9Qj_4core7default7Default7defaults_0B9_
FN:301,_RNCNvXs6_NtCsaqyYch7mDu7_18nestgate_canonical5typesNtB7_13StorageConfigNtNtCs5GmCzIpY9Qj_4core7default7Default7default0B9_
FN:120,_RNvMs1_NtCsaqyYch7mDu7_18nestgate_canonical5typesNtB5_13ServiceHealth7healthy
FN:130,_RNvMs1_NtCsaqyYch7mDu7_18nestgate_canonical5typesNtB5_13ServiceHealth8shutdown
FN:59,_RNvMs_NtCsaqyYch7mDu7_18nestgate_canonical5typesNtB4_12CapabilityId10capability
FN:43,_RNvMs_NtCsaqyYch7mDu7_18nestgate_canonical5typesNtB4_12CapabilityId3new
FN:53,_RNvMs_NtCsaqyYch7mDu7_18nestgate_canonical5typesNtB4_12CapabilityId6domain
FN:65,_RNvMs_NtCsaqyYch7mDu7_18nestgate_canonical5typesNtB4_12CapabilityId7version
FN:21,_RNvXNtCsaqyYch7mDu7_18nestgate_canonical5typesNtB2_18UnifiedServiceTypeNtNtCs5GmCzIpY9Qj_4core3fmt7Display3fmt
FN:108,_RNvXs0_NtCsaqyYch7mDu7_18nestgate_canonical5typesNtB5_13ServiceHealthNtNtCs5GmCzIpY9Qj_4core7default7Default7default
FN:152,_RNvXs2_NtCsaqyYch7mDu7_18nestgate_canonical5typesNtB5_14ServiceMetricsNtNtCs5GmCzIpY9Qj_4core7default7Default7default
FN:250,_RNvXs3_NtCsaqyYch7mDu7_18nestgate_canonical5typesNtB5_17CanonicalResponseNtNtCs5GmCzIpY9Qj_4core7default7Default7default
FN:263,_RNvXs4_NtCsaqyYch7mDu7_18nestgate_canonical5typesNtB5_15CanonicalConfigNtNtCs5GmCzIpY9Qj_4core7default7Default7default
FN:280,_RNvXs5_NtCsaqyYch7mDu7_18nestgate_canonical5typesNtB5_13NetworkConfigNtNtCs5GmCzIpY9Qj_4core7default7Default7default
FN:297,_RNvXs6_NtCsaqyYch7mDu7_18nestgate_canonical5typesNtB5_13StorageConfigNtNtCs5GmCzIpY9Qj_4core7default7Default7default
FN:311,_RNvXs7_NtCsaqyYch7mDu7_18nestgate_canonical5typesNtB5_14SecurityConfigNtNtCs5GmCzIpY9Qj_4core7default7Default7default
FN:323,_RNvXs8_NtCsaqyYch7mDu7_18nestgate_canonical5typesNtB5_17PerformanceConfigNtNtCs5GmCzIpY9Qj_4core7default7Default7default
FN:351,_RNvXs9_NtCsaqyYch7mDu7_18nestgate_canonical5typesNtB5_14PasswordPolicyNtNtCs5GmCzIpY9Qj_4core7default7Default7default
FN:363,_RNvXsa_NtCsaqyYch7mDu7_18nestgate_canonical5typesNtB5_10AuthConfigNtNtCs5GmCzIpY9Qj_4core7default7Default7default
FNDA:1,_RNvNtNtCsaqyYch7mDu7_18nestgate_canonical5types5testss_22test_auth_config_clone
FNDA:1,_RNvNtNtCsaqyYch7mDu7_18nestgate_canonical5types5testss_22test_capability_id_new
FNDA:1,_RNvNtNtCsaqyYch7mDu7_18nestgate_canonical5types5testss_23test_auth_config_custom
FNDA:1,_RNvNtNtCsaqyYch7mDu7_18nestgate_canonical5types5testss_23test_storage_tier_clone
FNDA:1,_RNvNtNtCsaqyYch7mDu7_18nestgate_canonical5types5testss_24test_auth_config_default
FNDA:1,_RNvNtNtCsaqyYch7mDu7_18nestgate_canonical5types5testss_24test_capability_id_clone
FNDA:1,_RNvNtNtCsaqyYch7mDu7_18nestgate_canonical5types5testss_24test_file_analysis_clone
FNDA:1,_RNvNtNtCsaqyYch7mDu7_18nestgate_canonical5types5testss_25test_access_pattern_clone
FNDA:1,_RNvNtNtCsaqyYch7mDu7_18nestgate_canonical5types5testss_25test_network_config_clone
FNDA:1,_RNvNtNtCsaqyYch7mDu7_18nestgate_canonical5types5testss_25test_service_health_clone
FNDA:1,_RNvNtNtCsaqyYch7mDu7_18nestgate_canonical5types5testss_25test_storage_config_clone
FNDA:1,_RNvNtNtCsaqyYch7mDu7_18nestgate_canonical5types5testss_26test_capability_id_getters
FNDA:1,_RNvNtNtCsaqyYch7mDu7_18nestgate_canonical5types5testss_26test_password_policy_clone
FNDA:1,_RNvNtNtCsaqyYch7mDu7_18nestgate_canonical5types5testss_26test_security_config_clone
FNDA:1,_RNvNtNtCsaqyYch7mDu7_18nestgate_canonical5types5testss_26test_service_metrics_clone
FNDA:1,_RNvNtNtCsaqyYch7mDu7_18nestgate_canonical5types5testss_26test_storage_tier_equality
FNDA:1,_RNvNtNtCsaqyYch7mDu7_18nestgate_canonical5types5testss_26test_storage_tier_variants
FNDA:1,_RNvNtNtCsaqyYch7mDu7_18nestgate_canonical5types5testss_27test_canonical_config_clone
FNDA:1,_RNvNtNtCsaqyYch7mDu7_18nestgate_canonical5types5testss_27test_capability_id_equality
FNDA:1,_RNvNtNtCsaqyYch7mDu7_18nestgate_canonical5types5testss_27test_file_analysis_creation
FNDA:1,_RNvNtNtCsaqyYch7mDu7_18nestgate_canonical5types5testss_27test_network_config_default
FNDA:1,_RNvNtNtCsaqyYch7mDu7_18nestgate_canonical5types5testss_27test_service_health_default
FNDA:1,_RNvNtNtCsaqyYch7mDu7_18nestgate_canonical5types5testss_27test_service_health_healthy
FNDA:1,_RNvNtNtCsaqyYch7mDu7_18nestgate_canonical5types5testss_27test_storage_config_default
FNDA:1,_RNvNtNtCsaqyYch7mDu7_18nestgate_canonical5types5testss_28test_access_pattern_equality
FNDA:1,_RNvNtNtCsaqyYch7mDu7_18nestgate_canonical5types5testss_28test_access_pattern_variants
FNDA:1,_RNvNtNtCsaqyYch7mDu7_18nestgate_canonical5types5testss_28test_password_policy_default
FNDA:1,_RNvNtNtCsaqyYch7mDu7_18nestgate_canonical5types5testss_28test_security_config_default
FNDA:1,_RNvNtNtCsaqyYch7mDu7_18nestgate_canonical5types5testss_28test_service_health_shutdown
FNDA:1,_RNvNtNtCsaqyYch7mDu7_18nestgate_canonical5types5testss_28test_service_metrics_default
FNDA:1,_RNvNtNtCsaqyYch7mDu7_18nestgate_canonical5types5testss_29test_canonical_config_default
FNDA:1,_RNvNtNtCsaqyYch7mDu7_18nestgate_canonical5types5testss_29test_canonical_response_error
FNDA:1,_RNvNtNtCsaqyYch7mDu7_18nestgate_canonical5types5testss_29test_performance_config_clone
FNDA:1,_RNvNtNtCsaqyYch7mDu7_18nestgate_canonical5types5testss_31test_canonical_request_creation
FNDA:1,_RNvNtNtCsaqyYch7mDu7_18nestgate_canonical5types5testss_31test_canonical_response_default
FNDA:1,_RNvNtNtCsaqyYch7mDu7_18nestgate_canonical5types5testss_31test_canonical_response_success
FNDA:1,_RNvNtNtCsaqyYch7mDu7_18nestgate_canonical5types5testss_31test_performance_config_default
FNDA:1,_RNvNtNtCsaqyYch7mDu7_18nestgate_canonical5types5testss_31test_unified_service_type_clone
FNDA:1,_RNvNtNtCsaqyYch7mDu7_18nestgate_canonical5types5testss_32test_capability_id_serialization
FNDA:1,_RNvNtNtCsaqyYch7mDu7_18nestgate_canonical5types5testss_32test_service_health_with_details
FNDA:1,_RNvNtNtCsaqyYch7mDu7_18nestgate_canonical5types5testss_33test_unified_service_type_display
FNDA:1,_RNvNtNtCsaqyYch7mDu7_18nestgate_canonical5types5testss_34test_password_policy_serialization
FNDA:1,_RNvNtNtCsaqyYch7mDu7_18nestgate_canonical5types5testss_34test_service_metrics_serialization
FNDA:1,_RNvNtNtCsaqyYch7mDu7_18nestgate_canonical5types5testss_34test_unified_service_type_equality
FNDA:1,_RNvNtNtCsaqyYch7mDu7_18nestgate_canonical5types5testss_35test_canonical_request_with_payload
FNDA:1,_RNvNtNtCsaqyYch7mDu7_18nestgate_canonical5types5testss_36test_canonical_response_with_metrics
FNDA:1,_RNvNtNtCsaqyYch7mDu7_18nestgate_canonical5types5testss_39test_unified_service_type_serialization
FNDA:1,_RNvNtNtCsaqyYch7mDu7_18nestgate_canonical5types5testss_41test_unified_service_type_deserialization
FNDA:13,_RNCNvXs5_NtCsaqyYch7mDu7_18nestgate_canonical5typesNtB7_13NetworkConfigNtNtCs5GmCzIpY9Qj_4core7default7Default7default0B9_
FNDA:13,_RNCNvXs5_NtCsaqyYch7mDu7_18nestgate_canonical5typesNtB7_13NetworkConfigNtNtCs5GmCzIpY9Qj_4core7default7Default7defaults_0B9_
FNDA:13,_RNCNvXs6_NtCsaqyYch7mDu7_18nestgate_canonical5typesNtB7_13StorageConfigNtNtCs5GmCzIpY9Qj_4core7default7Default7default0B9_
FNDA:3,_RNvMs1_NtCsaqyYch7mDu7_18nestgate_canonical5typesNtB5_13ServiceHealth7healthy
FNDA:1,_RNvMs1_NtCsaqyYch7mDu7_18nestgate_canonical5typesNtB5_13ServiceHealth8shutdown
FNDA:2,_RNvMs_NtCsaqyYch7mDu7_18nestgate_canonical5typesNtB4_12CapabilityId10capability
FNDA:8,_RNvMs_NtCsaqyYch7mDu7_18nestgate_canonical5typesNtB4_12CapabilityId3new
FNDA:2,_RNvMs_NtCsaqyYch7mDu7_18nestgate_canonical5typesNtB4_12CapabilityId6domain
FNDA:2,_RNvMs_NtCsaqyYch7mDu7_18nestgate_canonical5typesNtB4_12CapabilityId7version
FNDA:6,_RNvXNtCsaqyYch7mDu7_18nestgate_canonical5typesNtB2_18UnifiedServiceTypeNtNtCs5GmCzIpY9Qj_4core3fmt7Display3fmt
FNDA:1,_RNvXs0_NtCsaqyYch7mDu7_18nestgate_canonical5typesNtB5_13ServiceHealthNtNtCs5GmCzIpY9Qj_4core7default7Default7default
FNDA:2,_RNvXs2_NtCsaqyYch7mDu7_18nestgate_canonical5typesNtB5_14ServiceMetricsNtNtCs5GmCzIpY9Qj_4core7default7Default7default
FNDA:1,_RNvXs3_NtCsaqyYch7mDu7_18nestgate_canonical5typesNtB5_17CanonicalResponseNtNtCs5GmCzIpY9Qj_4core7default7Default7default
FNDA:12,_RNvXs4_NtCsaqyYch7mDu7_18nestgate_canonical5typesNtB5_15CanonicalConfigNtNtCs5GmCzIpY9Qj_4core7default7Default7default
FNDA:13,_RNvXs5_NtCsaqyYch7mDu7_18nestgate_canonical5typesNtB5_13NetworkConfigNtNtCs5GmCzIpY9Qj_4core7default7Default7default
FNDA:13,_RNvXs6_NtCsaqyYch7mDu7_18nestgate_canonical5typesNtB5_13StorageConfigNtNtCs5GmCzIpY9Qj_4core7default7Default7default
FNDA:14,_RNvXs7_NtCsaqyYch7mDu7_18nestgate_canonical5typesNtB5_14SecurityConfigNtNtCs5GmCzIpY9Qj_4core7default7Default7default
FNDA:13,_RNvXs8_NtCsaqyYch7mDu7_18nestgate_canonical5typesNtB5_17PerformanceConfigNtNtCs5GmCzIpY9Qj_4core7default7Default7default
FNDA:18,_RNvXs9_NtCsaqyYch7mDu7_18nestgate_canonical5typesNtB5_14PasswordPolicyNtNtCs5GmCzIpY9Qj_4core7default7Default7default
FNDA:2,_RNvXsa_NtCsaqyYch7mDu7_18nestgate_canonical5typesNtB5_10AuthConfigNtNtCs5GmCzIpY9Qj_4core7default7Default7default
FNF:68
FNH:68
DA:21,6
DA:22,6
DA:23,1
DA:24,1
DA:25,1
DA:26,1
DA:27,1
DA:28,1
DA:30,6
DA:43,8
DA:44,8
DA:45,8
DA:46,8
DA:47,8
DA:48,8
DA:49,8
DA:53,2
DA:54,2
DA:55,2
DA:59,2
DA:60,2
DA:61,2
DA:65,2
DA:66,2
DA:67,2
DA:108,1
DA:109,1
DA:110,1
DA:111,1
DA:112,1
DA:113,1
DA:114,1
DA:120,3
DA:121,3
DA:122,3
DA:123,3
DA:124,3
DA:125,3
DA:126,3
DA:130,1
DA:131,1
DA:132,1
DA:133,1
DA:134,1
DA:135,1
DA:136,1
DA:152,2
DA:153,2
DA:154,2
DA:155,2
DA:156,2
DA:157,2
DA:158,2
DA:159,2
DA:160,2
DA:161,2
DA:162,2
DA:163,2
DA:250,1
DA:251,1
DA:252,1
DA:253,1
DA:254,1
DA:255,1
DA:256,1
DA:257,1
DA:258,1
DA:263,12
DA:264,12
DA:265,12
DA:266,12
DA:267,12
DA:268,12
DA:269,12
DA:270,12
DA:271,12
DA:272,12
DA:273,12
DA:274,12
DA:275,12
DA:280,13
DA:282,13
DA:283,13
DA:284,13
DA:285,13
DA:286,13
DA:287,13
DA:291,13
DA:293,13
DA:297,13
DA:299,13
DA:300,13
DA:301,13
DA:307,13
DA:311,14
DA:312,14
DA:313,14
DA:314,14
DA:315,14
DA:316,14
DA:317,14
DA:318,14
DA:319,14
DA:323,13
DA:324,13
DA:325,13
DA:326,13
DA:327,13
DA:328,13
DA:329,13
DA:330,13
DA:331,13
DA:351,18
DA:352,18
DA:353,18
DA:354,18
DA:355,18
DA:356,18
DA:357,18
DA:358,18
DA:359,18
DA:363,2
DA:364,2
DA:365,2
DA:366,2
DA:367,2
DA:368,2
DA:369,2
DA:370,2
DA:371,2
DA:372,2
DA:382,1
DA:383,1
DA:384,1
DA:385,1
DA:386,1
DA:387,1
DA:388,1
DA:389,1
DA:392,1
DA:395,1
DA:396,1
DA:397,1
DA:398,1
DA:399,1
DA:402,1
DA:403,1
DA:404,1
DA:405,1
DA:408,1
DA:409,1
DA:410,1
DA:411,1
DA:412,1
DA:415,1
DA:416,1
DA:417,1
DA:418,1
DA:419,1
DA:424,1
DA:425,1
DA:426,1
DA:427,1
DA:428,1
DA:430,1
DA:431,1
DA:432,1
DA:433,1
DA:436,1
DA:437,1
DA:438,1
DA:439,1
DA:440,1
DA:441,1
DA:442,1
DA:443,1
DA:444,1
DA:445,1
DA:448,1
DA:449,1
DA:450,1
DA:451,1
DA:452,1
DA:454,1
DA:455,1
DA:456,1
DA:459,1
DA:460,1
DA:461,1
DA:462,1
DA:463,1
DA:464,1
DA:465,1
DA:468,1
DA:469,1
DA:470,1
DA:471,1
DA:472,1
DA:474,1
DA:475,1
DA:476,1
DA:477,1
DA:482,1
DA:483,1
DA:484,1
DA:485,1
DA:486,1
DA:487,1
DA:488,1
DA:491,1
DA:492,1
DA:493,1
DA:494,1
DA:497,1
DA:498,1
DA:499,1
DA:500,1
DA:501,1
DA:506,1
DA:507,1
DA:508,1
DA:509,1
DA:510,1
DA:511,1
DA:512,1
DA:513,1
DA:514,1
DA:515,1
DA:516,1
DA:519,1
DA:520,1
DA:521,1
DA:522,1
DA:525,1
DA:526,1
DA:527,1
DA:528,1
DA:529,1
DA:534,1
DA:535,1
DA:536,1
DA:537,1
DA:538,1
DA:539,1
DA:542,1
DA:543,1
DA:544,1
DA:545,1
DA:546,1
DA:547,1
DA:550,1
DA:551,1
DA:552,1
DA:553,1
DA:554,1
DA:555,1
DA:558,1
DA:559,1
DA:560,1
DA:561,1
DA:562,1
DA:563,1
DA:566,1
DA:567,1
DA:568,1
DA:569,1
DA:570,1
DA:571,1
DA:572,1
DA:573,1
DA:574,1
DA:579,1
DA:580,1
DA:581,1
DA:582,1
DA:583,1
DA:584,1
DA:585,1
DA:586,1
DA:587,1
DA:588,1
DA:589,1
DA:592,1
DA:593,1
DA:594,1
DA:595,1
DA:596,1
DA:597,1
DA:598,1
DA:599,1
DA:600,1
DA:601,1
DA:602,1
DA:603,1
DA:604,1
DA:605,1
DA:606,1
DA:609,1
DA:610,1
DA:611,1
DA:612,1
DA:613,1
DA:614,1
DA:620,1
DA:621,1
DA:622,1
DA:623,1
DA:624,1
DA:625,1
DA:626,1
DA:630,1
DA:631,1
DA:632,1
DA:633,1
DA:634,1
DA:635,1
DA:636,1
DA:637,1
DA:638,1
DA:639,1
DA:640,1
DA:641,1
DA:642,1
DA:647,1
DA:648,1
DA:649,1
DA:650,1
DA:651,1
DA:652,1
DA:653,1
DA:654,1
DA:657,1
DA:658,1
DA:659,1
DA:660,1
DA:661,1
DA:662,1
DA:663,1
DA:664,1
DA:665,1
DA:666,1
DA:667,1
DA:668,1
DA:669,1
DA:674,1
DA:675,1
DA:676,1
DA:677,1
DA:678,1
DA:679,1
DA:680,1
DA:683,1
DA:684,1
DA:685,1
DA:686,1
DA:687,1
DA:688,1
DA:693,1
DA:694,1
DA:695,1
DA:696,1
DA:697,1
DA:698,1
DA:699,1
DA:700,1
DA:703,1
DA:704,1
DA:705,1
DA:706,1
DA:707,1
DA:708,1
DA:709,1
DA:710,1
DA:711,1
DA:712,1
DA:713,1
DA:714,1
DA:717,1
DA:718,1
DA:719,1
DA:720,1
DA:721,1
DA:722,1
DA:727,1
DA:728,1
DA:729,1
DA:730,1
DA:731,1
DA:732,1
DA:733,1
DA:734,1
DA:737,1
DA:738,1
DA:739,1
DA:740,1
DA:741,1
DA:742,1
DA:743,1
DA:744,1
DA:745,1
DA:746,1
DA:747,1
DA:748,1
DA:753,1
DA:754,1
DA:755,1
DA:756,1
DA:757,1
DA:759,1
DA:760,1
DA:761,1
DA:762,1
DA:763,1
DA:764,1
DA:765,1
DA:766,1
DA:767,1
DA:768,1
DA:771,1
DA:772,1
DA:773,1
DA:775,1
DA:776,1
DA:777,1
DA:778,1
DA:779,1
DA:780,1
DA:781,1
DA:782,1
DA:783,1
DA:784,1
DA:785,1
DA:790,1
DA:791,1
DA:792,1
DA:793,1
DA:794,1
DA:795,1
DA:796,1
DA:797,1
DA:800,1
DA:801,1
DA:802,1
DA:803,1
DA:804,1
DA:805,1
DA:806,1
DA:807,1
DA:808,1
DA:809,1
DA:810,1
DA:811,1
DA:814,1
DA:815,1
DA:816,1
DA:817,1
DA:818,1
DA:819,1
DA:820,1
DA:821,1
DA:822,1
DA:823,1
DA:824,1
DA:825,1
DA:828,1
DA:829,1
DA:830,1
DA:831,1
DA:832,1
DA:833,1
DA:834,1
DA:835,1
DA:836,1
DA:837,1
DA:838,1
DA:839,1
DA:840,1
DA:841,1
DA:842,1
DA:843,1
DA:844,1
DA:845,1
DA:846,1
DA:847,1
DA:848,1
DA:854,1
DA:855,1
DA:856,1
DA:857,1
DA:858,1
DA:859,1
DA:860,1
DA:861,1
DA:865,1
DA:866,1
DA:867,1
DA:868,1
DA:869,1
DA:870,1
DA:875,1
DA:876,1
DA:877,1
DA:878,1
DA:879,1
DA:880,1
DA:881,1
DA:882,1
DA:885,1
DA:886,1
DA:887,1
DA:888,1
DA:889,1
DA:890,1
DA:893,1
DA:894,1
DA:895,1
DA:896,1
DA:897,1
DA:898,1
DA:899,1
DA:900,1
DA:901,1
DA:902,1
DA:903,1
DA:904,1
DA:905,1
DA:906,1
DA:907,1
DA:908,1
DA:909,1
DA:910,1
DA:915,1
DA:916,1
DA:917,1
DA:919,1
DA:920,1
DA:921,1
DA:922,1
DA:923,1
DA:924,1
DA:925,1
DA:926,1
DA:927,1
DA:928,1
DA:929,1
DA:930,1
DA:931,1
DA:932,1
DA:935,1
DA:936,1
DA:937,1
DA:938,1
DA:939,1
DA:940,1
DA:941,1
DA:942,1
DA:943,1
DA:944,1
DA:945,1
DA:946,1
DA:947,1
DA:948,1
BRF:0
BRH:0
LF:565
LH:565
end_of_record
SF:/home/eastgate/Development/ecoPrimals/nestgate/code/crates/nestgate-core/src/advanced_optimizations.rs
FN:107,_RNvMs1_NtCserJaDiv4hKx_13nestgate_core22advanced_optimizationsINtB5_24ZeroAllocStringProcessorKpE11process_strB7_
FN:137,_RNvMs1_NtCserJaDiv4hKx_13nestgate_core22advanced_optimizationsINtB5_24ZeroAllocStringProcessorKpE11utilizationB7_
FN:91,_RNvMs1_NtCserJaDiv4hKx_13nestgate_core22advanced_optimizationsINtB5_24ZeroAllocStringProcessorKpE3newB7_
FN:130,_RNvMs1_NtCserJaDiv4hKx_13nestgate_core22advanced_optimizationsINtB5_24ZeroAllocStringProcessorKpE5resetB7_
FN:176,_RNvMs3_NtCserJaDiv4hKx_13nestgate_core22advanced_optimizationsNtB5_15LockFreeCounter3add
FN:183,_RNvMs3_NtCserJaDiv4hKx_13nestgate_core22advanced_optimizationsNtB5_15LockFreeCounter3get
FN:189,_RNvMs3_NtCserJaDiv4hKx_13nestgate_core22advanced_optimizationsNtB5_15LockFreeCounter5reset
FN:170,_RNvMs3_NtCserJaDiv4hKx_13nestgate_core22advanced_optimizationsNtB5_15LockFreeCounter9increment
FN:42,_RNvMs_NtCserJaDiv4hKx_13nestgate_core22advanced_optimizationsNtB4_30UltraPerformanceBatchProcessor23process_batch_optimized
FN:83,_RNvXININtCserJaDiv4hKx_13nestgate_core22advanced_optimizationss0_0KpEINtB5_24ZeroAllocStringProcessorKpENtNtCs5GmCzIpY9Qj_4core7default7Default7defaultB7_
FN:254,_RNCNvMs4_NtCserJaDiv4hKx_13nestgate_core22advanced_optimizationsNtB7_26AdaptivePerformanceMonitor10statistics0B9_
FN:254,_RNCNvMs4_NtCshPPI97q08o7_13nestgate_core22advanced_optimizationsNtB7_26AdaptivePerformanceMonitor10statistics0B9_
FN:137,_RNvMs1_NtCshPPI97q08o7_13nestgate_core22advanced_optimizationsINtB5_24ZeroAllocStringProcessorKj400_E11utilizationB7_
FN:91,_RNvMs1_NtCshPPI97q08o7_13nestgate_core22advanced_optimizationsINtB5_24ZeroAllocStringProcessorKj400_E3newB7_
FN:83,_RNvXININtCshPPI97q08o7_13nestgate_core22advanced_optimizationss0_0KpEINtB5_24ZeroAllocStringProcessorKpENtNtCs5GmCzIpY9Qj_4core7default7Default7defaultB7_
FN:19,_RNvXNtCshPPI97q08o7_13nestgate_core22advanced_optimizationsNtB2_30UltraPerformanceBatchProcessorNtNtCs5GmCzIpY9Qj_4core7default7Default7default
FN:153,_RNvXs2_NtCshPPI97q08o7_13nestgate_core22advanced_optimizationsNtB5_15LockFreeCounterNtNtCs5GmCzIpY9Qj_4core7default7Default7default
FN:265,_RNCNvMs4_NtCshPPI97q08o7_13nestgate_core22advanced_optimizationsNtB7_26AdaptivePerformanceMonitor10statisticss0_0B9_
FN:261,_RNCNvMs4_NtCshPPI97q08o7_13nestgate_core22advanced_optimizationsNtB7_26AdaptivePerformanceMonitor10statisticss_0B9_
FN:161,_RNvMs3_NtCshPPI97q08o7_13nestgate_core22advanced_optimizationsNtB5_15LockFreeCounter3new
FN:247,_RNvMs4_NtCshPPI97q08o7_13nestgate_core22advanced_optimizationsNtB5_26AdaptivePerformanceMonitor10statistics
FN:218,_RNvMs4_NtCshPPI97q08o7_13nestgate_core22advanced_optimizationsNtB5_26AdaptivePerformanceMonitor13record_sample
FN:208,_RNvMs4_NtCshPPI97q08o7_13nestgate_core22advanced_optimizationsNtB5_26AdaptivePerformanceMonitor3new
FN:68,_RNvMs_NtCshPPI97q08o7_13nestgate_core22advanced_optimizationsNtB4_30UltraPerformanceBatchProcessor15total_processed
FN:27,_RNvMs_NtCshPPI97q08o7_13nestgate_core22advanced_optimizationsNtB4_30UltraPerformanceBatchProcessor3new
FN:107,_RNvMs1_NtCshPPI97q08o7_13nestgate_core22advanced_optimizationsINtB5_24ZeroAllocStringProcessorKj400_E11process_strB7_
FN:130,_RNvMs1_NtCshPPI97q08o7_13nestgate_core22advanced_optimizationsINtB5_24ZeroAllocStringProcessorKj400_E5resetB7_
FN:176,_RNvMs3_NtCshPPI97q08o7_13nestgate_core22advanced_optimizationsNtB5_15LockFreeCounter3add
FN:183,_RNvMs3_NtCshPPI97q08o7_13nestgate_core22advanced_optimizationsNtB5_15LockFreeCounter3get
FN:189,_RNvMs3_NtCshPPI97q08o7_13nestgate_core22advanced_optimizationsNtB5_15LockFreeCounter5reset
FN:170,_RNvMs3_NtCshPPI97q08o7_13nestgate_core22advanced_optimizationsNtB5_15LockFreeCounter9increment
FN:42,_RNvMs_NtCshPPI97q08o7_13nestgate_core22advanced_optimizationsNtB4_30UltraPerformanceBatchProcessor23process_batch_optimized
FN:321,_RNvNtNtCshPPI97q08o7_13nestgate_core22advanced_optimizations5testss_22test_lock_free_counter
FN:309,_RNvNtNtCshPPI97q08o7_13nestgate_core22advanced_optimizations5testss_32test_zero_alloc_string_processor
FN:334,_RNvNtNtCshPPI97q08o7_13nestgate_core22advanced_optimizations5testss_33test_adaptive_performance_monitor
FN:296,_RNvNtNtCshPPI97q08o7_13nestgate_core22advanced_optimizations5testss_38test_ultra_performance_batch_processor
FNDA:0,_RNvMs1_NtCserJaDiv4hKx_13nestgate_core22advanced_optimizationsINtB5_24ZeroAllocStringProcessorKpE11process_strB7_
FNDA:0,_RNvMs1_NtCserJaDiv4hKx_13nestgate_core22advanced_optimizationsINtB5_24ZeroAllocStringProcessorKpE11utilizationB7_
FNDA:0,_RNvMs1_NtCserJaDiv4hKx_13nestgate_core22advanced_optimizationsINtB5_24ZeroAllocStringProcessorKpE3newB7_
FNDA:0,_RNvMs1_NtCserJaDiv4hKx_13nestgate_core22advanced_optimizationsINtB5_24ZeroAllocStringProcessorKpE5resetB7_
FNDA:0,_RNvMs3_NtCserJaDiv4hKx_13nestgate_core22advanced_optimizationsNtB5_15LockFreeCounter3add
FNDA:0,_RNvMs3_NtCserJaDiv4hKx_13nestgate_core22advanced_optimizationsNtB5_15LockFreeCounter3get
FNDA:0,_RNvMs3_NtCserJaDiv4hKx_13nestgate_core22advanced_optimizationsNtB5_15LockFreeCounter5reset
FNDA:0,_RNvMs3_NtCserJaDiv4hKx_13nestgate_core22advanced_optimizationsNtB5_15LockFreeCounter9increment
FNDA:0,_RNvMs_NtCserJaDiv4hKx_13nestgate_core22advanced_optimizationsNtB4_30UltraPerformanceBatchProcessor23process_batch_optimized
FNDA:0,_RNvXININtCserJaDiv4hKx_13nestgate_core22advanced_optimizationss0_0KpEINtB5_24ZeroAllocStringProcessorKpENtNtCs5GmCzIpY9Qj_4core7default7Default7defaultB7_
FNDA:0,_RNCNvMs4_NtCserJaDiv4hKx_13nestgate_core22advanced_optimizationsNtB7_26AdaptivePerformanceMonitor10statistics0B9_
FNDA:8,_RNCNvMs4_NtCshPPI97q08o7_13nestgate_core22advanced_optimizationsNtB7_26AdaptivePerformanceMonitor10statistics0B9_
FNDA:2,_RNvMs1_NtCshPPI97q08o7_13nestgate_core22advanced_optimizationsINtB5_24ZeroAllocStringProcessorKj400_E11utilizationB7_
FNDA:1,_RNvMs1_NtCshPPI97q08o7_13nestgate_core22advanced_optimizationsINtB5_24ZeroAllocStringProcessorKj400_E3newB7_
FNDA:0,_RNvXININtCshPPI97q08o7_13nestgate_core22advanced_optimizationss0_0KpEINtB5_24ZeroAllocStringProcessorKpENtNtCs5GmCzIpY9Qj_4core7default7Default7defaultB7_
FNDA:0,_RNvXNtCshPPI97q08o7_13nestgate_core22advanced_optimizationsNtB2_30UltraPerformanceBatchProcessorNtNtCs5GmCzIpY9Qj_4core7default7Default7default
FNDA:0,_RNvXs2_NtCshPPI97q08o7_13nestgate_core22advanced_optimizationsNtB5_15LockFreeCounterNtNtCs5GmCzIpY9Qj_4core7default7Default7default
FNDA:8,_RNCNvMs4_NtCshPPI97q08o7_13nestgate_core22advanced_optimizationsNtB7_26AdaptivePerformanceMonitor10statisticss0_0B9_
FNDA:8,_RNCNvMs4_NtCshPPI97q08o7_13nestgate_core22advanced_optimizationsNtB7_26AdaptivePerformanceMonitor10statisticss_0B9_
FNDA:1,_RNvMs3_NtCshPPI97q08o7_13nestgate_core22advanced_optimizationsNtB5_15LockFreeCounter3new
FNDA:1,_RNvMs4_NtCshPPI97q08o7_13nestgate_core22advanced_optimizationsNtB5_26AdaptivePerformanceMonitor10statistics
FNDA:8,_RNvMs4_NtCshPPI97q08o7_13nestgate_core22advanced_optimizationsNtB5_26AdaptivePerformanceMonitor13record_sample
FNDA:1,_RNvMs4_NtCshPPI97q08o7_13nestgate_core22advanced_optimizationsNtB5_26AdaptivePerformanceMonitor3new
FNDA:1,_RNvMs_NtCshPPI97q08o7_13nestgate_core22advanced_optimizationsNtB4_30UltraPerformanceBatchProcessor15total_processed
FNDA:1,_RNvMs_NtCshPPI97q08o7_13nestgate_core22advanced_optimizationsNtB4_30UltraPerformanceBatchProcessor3new
FNDA:1,_RNvMs1_NtCshPPI97q08o7_13nestgate_core22advanced_optimizationsINtB5_24ZeroAllocStringProcessorKj400_E11process_strB7_
FNDA:1,_RNvMs1_NtCshPPI97q08o7_13nestgate_core22advanced_optimizationsINtB5_24ZeroAllocStringProcessorKj400_E5resetB7_
FNDA:1,_RNvMs3_NtCshPPI97q08o7_13nestgate_core22advanced_optimizationsNtB5_15LockFreeCounter3add
FNDA:4,_RNvMs3_NtCshPPI97q08o7_13nestgate_core22advanced_optimizationsNtB5_15LockFreeCounter3get
FNDA:1,_RNvMs3_NtCshPPI97q08o7_13nestgate_core22advanced_optimizationsNtB5_15LockFreeCounter5reset
FNDA:1,_RNvMs3_NtCshPPI97q08o7_13nestgate_core22advanced_optimizationsNtB5_15LockFreeCounter9increment
FNDA:1,_RNvMs_NtCshPPI97q08o7_13nestgate_core22advanced_optimizationsNtB4_30UltraPerformanceBatchProcessor23process_batch_optimized
FNDA:1,_RNvNtNtCshPPI97q08o7_13nestgate_core22advanced_optimizations5testss_22test_lock_free_counter
FNDA:1,_RNvNtNtCshPPI97q08o7_13nestgate_core22advanced_optimizations5testss_32test_zero_alloc_string_processor
FNDA:1,_RNvNtNtCshPPI97q08o7_13nestgate_core22advanced_optimizations5testss_33test_adaptive_performance_monitor
FNDA:1,_RNvNtNtCshPPI97q08o7_13nestgate_core22advanced_optimizations5testss_38test_ultra_performance_batch_processor
FNF:25
FNH:22
DA:19,0
DA:20,0
DA:21,0
DA:27,1
DA:28,1
DA:29,1
DA:30,1
DA:31,1
DA:32,1
DA:42,1
DA:43,1
DA:46,1
DA:49,2
DA:50,2
DA:51,2
DA:52,2
DA:53,2
DA:54,2
DA:57,1
DA:58,0
DA:59,0
DA:61,1
DA:62,1
DA:63,1
DA:64,1
DA:68,1
DA:69,1
DA:70,1
DA:83,0
DA:84,0
DA:85,0
DA:91,1
DA:92,1
DA:93,1
DA:94,1
DA:95,1
DA:96,1
DA:107,1
DA:108,1
DA:109,1
DA:110,0
DA:111,1
DA:114,1
DA:115,5
DA:116,5
DA:117,5
DA:118,5
DA:120,1
DA:125,1
DA:126,1
DA:130,1
DA:131,1
DA:133,1
DA:137,2
DA:138,2
DA:139,2
DA:153,0
DA:154,0
DA:155,0
DA:161,1
DA:162,1
DA:163,1
DA:164,1
DA:165,1
DA:166,1
DA:170,1
DA:171,1
DA:172,1
DA:176,1
DA:177,1
DA:178,1
DA:183,4
DA:184,4
DA:185,4
DA:189,1
DA:190,1
DA:191,1
DA:208,1
DA:209,1
DA:210,1
DA:211,1
DA:212,1
DA:213,1
DA:214,1
DA:215,1
DA:218,8
DA:219,8
DA:221,8
DA:222,0
DA:223,8
DA:225,8
DA:226,2
DA:227,6
DA:229,6
DA:230,6
DA:231,6
DA:232,6
DA:233,6
DA:234,6
DA:236,6
DA:237,2
DA:238,4
DA:239,0
DA:241,4
DA:243,8
DA:247,1
DA:248,1
DA:249,0
DA:250,1
DA:252,1
DA:253,1
DA:254,8
DA:255,1
DA:258,1
DA:259,1
DA:260,1
DA:261,8
DA:262,1
DA:263,1
DA:264,1
DA:265,8
DA:267,1
DA:296,1
DA:297,1
DA:298,1
DA:300,1
DA:301,1
DA:302,1
DA:305,1
DA:306,1
DA:309,1
DA:310,1
DA:312,1
DA:313,1
DA:314,1
DA:316,1
DA:317,1
DA:318,1
DA:321,1
DA:322,1
DA:324,1
DA:325,1
DA:326,1
DA:327,1
DA:328,1
DA:329,1
DA:330,1
DA:331,1
DA:334,1
DA:335,1
DA:338,1
DA:339,1
DA:342,1
DA:343,1
DA:348,1
DA:349,1
DA:354,1
DA:355,1
DA:358,1
DA:359,1
DA:364,1
DA:365,1
DA:366,1
DA:369,1
DA:371,1
DA:372,1
DA:373,1
DA:374,1
BRF:0
BRH:0
LF:171
LH:156
end_of_record
SF:/home/eastgate/Development/ecoPrimals/nestgate/code/crates/nestgate-core/src/ai_first_refactored.rs
FN:536,_RINvNtCserJaDiv4hKx_13nestgate_core19ai_first_refactored10ai_successpEB4_
FN:556,_RINvNtCserJaDiv4hKx_13nestgate_core19ai_first_refactored24ai_response_with_actionspEB4_
FN:542,_RINvNtCserJaDiv4hKx_13nestgate_core19ai_first_refactored26ai_success_with_confidencepEB4_
FN:549,_RINvNtCserJaDiv4hKx_13nestgate_core19ai_first_refactored8ai_errorpEB4_
FN:283,_RNvMNtCserJaDiv4hKx_13nestgate_core19ai_first_refactoredINtB2_22AIFirstResponseBuilderpE10with_errorB4_
FN:302,_RNvMNtCserJaDiv4hKx_13nestgate_core19ai_first_refactoredINtB2_22AIFirstResponseBuilderpE13with_metadataB4_
FN:296,_RNvMNtCserJaDiv4hKx_13nestgate_core19ai_first_refactoredINtB2_22AIFirstResponseBuilderpE14add_suggestionB4_
FN:290,_RNvMNtCserJaDiv4hKx_13nestgate_core19ai_first_refactoredINtB2_22AIFirstResponseBuilderpE15with_confidenceB4_
FN:271,_RNvMNtCserJaDiv4hKx_13nestgate_core19ai_first_refactoredINtB2_22AIFirstResponseBuilderpE3newB4_
FN:307,_RNvMNtCserJaDiv4hKx_13nestgate_core19ai_first_refactoredINtB2_22AIFirstResponseBuilderpE5buildB4_
FN:403,_RNvXs4_NtCserJaDiv4hKx_13nestgate_core19ai_first_refactoredNtNtNtNtB7_5error8variants11core_errors20NestGateUnifiedErrorNtB5_16IntoAIFirstError19into_ai_first_error
FN:420,_RNvXs4_NtCserJaDiv4hKx_13nestgate_core19ai_first_refactoredNtNtNtNtB7_5error8variants11core_errors20NestGateUnifiedErrorNtB5_16IntoAIFirstError30into_ai_first_error_with_hints
FN:440,_RNvXs5_NtCserJaDiv4hKx_13nestgate_core19ai_first_refactoredNtNtNtNtB7_5error8variants11core_errors20NestGateUnifiedErrorNtB5_16NestGateErrorExt10error_code
FN:463,_RNvXs5_NtCserJaDiv4hKx_13nestgate_core19ai_first_refactoredNtNtNtNtB7_5error8variants11core_errors20NestGateUnifiedErrorNtB5_16NestGateErrorExt14retry_strategy
FN:478,_RNvXs5_NtCserJaDiv4hKx_13nestgate_core19ai_first_refactoredNtNtNtNtB7_5error8variants11core_errors20NestGateUnifiedErrorNtB5_16NestGateErrorExt16automation_hints
FN:452,_RNvXs5_NtCserJaDiv4hKx_13nestgate_core19ai_first_refactoredNtNtNtNtB7_5error8variants11core_errors20NestGateUnifiedErrorNtB5_16NestGateErrorExt17ai_error_category
FN:510,_RNvXs5_NtCserJaDiv4hKx_13nestgate_core19ai_first_refactoredNtNtNtNtB7_5error8variants11core_errors20NestGateUnifiedErrorNtB5_16NestGateErrorExt20recovery_suggestions
FN:503,_RNvXs5_NtCserJaDiv4hKx_13nestgate_core19ai_first_refactoredNtNtNtNtB7_5error8variants11core_errors20NestGateUnifiedErrorNtB5_16NestGateErrorExt27requires_human_intervention
FN:494,_RNvXs5_NtCserJaDiv4hKx_13nestgate_core19ai_first_refactoredNtNtNtNtB7_5error8variants11core_errors20NestGateUnifiedErrorNtB5_16NestGateErrorExt8severity
FN:536,_RINvNtCshPPI97q08o7_13nestgate_core19ai_first_refactored10ai_successpEB4_
FN:556,_RINvNtCshPPI97q08o7_13nestgate_core19ai_first_refactored24ai_response_with_actionspEB4_
FN:542,_RINvNtCshPPI97q08o7_13nestgate_core19ai_first_refactored26ai_success_with_confidencepEB4_
FN:549,_RINvNtCshPPI97q08o7_13nestgate_core19ai_first_refactored8ai_errorpEB4_
FN:283,_RNvMNtCshPPI97q08o7_13nestgate_core19ai_first_refactoredINtB2_22AIFirstResponseBuilderpE10with_errorB4_
FN:302,_RNvMNtCshPPI97q08o7_13nestgate_core19ai_first_refactoredINtB2_22AIFirstResponseBuilderpE13with_metadataB4_
FN:296,_RNvMNtCshPPI97q08o7_13nestgate_core19ai_first_refactoredINtB2_22AIFirstResponseBuilderpE14add_suggestionB4_
FN:290,_RNvMNtCshPPI97q08o7_13nestgate_core19ai_first_refactoredINtB2_22AIFirstResponseBuilderpE15with_confidenceB4_
FN:271,_RNvMNtCshPPI97q08o7_13nestgate_core19ai_first_refactoredINtB2_22AIFirstResponseBuilderpE3newB4_
FN:307,_RNvMNtCshPPI97q08o7_13nestgate_core19ai_first_refactoredINtB2_22AIFirstResponseBuilderpE5buildB4_
FN:348,_RNvXs0_NtCshPPI97q08o7_13nestgate_core19ai_first_refactoredNtB5_13ResourceUsageNtNtCs5GmCzIpY9Qj_4core7default7Default7default
FN:359,_RNvXs1_NtCshPPI97q08o7_13nestgate_core19ai_first_refactoredNtB5_17QualityIndicatorsNtNtCs5GmCzIpY9Qj_4core7default7Default7default
FN:370,_RNvXs2_NtCshPPI97q08o7_13nestgate_core19ai_first_refactoredNtB5_22EcosystemCompatibilityNtNtCs5GmCzIpY9Qj_4core7default7Default7default
FN:384,_RNvXs3_NtCshPPI97q08o7_13nestgate_core19ai_first_refactoredNtB5_17EcosystemMetadataNtNtCs5GmCzIpY9Qj_4core7default7Default7default
FN:403,_RNvXs4_NtCshPPI97q08o7_13nestgate_core19ai_first_refactoredNtNtNtNtB7_5error8variants11core_errors20NestGateUnifiedErrorNtB5_16IntoAIFirstError19into_ai_first_error
FN:420,_RNvXs4_NtCshPPI97q08o7_13nestgate_core19ai_first_refactoredNtNtNtNtB7_5error8variants11core_errors20NestGateUnifiedErrorNtB5_16IntoAIFirstError30into_ai_first_error_with_hints
FN:440,_RNvXs5_NtCshPPI97q08o7_13nestgate_core19ai_first_refactoredNtNtNtNtB7_5error8variants11core_errors20NestGateUnifiedErrorNtB5_16NestGateErrorExt10error_code
FN:463,_RNvXs5_NtCshPPI97q08o7_13nestgate_core19ai_first_refactoredNtNtNtNtB7_5error8variants11core_errors20NestGateUnifiedErrorNtB5_16NestGateErrorExt14retry_strategy
FN:478,_RNvXs5_NtCshPPI97q08o7_13nestgate_core19ai_first_refactoredNtNtNtNtB7_5error8variants11core_errors20NestGateUnifiedErrorNtB5_16NestGateErrorExt16automation_hints
FN:452,_RNvXs5_NtCshPPI97q08o7_13nestgate_core19ai_first_refactoredNtNtNtNtB7_5error8variants11core_errors20NestGateUnifiedErrorNtB5_16NestGateErrorExt17ai_error_category
FN:510,_RNvXs5_NtCshPPI97q08o7_13nestgate_core19ai_first_refactoredNtNtNtNtB7_5error8variants11core_errors20NestGateUnifiedErrorNtB5_16NestGateErrorExt20recovery_suggestions
FN:503,_RNvXs5_NtCshPPI97q08o7_13nestgate_core19ai_first_refactoredNtNtNtNtB7_5error8variants11core_errors20NestGateUnifiedErrorNtB5_16NestGateErrorExt27requires_human_intervention
FN:494,_RNvXs5_NtCshPPI97q08o7_13nestgate_core19ai_first_refactoredNtNtNtNtB7_5error8variants11core_errors20NestGateUnifiedErrorNtB5_16NestGateErrorExt8severity
FN:336,_RNvXs_NtCshPPI97q08o7_13nestgate_core19ai_first_refactoredNtB4_18AIResponseMetadataNtNtCs5GmCzIpY9Qj_4core7default7Default7default
FNDA:0,_RINvNtCserJaDiv4hKx_13nestgate_core19ai_first_refactored10ai_successpEB4_
FNDA:0,_RINvNtCserJaDiv4hKx_13nestgate_core19ai_first_refactored24ai_response_with_actionspEB4_
FNDA:0,_RINvNtCserJaDiv4hKx_13nestgate_core19ai_first_refactored26ai_success_with_confidencepEB4_
FNDA:0,_RINvNtCserJaDiv4hKx_13nestgate_core19ai_first_refactored8ai_errorpEB4_
FNDA:0,_RNvMNtCserJaDiv4hKx_13nestgate_core19ai_first_refactoredINtB2_22AIFirstResponseBuilderpE10with_errorB4_
FNDA:0,_RNvMNtCserJaDiv4hKx_13nestgate_core19ai_first_refactoredINtB2_22AIFirstResponseBuilderpE13with_metadataB4_
FNDA:0,_RNvMNtCserJaDiv4hKx_13nestgate_core19ai_first_refactoredINtB2_22AIFirstResponseBuilderpE14add_suggestionB4_
FNDA:0,_RNvMNtCserJaDiv4hKx_13nestgate_core19ai_first_refactoredINtB2_22AIFirstResponseBuilderpE15with_confidenceB4_
FNDA:0,_RNvMNtCserJaDiv4hKx_13nestgate_core19ai_first_refactoredINtB2_22AIFirstResponseBuilderpE3newB4_
FNDA:0,_RNvMNtCserJaDiv4hKx_13nestgate_core19ai_first_refactoredINtB2_22AIFirstResponseBuilderpE5buildB4_
FNDA:0,_RNvXs4_NtCserJaDiv4hKx_13nestgate_core19ai_first_refactoredNtNtNtNtB7_5error8variants11core_errors20NestGateUnifiedErrorNtB5_16IntoAIFirstError19into_ai_first_error
FNDA:0,_RNvXs4_NtCserJaDiv4hKx_13nestgate_core19ai_first_refactoredNtNtNtNtB7_5error8variants11core_errors20NestGateUnifiedErrorNtB5_16IntoAIFirstError30into_ai_first_error_with_hints
FNDA:0,_RNvXs5_NtCserJaDiv4hKx_13nestgate_core19ai_first_refactoredNtNtNtNtB7_5error8variants11core_errors20NestGateUnifiedErrorNtB5_16NestGateErrorExt10error_code
FNDA:0,_RNvXs5_NtCserJaDiv4hKx_13nestgate_core19ai_first_refactoredNtNtNtNtB7_5error8variants11core_errors20NestGateUnifiedErrorNtB5_16NestGateErrorExt14retry_strategy
FNDA:0,_RNvXs5_NtCserJaDiv4hKx_13nestgate_core19ai_first_refactoredNtNtNtNtB7_5error8variants11core_errors20NestGateUnifiedErrorNtB5_16NestGateErrorExt16automation_hints
FNDA:0,_RNvXs5_NtCserJaDiv4hKx_13nestgate_core19ai_first_refactoredNtNtNtNtB7_5error8variants11core_errors20NestGateUnifiedErrorNtB5_16NestGateErrorExt17ai_error_category
FNDA:0,_RNvXs5_NtCserJaDiv4hKx_13nestgate_core19ai_first_refactoredNtNtNtNtB7_5error8variants11core_errors20NestGateUnifiedErrorNtB5_16NestGateErrorExt20recovery_suggestions
FNDA:0,_RNvXs5_NtCserJaDiv4hKx_13nestgate_core19ai_first_refactoredNtNtNtNtB7_5error8variants11core_errors20NestGateUnifiedErrorNtB5_16NestGateErrorExt27requires_human_intervention
FNDA:0,_RNvXs5_NtCserJaDiv4hKx_13nestgate_core19ai_first_refactoredNtNtNtNtB7_5error8variants11core_errors20NestGateUnifiedErrorNtB5_16NestGateErrorExt8severity
FNDA:0,_RINvNtCshPPI97q08o7_13nestgate_core19ai_first_refactored10ai_successpEB4_
FNDA:0,_RINvNtCshPPI97q08o7_13nestgate_core19ai_first_refactored24ai_response_with_actionspEB4_
FNDA:0,_RINvNtCshPPI97q08o7_13nestgate_core19ai_first_refactored26ai_success_with_confidencepEB4_
FNDA:0,_RINvNtCshPPI97q08o7_13nestgate_core19ai_first_refactored8ai_errorpEB4_
FNDA:0,_RNvMNtCshPPI97q08o7_13nestgate_core19ai_first_refactoredINtB2_22AIFirstResponseBuilderpE10with_errorB4_
FNDA:0,_RNvMNtCshPPI97q08o7_13nestgate_core19ai_first_refactoredINtB2_22AIFirstResponseBuilderpE13with_metadataB4_
FNDA:0,_RNvMNtCshPPI97q08o7_13nestgate_core19ai_first_refactoredINtB2_22AIFirstResponseBuilderpE14add_suggestionB4_
FNDA:0,_RNvMNtCshPPI97q08o7_13nestgate_core19ai_first_refactoredINtB2_22AIFirstResponseBuilderpE15with_confidenceB4_
FNDA:0,_RNvMNtCshPPI97q08o7_13nestgate_core19ai_first_refactoredINtB2_22AIFirstResponseBuilderpE3newB4_
FNDA:0,_RNvMNtCshPPI97q08o7_13nestgate_core19ai_first_refactoredINtB2_22AIFirstResponseBuilderpE5buildB4_
FNDA:0,_RNvXs0_NtCshPPI97q08o7_13nestgate_core19ai_first_refactoredNtB5_13ResourceUsageNtNtCs5GmCzIpY9Qj_4core7default7Default7default
FNDA:0,_RNvXs1_NtCshPPI97q08o7_13nestgate_core19ai_first_refactoredNtB5_17QualityIndicatorsNtNtCs5GmCzIpY9Qj_4core7default7Default7default
FNDA:0,_RNvXs2_NtCshPPI97q08o7_13nestgate_core19ai_first_refactoredNtB5_22EcosystemCompatibilityNtNtCs5GmCzIpY9Qj_4core7default7Default7default
FNDA:0,_RNvXs3_NtCshPPI97q08o7_13nestgate_core19ai_first_refactoredNtB5_17EcosystemMetadataNtNtCs5GmCzIpY9Qj_4core7default7Default7default
FNDA:0,_RNvXs4_NtCshPPI97q08o7_13nestgate_core19ai_first_refactoredNtNtNtNtB7_5error8variants11core_errors20NestGateUnifiedErrorNtB5_16IntoAIFirstError19into_ai_first_error
FNDA:0,_RNvXs4_NtCshPPI97q08o7_13nestgate_core19ai_first_refactoredNtNtNtNtB7_5error8variants11core_errors20NestGateUnifiedErrorNtB5_16IntoAIFirstError30into_ai_first_error_with_hints
FNDA:0,_RNvXs5_NtCshPPI97q08o7_13nestgate_core19ai_first_refactoredNtNtNtNtB7_5error8variants11core_errors20NestGateUnifiedErrorNtB5_16NestGateErrorExt10error_code
FNDA:0,_RNvXs5_NtCshPPI97q08o7_13nestgate_core19ai_first_refactoredNtNtNtNtB7_5error8variants11core_errors20NestGateUnifiedErrorNtB5_16NestGateErrorExt14retry_strategy
FNDA:0,_RNvXs5_NtCshPPI97q08o7_13nestgate_core19ai_first_refactoredNtNtNtNtB7_5error8variants11core_errors20NestGateUnifiedErrorNtB5_16NestGateErrorExt16automation_hints
FNDA:0,_RNvXs5_NtCshPPI97q08o7_13nestgate_core19ai_first_refactoredNtNtNtNtB7_5error8variants11core_errors20NestGateUnifiedErrorNtB5_16NestGateErrorExt17ai_error_category
FNDA:0,_RNvXs5_NtCshPPI97q08o7_13nestgate_core19ai_first_refactoredNtNtNtNtB7_5error8variants11core_errors20NestGateUnifiedErrorNtB5_16NestGateErrorExt20recovery_suggestions
FNDA:0,_RNvXs5_NtCshPPI97q08o7_13nestgate_core19ai_first_refactoredNtNtNtNtB7_5error8variants11core_errors20NestGateUnifiedErrorNtB5_16NestGateErrorExt27requires_human_intervention
FNDA:0,_RNvXs5_NtCshPPI97q08o7_13nestgate_core19ai_first_refactoredNtNtNtNtB7_5error8variants11core_errors20NestGateUnifiedErrorNtB5_16NestGateErrorExt8severity
FNDA:0,_RNvXs_NtCshPPI97q08o7_13nestgate_core19ai_first_refactoredNtB4_18AIResponseMetadataNtNtCs5GmCzIpY9Qj_4core7default7Default7default
FNF:24
FNH:0
DA:271,0
DA:272,0
DA:273,0
DA:274,0
DA:275,0
DA:276,0
DA:277,0
DA:278,0
DA:279,0
DA:280,0
DA:283,0
DA:284,0
DA:285,0
DA:286,0
DA:287,0
DA:290,0
DA:291,0
DA:292,0
DA:293,0
DA:296,0
DA:297,0
DA:298,0
DA:299,0
DA:302,0
DA:303,0
DA:304,0
DA:305,0
DA:307,0
DA:308,0
DA:309,0
DA:310,0
DA:311,0
DA:312,0
DA:313,0
DA:314,0
DA:315,0
DA:316,0
DA:317,0
DA:318,0
DA:319,0
DA:320,0
DA:336,0
DA:337,0
DA:338,0
DA:339,0
DA:340,0
DA:341,0
DA:342,0
DA:343,0
DA:344,0
DA:348,0
DA:349,0
DA:350,0
DA:351,0
DA:352,0
DA:353,0
DA:354,0
DA:355,0
DA:359,0
DA:360,0
DA:361,0
DA:362,0
DA:363,0
DA:364,0
DA:365,0
DA:366,0
DA:370,0
DA:371,0
DA:372,0
DA:373,0
DA:374,0
DA:375,0
DA:376,0
DA:377,0
DA:378,0
DA:379,0
DA:380,0
DA:384,0
DA:385,0
DA:386,0
DA:387,0
DA:388,0
DA:389,0
DA:390,0
DA:391,0
DA:392,0
DA:393,0
DA:394,0
DA:395,0
DA:396,0
DA:397,0
DA:403,0
DA:404,0
DA:405,0
DA:406,0
DA:407,0
DA:408,0
DA:409,0
DA:410,0
DA:411,0
DA:412,0
DA:413,0
DA:414,0
DA:415,0
DA:416,0
DA:417,0
DA:418,0
DA:420,0
DA:421,0
DA:422,0
DA:423,0
DA:424,0
DA:440,0
DA:441,0
DA:442,0
DA:443,0
DA:444,0
DA:445,0
DA:446,0
DA:447,0
DA:448,0
DA:450,0
DA:452,0
DA:453,0
DA:454,0
DA:455,0
DA:456,0
DA:457,0
DA:458,0
DA:459,0
DA:461,0
DA:463,0
DA:464,0
DA:465,0
DA:466,0
DA:467,0
DA:468,0
DA:469,0
DA:470,0
DA:471,0
DA:472,0
DA:473,0
DA:474,0
DA:476,0
DA:478,0
DA:479,0
DA:480,0
DA:481,0
DA:482,0
DA:483,0
DA:485,0
DA:486,0
DA:487,0
DA:488,0
DA:490,0
DA:492,0
DA:494,0
DA:495,0
DA:496,0
DA:497,0
DA:498,0
DA:499,0
DA:501,0
DA:503,0
DA:504,0
DA:505,0
DA:508,0
DA:510,0
DA:511,0
DA:512,0
DA:513,0
DA:514,0
DA:515,0
DA:516,0
DA:517,0
DA:518,0
DA:519,0
DA:521,0
DA:536,0
DA:537,0
DA:538,0
DA:539,0
DA:540,0
DA:542,0
DA:543,0
DA:544,0
DA:545,0
DA:546,0
DA:549,0
DA:550,0
DA:551,0
DA:552,0
DA:553,0
DA:554,0
DA:556,0
DA:557,0
DA:558,0
DA:559,0
DA:560,0
DA:561,0
DA:562,0
BRF:0
BRH:0
LF:201
LH:0
end_of_record
SF:/home/eastgate/Development/ecoPrimals/nestgate/code/crates/nestgate-core/src/cache/manager.rs
FN:360,_RNCNCNvMs1_NtNtCserJaDiv4hKx_13nestgate_core5cache7managerNtB9_12CacheManager12save_to_disk00Bd_
FN:346,_RNCNCNvMs1_NtNtCserJaDiv4hKx_13nestgate_core5cache7managerNtB9_12CacheManager14load_from_disk00Bd_
FN:201,_RNCNvMs1_NtNtCserJaDiv4hKx_13nestgate_core5cache7managerNtB7_12CacheManager11maintenance0Bb_
FN:351,_RNCNvMs1_NtNtCserJaDiv4hKx_13nestgate_core5cache7managerNtB7_12CacheManager12save_to_disk0Bb_
FN:343,_RNCNvMs1_NtNtCserJaDiv4hKx_13nestgate_core5cache7managerNtB7_12CacheManager14load_from_disk0Bb_
FN:273,_RNCNvMs1_NtNtCserJaDiv4hKx_13nestgate_core5cache7managerNtB7_12CacheManager15evict_if_needed0Bb_
FN:150,_RNCNvMs1_NtNtCserJaDiv4hKx_13nestgate_core5cache7managerNtB7_12CacheManager3put0Bb_
FN:351,_RNvMs1_NtNtCserJaDiv4hKx_13nestgate_core5cache7managerNtB5_12CacheManager12save_to_disk
FN:343,_RNvMs1_NtNtCserJaDiv4hKx_13nestgate_core5cache7managerNtB5_12CacheManager14load_from_disk
FN:227,_RNCNvMs1_NtNtCserJaDiv4hKx_13nestgate_core5cache7managerNtB7_12CacheManager15expire_hot_tiers_0Bb_
FN:261,_RNCNvMs1_NtNtCserJaDiv4hKx_13nestgate_core5cache7managerNtB7_12CacheManager16expire_cold_tiers_0Bb_
FN:244,_RNCNvMs1_NtNtCserJaDiv4hKx_13nestgate_core5cache7managerNtB7_12CacheManager16expire_warm_tiers_0Bb_
FN:226,_RNCNvMs1_NtNtCserJaDiv4hKx_13nestgate_core5cache7managerNtB7_12CacheManager15expire_hot_tier0Bb_
FN:260,_RNCNvMs1_NtNtCserJaDiv4hKx_13nestgate_core5cache7managerNtB7_12CacheManager16expire_cold_tier0Bb_
FN:243,_RNCNvMs1_NtNtCserJaDiv4hKx_13nestgate_core5cache7managerNtB7_12CacheManager16expire_warm_tier0Bb_
FN:327,_RNCNvMs1_NtNtCserJaDiv4hKx_13nestgate_core5cache7managerNtB7_12CacheManager12find_lru_keys_0Bb_
FN:73,_RNvMs0_NtNtCserJaDiv4hKx_13nestgate_core5cache7managerNtB5_10CacheStats8hit_rate
FN:281,_RNvMs1_NtNtCserJaDiv4hKx_13nestgate_core5cache7managerNtB5_12CacheManager10total_size
FN:201,_RNvMs1_NtNtCserJaDiv4hKx_13nestgate_core5cache7managerNtB5_12CacheManager11maintenance
FN:364,_RNvMs1_NtNtCserJaDiv4hKx_13nestgate_core5cache7managerNtB5_12CacheManager11reset_stats
FN:324,_RNvMs1_NtNtCserJaDiv4hKx_13nestgate_core5cache7managerNtB5_12CacheManager12find_lru_key
FN:209,_RNvMs1_NtNtCserJaDiv4hKx_13nestgate_core5cache7managerNtB5_12CacheManager14expire_entries
FN:332,_RNvMs1_NtNtCserJaDiv4hKx_13nestgate_core5cache7managerNtB5_12CacheManager14get_cache_path
FN:273,_RNvMs1_NtNtCserJaDiv4hKx_13nestgate_core5cache7managerNtB5_12CacheManager15evict_if_needed
FN:286,_RNvMs1_NtNtCserJaDiv4hKx_13nestgate_core5cache7managerNtB5_12CacheManager15evict_one_entry
FN:222,_RNvMs1_NtNtCserJaDiv4hKx_13nestgate_core5cache7managerNtB5_12CacheManager15expire_hot_tier
FN:256,_RNvMs1_NtNtCserJaDiv4hKx_13nestgate_core5cache7managerNtB5_12CacheManager16expire_cold_tier
FN:239,_RNvMs1_NtNtCserJaDiv4hKx_13nestgate_core5cache7managerNtB5_12CacheManager16expire_warm_tier
FN:105,_RNvMs1_NtNtCserJaDiv4hKx_13nestgate_core5cache7managerNtB5_12CacheManager3get
FN:93,_RNvMs1_NtNtCserJaDiv4hKx_13nestgate_core5cache7managerNtB5_12CacheManager3new
FN:150,_RNvMs1_NtNtCserJaDiv4hKx_13nestgate_core5cache7managerNtB5_12CacheManager3put
FN:179,_RNvMs1_NtNtCserJaDiv4hKx_13nestgate_core5cache7managerNtB5_12CacheManager5clear
FN:370,_RNvMs1_NtNtCserJaDiv4hKx_13nestgate_core5cache7managerNtB5_12CacheManager5flush
FN:189,_RNvMs1_NtNtCserJaDiv4hKx_13nestgate_core5cache7managerNtB5_12CacheManager5stats
FN:165,_RNvMs1_NtNtCserJaDiv4hKx_13nestgate_core5cache7managerNtB5_12CacheManager6remove
FN:53,_RNvMs_NtNtCserJaDiv4hKx_13nestgate_core5cache7managerNtB4_10CacheEntry10is_expired
FN:42,_RNvMs_NtNtCserJaDiv4hKx_13nestgate_core5cache7managerNtB4_10CacheEntry3new
FN:57,_RNvMs_NtNtCserJaDiv4hKx_13nestgate_core5cache7managerNtB4_10CacheEntry6access
FN:22,_RNvXNtNtCserJaDiv4hKx_13nestgate_core5cache7managerNtB2_18UnifiedCacheConfigNtNtCs5GmCzIpY9Qj_4core7default7Default7default
FN:381,_RNvXs2_NtNtCserJaDiv4hKx_13nestgate_core5cache7managerNtB5_12CacheManagerNtNtCs5GmCzIpY9Qj_4core7default7Default7default
FN:327,_RNCNvMs1_NtNtCshPPI97q08o7_13nestgate_core5cache7managerNtB7_12CacheManager12find_lru_keys_0Bb_
FN:281,_RNvMs1_NtNtCshPPI97q08o7_13nestgate_core5cache7managerNtB5_12CacheManager10total_size
FN:201,_RNvMs1_NtNtCshPPI97q08o7_13nestgate_core5cache7managerNtB5_12CacheManager11maintenance
FN:324,_RNvMs1_NtNtCshPPI97q08o7_13nestgate_core5cache7managerNtB5_12CacheManager12find_lru_key
FN:209,_RNvMs1_NtNtCshPPI97q08o7_13nestgate_core5cache7managerNtB5_12CacheManager14expire_entries
FN:273,_RNvMs1_NtNtCshPPI97q08o7_13nestgate_core5cache7managerNtB5_12CacheManager15evict_if_needed
FN:286,_RNvMs1_NtNtCshPPI97q08o7_13nestgate_core5cache7managerNtB5_12CacheManager15evict_one_entry
FN:222,_RNvMs1_NtNtCshPPI97q08o7_13nestgate_core5cache7managerNtB5_12CacheManager15expire_hot_tier
FN:256,_RNvMs1_NtNtCshPPI97q08o7_13nestgate_core5cache7managerNtB5_12CacheManager16expire_cold_tier
FN:239,_RNvMs1_NtNtCshPPI97q08o7_13nestgate_core5cache7managerNtB5_12CacheManager16expire_warm_tier
FN:105,_RNvMs1_NtNtCshPPI97q08o7_13nestgate_core5cache7managerNtB5_12CacheManager3get
FN:93,_RNvMs1_NtNtCshPPI97q08o7_13nestgate_core5cache7managerNtB5_12CacheManager3new
FN:150,_RNvMs1_NtNtCshPPI97q08o7_13nestgate_core5cache7managerNtB5_12CacheManager3put
FN:370,_RNvMs1_NtNtCshPPI97q08o7_13nestgate_core5cache7managerNtB5_12CacheManager5flush
FN:189,_RNvMs1_NtNtCshPPI97q08o7_13nestgate_core5cache7managerNtB5_12CacheManager5stats
FN:165,_RNvMs1_NtNtCshPPI97q08o7_13nestgate_core5cache7managerNtB5_12CacheManager6remove
FN:53,_RNvMs_NtNtCshPPI97q08o7_13nestgate_core5cache7managerNtB4_10CacheEntry10is_expired
FN:42,_RNvMs_NtNtCshPPI97q08o7_13nestgate_core5cache7managerNtB4_10CacheEntry3new
FN:57,_RNvMs_NtNtCshPPI97q08o7_13nestgate_core5cache7managerNtB4_10CacheEntry6access
FN:22,_RNvXNtNtCshPPI97q08o7_13nestgate_core5cache7managerNtB2_18UnifiedCacheConfigNtNtCs5GmCzIpY9Qj_4core7default7Default7default
FN:381,_RNvXs2_NtNtCshPPI97q08o7_13nestgate_core5cache7managerNtB5_12CacheManagerNtNtCs5GmCzIpY9Qj_4core7default7Default7default
FN:468,_RNCNCNvNtNtNtCshPPI97q08o7_13nestgate_core5cache7manager5testss_21test_cache_expiration00Bb_
FN:415,_RNCNvNtNtNtCshPPI97q08o7_13nestgate_core5cache7manager5testss_15test_cache_miss0B9_
FN:423,_RNCNvNtNtNtCshPPI97q08o7_13nestgate_core5cache7manager5testss_19test_cache_eviction0B9_
FN:453,_RNCNvNtNtNtCshPPI97q08o7_13nestgate_core5cache7manager5testss_21test_cache_expiration0B9_
FN:398,_RNCNvNtNtNtCshPPI97q08o7_13nestgate_core5cache7manager5testss_27test_cache_basic_operations0B9_
FN:415,_RNvNtNtNtCshPPI97q08o7_13nestgate_core5cache7manager5testss_15test_cache_miss
FN:423,_RNvNtNtNtCshPPI97q08o7_13nestgate_core5cache7manager5testss_19test_cache_eviction
FN:453,_RNvNtNtNtCshPPI97q08o7_13nestgate_core5cache7manager5testss_21test_cache_expiration
FN:398,_RNvNtNtNtCshPPI97q08o7_13nestgate_core5cache7manager5testss_27test_cache_basic_operations
FN:201,_RNCNvMs1_NtNtCshPPI97q08o7_13nestgate_core5cache7managerNtB7_12CacheManager11maintenance0Bb_
FN:273,_RNCNvMs1_NtNtCshPPI97q08o7_13nestgate_core5cache7managerNtB7_12CacheManager15evict_if_needed0Bb_
FN:150,_RNCNvMs1_NtNtCshPPI97q08o7_13nestgate_core5cache7managerNtB7_12CacheManager3put0Bb_
FN:360,_RNCNCNvMs1_NtNtCshPPI97q08o7_13nestgate_core5cache7managerNtB9_12CacheManager12save_to_disk00Bd_
FN:346,_RNCNCNvMs1_NtNtCshPPI97q08o7_13nestgate_core5cache7managerNtB9_12CacheManager14load_from_disk00Bd_
FN:351,_RNCNvMs1_NtNtCshPPI97q08o7_13nestgate_core5cache7managerNtB7_12CacheManager12save_to_disk0Bb_
FN:343,_RNCNvMs1_NtNtCshPPI97q08o7_13nestgate_core5cache7managerNtB7_12CacheManager14load_from_disk0Bb_
FN:73,_RNvMs0_NtNtCshPPI97q08o7_13nestgate_core5cache7managerNtB5_10CacheStats8hit_rate
FN:364,_RNvMs1_NtNtCshPPI97q08o7_13nestgate_core5cache7managerNtB5_12CacheManager11reset_stats
FN:351,_RNvMs1_NtNtCshPPI97q08o7_13nestgate_core5cache7managerNtB5_12CacheManager12save_to_disk
FN:332,_RNvMs1_NtNtCshPPI97q08o7_13nestgate_core5cache7managerNtB5_12CacheManager14get_cache_path
FN:343,_RNvMs1_NtNtCshPPI97q08o7_13nestgate_core5cache7managerNtB5_12CacheManager14load_from_disk
FN:179,_RNvMs1_NtNtCshPPI97q08o7_13nestgate_core5cache7managerNtB5_12CacheManager5clear
FN:227,_RNCNvMs1_NtNtCshPPI97q08o7_13nestgate_core5cache7managerNtB7_12CacheManager15expire_hot_tiers_0Bb_
FN:261,_RNCNvMs1_NtNtCshPPI97q08o7_13nestgate_core5cache7managerNtB7_12CacheManager16expire_cold_tiers_0Bb_
FN:244,_RNCNvMs1_NtNtCshPPI97q08o7_13nestgate_core5cache7managerNtB7_12CacheManager16expire_warm_tiers_0Bb_
FN:226,_RNCNvMs1_NtNtCshPPI97q08o7_13nestgate_core5cache7managerNtB7_12CacheManager15expire_hot_tier0Bb_
FN:260,_RNCNvMs1_NtNtCshPPI97q08o7_13nestgate_core5cache7managerNtB7_12CacheManager16expire_cold_tier0Bb_
FN:243,_RNCNvMs1_NtNtCshPPI97q08o7_13nestgate_core5cache7managerNtB7_12CacheManager16expire_warm_tier0Bb_
FNDA:0,_RNCNCNvMs1_NtNtCserJaDiv4hKx_13nestgate_core5cache7managerNtB9_12CacheManager12save_to_disk00Bd_
FNDA:0,_RNCNCNvMs1_NtNtCserJaDiv4hKx_13nestgate_core5cache7managerNtB9_12CacheManager14load_from_disk00Bd_
FNDA:0,_RNCNvMs1_NtNtCserJaDiv4hKx_13nestgate_core5cache7managerNtB7_12CacheManager11maintenance0Bb_
FNDA:0,_RNCNvMs1_NtNtCserJaDiv4hKx_13nestgate_core5cache7managerNtB7_12CacheManager12save_to_disk0Bb_
FNDA:0,_RNCNvMs1_NtNtCserJaDiv4hKx_13nestgate_core5cache7managerNtB7_12CacheManager14load_from_disk0Bb_
FNDA:0,_RNCNvMs1_NtNtCserJaDiv4hKx_13nestgate_core5cache7managerNtB7_12CacheManager15evict_if_needed0Bb_
FNDA:0,_RNCNvMs1_NtNtCserJaDiv4hKx_13nestgate_core5cache7managerNtB7_12CacheManager3put0Bb_
FNDA:0,_RNvMs1_NtNtCserJaDiv4hKx_13nestgate_core5cache7managerNtB5_12CacheManager12save_to_disk
FNDA:0,_RNvMs1_NtNtCserJaDiv4hKx_13nestgate_core5cache7managerNtB5_12CacheManager14load_from_disk
FNDA:0,_RNCNvMs1_NtNtCserJaDiv4hKx_13nestgate_core5cache7managerNtB7_12CacheManager15expire_hot_tiers_0Bb_
FNDA:0,_RNCNvMs1_NtNtCserJaDiv4hKx_13nestgate_core5cache7managerNtB7_12CacheManager16expire_cold_tiers_0Bb_
FNDA:0,_RNCNvMs1_NtNtCserJaDiv4hKx_13nestgate_core5cache7managerNtB7_12CacheManager16expire_warm_tiers_0Bb_
FNDA:0,_RNCNvMs1_NtNtCserJaDiv4hKx_13nestgate_core5cache7managerNtB7_12CacheManager15expire_hot_tier0Bb_
FNDA:0,_RNCNvMs1_NtNtCserJaDiv4hKx_13nestgate_core5cache7managerNtB7_12CacheManager16expire_cold_tier0Bb_
FNDA:0,_RNCNvMs1_NtNtCserJaDiv4hKx_13nestgate_core5cache7managerNtB7_12CacheManager16expire_warm_tier0Bb_
FNDA:0,_RNCNvMs1_NtNtCserJaDiv4hKx_13nestgate_core5cache7managerNtB7_12CacheManager12find_lru_keys_0Bb_
FNDA:0,_RNvMs0_NtNtCserJaDiv4hKx_13nestgate_core5cache7managerNtB5_10CacheStats8hit_rate
FNDA:0,_RNvMs1_NtNtCserJaDiv4hKx_13nestgate_core5cache7managerNtB5_12CacheManager10total_size
FNDA:0,_RNvMs1_NtNtCserJaDiv4hKx_13nestgate_core5cache7managerNtB5_12CacheManager11maintenance
FNDA:0,_RNvMs1_NtNtCserJaDiv4hKx_13nestgate_core5cache7managerNtB5_12CacheManager11reset_stats
FNDA:0,_RNvMs1_NtNtCserJaDiv4hKx_13nestgate_core5cache7managerNtB5_12CacheManager12find_lru_key
FNDA:0,_RNvMs1_NtNtCserJaDiv4hKx_13nestgate_core5cache7managerNtB5_12CacheManager14expire_entries
FNDA:0,_RNvMs1_NtNtCserJaDiv4hKx_13nestgate_core5cache7managerNtB5_12CacheManager14get_cache_path
FNDA:0,_RNvMs1_NtNtCserJaDiv4hKx_13nestgate_core5cache7managerNtB5_12CacheManager15evict_if_needed
FNDA:0,_RNvMs1_NtNtCserJaDiv4hKx_13nestgate_core5cache7managerNtB5_12CacheManager15evict_one_entry
FNDA:0,_RNvMs1_NtNtCserJaDiv4hKx_13nestgate_core5cache7managerNtB5_12CacheManager15expire_hot_tier
FNDA:0,_RNvMs1_NtNtCserJaDiv4hKx_13nestgate_core5cache7managerNtB5_12CacheManager16expire_cold_tier
FNDA:0,_RNvMs1_NtNtCserJaDiv4hKx_13nestgate_core5cache7managerNtB5_12CacheManager16expire_warm_tier
FNDA:0,_RNvMs1_NtNtCserJaDiv4hKx_13nestgate_core5cache7managerNtB5_12CacheManager3get
FNDA:0,_RNvMs1_NtNtCserJaDiv4hKx_13nestgate_core5cache7managerNtB5_12CacheManager3new
FNDA:0,_RNvMs1_NtNtCserJaDiv4hKx_13nestgate_core5cache7managerNtB5_12CacheManager3put
FNDA:0,_RNvMs1_NtNtCserJaDiv4hKx_13nestgate_core5cache7managerNtB5_12CacheManager5clear
FNDA:0,_RNvMs1_NtNtCserJaDiv4hKx_13nestgate_core5cache7managerNtB5_12CacheManager5flush
FNDA:0,_RNvMs1_NtNtCserJaDiv4hKx_13nestgate_core5cache7managerNtB5_12CacheManager5stats
FNDA:0,_RNvMs1_NtNtCserJaDiv4hKx_13nestgate_core5cache7managerNtB5_12CacheManager6remove
FNDA:0,_RNvMs_NtNtCserJaDiv4hKx_13nestgate_core5cache7managerNtB4_10CacheEntry10is_expired
FNDA:0,_RNvMs_NtNtCserJaDiv4hKx_13nestgate_core5cache7managerNtB4_10CacheEntry3new
FNDA:0,_RNvMs_NtNtCserJaDiv4hKx_13nestgate_core5cache7managerNtB4_10CacheEntry6access
FNDA:0,_RNvXNtNtCserJaDiv4hKx_13nestgate_core5cache7managerNtB2_18UnifiedCacheConfigNtNtCs5GmCzIpY9Qj_4core7default7Default7default
FNDA:0,_RNvXs2_NtNtCserJaDiv4hKx_13nestgate_core5cache7managerNtB5_12CacheManagerNtNtCs5GmCzIpY9Qj_4core7default7Default7default
FNDA:1,_RNCNvMs1_NtNtCshPPI97q08o7_13nestgate_core5cache7managerNtB7_12CacheManager12find_lru_keys_0Bb_
FNDA:10,_RNvMs1_NtNtCshPPI97q08o7_13nestgate_core5cache7managerNtB5_12CacheManager10total_size
FNDA:1,_RNvMs1_NtNtCshPPI97q08o7_13nestgate_core5cache7managerNtB5_12CacheManager11maintenance
FNDA:1,_RNvMs1_NtNtCshPPI97q08o7_13nestgate_core5cache7managerNtB5_12CacheManager12find_lru_key
FNDA:1,_RNvMs1_NtNtCshPPI97q08o7_13nestgate_core5cache7managerNtB5_12CacheManager14expire_entries
FNDA:8,_RNvMs1_NtNtCshPPI97q08o7_13nestgate_core5cache7managerNtB5_12CacheManager15evict_if_needed
FNDA:1,_RNvMs1_NtNtCshPPI97q08o7_13nestgate_core5cache7managerNtB5_12CacheManager15evict_one_entry
FNDA:1,_RNvMs1_NtNtCshPPI97q08o7_13nestgate_core5cache7managerNtB5_12CacheManager15expire_hot_tier
FNDA:1,_RNvMs1_NtNtCshPPI97q08o7_13nestgate_core5cache7managerNtB5_12CacheManager16expire_cold_tier
FNDA:1,_RNvMs1_NtNtCshPPI97q08o7_13nestgate_core5cache7managerNtB5_12CacheManager16expire_warm_tier
FNDA:7,_RNvMs1_NtNtCshPPI97q08o7_13nestgate_core5cache7managerNtB5_12CacheManager3get
FNDA:16,_RNvMs1_NtNtCshPPI97q08o7_13nestgate_core5cache7managerNtB5_12CacheManager3new
FNDA:7,_RNvMs1_NtNtCshPPI97q08o7_13nestgate_core5cache7managerNtB5_12CacheManager3put
FNDA:0,_RNvMs1_NtNtCshPPI97q08o7_13nestgate_core5cache7managerNtB5_12CacheManager5flush
FNDA:4,_RNvMs1_NtNtCshPPI97q08o7_13nestgate_core5cache7managerNtB5_12CacheManager5stats
FNDA:1,_RNvMs1_NtNtCshPPI97q08o7_13nestgate_core5cache7managerNtB5_12CacheManager6remove
FNDA:1,_RNvMs_NtNtCshPPI97q08o7_13nestgate_core5cache7managerNtB4_10CacheEntry10is_expired
FNDA:7,_RNvMs_NtNtCshPPI97q08o7_13nestgate_core5cache7managerNtB4_10CacheEntry3new
FNDA:4,_RNvMs_NtNtCshPPI97q08o7_13nestgate_core5cache7managerNtB4_10CacheEntry6access
FNDA:2,_RNvXNtNtCshPPI97q08o7_13nestgate_core5cache7managerNtB2_18UnifiedCacheConfigNtNtCs5GmCzIpY9Qj_4core7default7Default7default
FNDA:2,_RNvXs2_NtNtCshPPI97q08o7_13nestgate_core5cache7managerNtB5_12CacheManagerNtNtCs5GmCzIpY9Qj_4core7default7Default7default
FNDA:0,_RNCNCNvNtNtNtCshPPI97q08o7_13nestgate_core5cache7manager5testss_21test_cache_expiration00Bb_
FNDA:1,_RNCNvNtNtNtCshPPI97q08o7_13nestgate_core5cache7manager5testss_15test_cache_miss0B9_
FNDA:1,_RNCNvNtNtNtCshPPI97q08o7_13nestgate_core5cache7manager5testss_19test_cache_eviction0B9_
FNDA:1,_RNCNvNtNtNtCshPPI97q08o7_13nestgate_core5cache7manager5testss_21test_cache_expiration0B9_
FNDA:1,_RNCNvNtNtNtCshPPI97q08o7_13nestgate_core5cache7manager5testss_27test_cache_basic_operations0B9_
FNDA:1,_RNvNtNtNtCshPPI97q08o7_13nestgate_core5cache7manager5testss_15test_cache_miss
FNDA:1,_RNvNtNtNtCshPPI97q08o7_13nestgate_core5cache7manager5testss_19test_cache_eviction
FNDA:1,_RNvNtNtNtCshPPI97q08o7_13nestgate_core5cache7manager5testss_21test_cache_expiration
FNDA:1,_RNvNtNtNtCshPPI97q08o7_13nestgate_core5cache7manager5testss_27test_cache_basic_operations
FNDA:1,_RNCNvMs1_NtNtCshPPI97q08o7_13nestgate_core5cache7managerNtB7_12CacheManager11maintenance0Bb_
FNDA:8,_RNCNvMs1_NtNtCshPPI97q08o7_13nestgate_core5cache7managerNtB7_12CacheManager15evict_if_needed0Bb_
FNDA:7,_RNCNvMs1_NtNtCshPPI97q08o7_13nestgate_core5cache7managerNtB7_12CacheManager3put0Bb_
FNDA:0,_RNCNCNvMs1_NtNtCshPPI97q08o7_13nestgate_core5cache7managerNtB9_12CacheManager12save_to_disk00Bd_
FNDA:0,_RNCNCNvMs1_NtNtCshPPI97q08o7_13nestgate_core5cache7managerNtB9_12CacheManager14load_from_disk00Bd_
FNDA:0,_RNCNvMs1_NtNtCshPPI97q08o7_13nestgate_core5cache7managerNtB7_12CacheManager12save_to_disk0Bb_
FNDA:0,_RNCNvMs1_NtNtCshPPI97q08o7_13nestgate_core5cache7managerNtB7_12CacheManager14load_from_disk0Bb_
FNDA:0,_RNvMs0_NtNtCshPPI97q08o7_13nestgate_core5cache7managerNtB5_10CacheStats8hit_rate
FNDA:0,_RNvMs1_NtNtCshPPI97q08o7_13nestgate_core5cache7managerNtB5_12CacheManager11reset_stats
FNDA:0,_RNvMs1_NtNtCshPPI97q08o7_13nestgate_core5cache7managerNtB5_12CacheManager12save_to_disk
FNDA:0,_RNvMs1_NtNtCshPPI97q08o7_13nestgate_core5cache7managerNtB5_12CacheManager14get_cache_path
FNDA:0,_RNvMs1_NtNtCshPPI97q08o7_13nestgate_core5cache7managerNtB5_12CacheManager14load_from_disk
FNDA:0,_RNvMs1_NtNtCshPPI97q08o7_13nestgate_core5cache7managerNtB5_12CacheManager5clear
FNDA:1,_RNCNvMs1_NtNtCshPPI97q08o7_13nestgate_core5cache7managerNtB7_12CacheManager15expire_hot_tiers_0Bb_
FNDA:0,_RNCNvMs1_NtNtCshPPI97q08o7_13nestgate_core5cache7managerNtB7_12CacheManager16expire_cold_tiers_0Bb_
FNDA:0,_RNCNvMs1_NtNtCshPPI97q08o7_13nestgate_core5cache7managerNtB7_12CacheManager16expire_warm_tiers_0Bb_
FNDA:1,_RNCNvMs1_NtNtCshPPI97q08o7_13nestgate_core5cache7managerNtB7_12CacheManager15expire_hot_tier0Bb_
FNDA:0,_RNCNvMs1_NtNtCshPPI97q08o7_13nestgate_core5cache7managerNtB7_12CacheManager16expire_cold_tier0Bb_
FNDA:0,_RNCNvMs1_NtNtCshPPI97q08o7_13nestgate_core5cache7managerNtB7_12CacheManager16expire_warm_tier0Bb_
FNF:49
FNH:33
DA:22,2
DA:23,2
DA:24,2
DA:25,2
DA:26,2
DA:27,2
DA:28,2
DA:29,2
DA:42,7
DA:43,7
DA:44,7
DA:45,7
DA:46,7
DA:47,7
DA:48,7
DA:49,7
DA:50,7
DA:53,1
DA:54,1
DA:55,1
DA:57,4
DA:58,4
DA:59,4
DA:60,4
DA:73,0
DA:74,0
DA:75,0
DA:77,0
DA:79,0
DA:93,16
DA:94,16
DA:95,16
DA:96,16
DA:97,16
DA:98,16
DA:99,16
DA:100,16
DA:101,16
DA:105,7
DA:107,7
DA:108,4
DA:109,4
DA:110,4
DA:111,4
DA:112,3
DA:115,3
DA:116,0
DA:117,0
DA:119,0
DA:120,0
DA:121,0
DA:122,0
DA:123,3
DA:126,3
DA:127,0
DA:128,0
DA:130,0
DA:131,0
DA:132,0
DA:133,0
DA:134,3
DA:137,3
DA:138,3
DA:139,3
DA:140,7
DA:150,7
DA:151,7
DA:154,7
DA:155,7
DA:158,7
DA:160,7
DA:161,7
DA:162,7
DA:165,1
DA:166,1
DA:167,0
DA:168,0
DA:170,1
DA:171,1
DA:172,1
DA:173,0
DA:175,1
DA:176,1
DA:179,0
DA:180,0
DA:181,0
DA:182,0
DA:183,0
DA:184,0
DA:185,0
DA:189,4
DA:190,4
DA:191,4
DA:201,1
DA:202,1
DA:203,1
DA:204,1
DA:205,1
DA:206,1
DA:209,1
DA:210,1
DA:211,1
DA:212,1
DA:213,1
DA:214,1
DA:215,1
DA:216,1
DA:217,1
DA:218,1
DA:219,1
DA:222,1
DA:223,1
DA:224,1
DA:225,1
DA:226,1
DA:227,1
DA:228,1
DA:230,2
DA:231,1
DA:232,1
DA:233,1
DA:234,1
DA:236,1
DA:239,1
DA:240,1
DA:241,1
DA:242,1
DA:243,1
DA:244,1
DA:245,1
DA:247,1
DA:248,0
DA:249,0
DA:250,0
DA:251,0
DA:253,1
DA:256,1
DA:257,1
DA:258,1
DA:259,1
DA:260,1
DA:261,1
DA:262,1
DA:264,1
DA:265,0
DA:266,0
DA:267,0
DA:268,0
DA:270,1
DA:273,8
DA:274,9
DA:275,1
DA:277,8
DA:278,8
DA:281,10
DA:282,10
DA:283,10
DA:286,1
DA:288,1
DA:289,0
DA:290,0
DA:291,0
DA:292,0
DA:293,0
DA:294,0
DA:295,0
DA:296,1
DA:299,1
DA:300,0
DA:301,0
DA:302,0
DA:303,0
DA:304,0
DA:305,0
DA:306,0
DA:307,1
DA:310,1
DA:311,1
DA:312,1
DA:313,1
DA:314,1
DA:315,1
DA:316,1
DA:317,0
DA:318,0
DA:320,0
DA:321,1
DA:324,1
DA:325,1
DA:326,1
DA:327,1
DA:328,1
DA:332,0
DA:333,0
DA:334,0
DA:335,0
DA:337,0
DA:339,0
DA:343,0
DA:344,0
DA:345,0
DA:346,0
DA:347,0
DA:351,0
DA:352,0
DA:354,0
DA:355,0
DA:356,0
DA:358,0
DA:359,0
DA:360,0
DA:361,0
DA:364,0
DA:365,0
DA:366,0
DA:367,0
DA:370,0
DA:371,0
DA:372,0
DA:373,0
DA:374,0
DA:375,0
DA:376,0
DA:377,0
DA:381,2
DA:382,2
DA:383,2
DA:384,2
DA:385,2
DA:386,2
DA:387,2
DA:388,2
DA:389,2
DA:390,2
DA:398,1
DA:399,1
DA:402,1
DA:403,1
DA:404,1
DA:405,1
DA:406,1
DA:407,1
DA:410,1
DA:411,1
DA:412,1
DA:415,1
DA:416,1
DA:417,1
DA:418,1
DA:419,1
DA:420,1
DA:423,1
DA:424,1
DA:425,1
DA:426,1
DA:427,1
DA:428,1
DA:429,1
DA:431,1
DA:434,1
DA:435,1
DA:436,1
DA:437,1
DA:438,1
DA:439,1
DA:440,1
DA:441,1
DA:442,1
DA:443,1
DA:444,1
DA:445,1
DA:448,1
DA:449,1
DA:450,1
DA:453,1
DA:454,1
DA:455,1
DA:456,1
DA:457,1
DA:458,1
DA:459,1
DA:461,1
DA:462,1
DA:463,1
DA:464,1
DA:465,1
DA:468,1
DA:469,0
DA:470,0
DA:472,1
DA:473,1
BRF:0
BRH:0
LF:314
LH:219
end_of_record
SF:/home/eastgate/Development/ecoPrimals/nestgate/code/crates/nestgate-core/src/cache/mod.rs
FN:239,_RINvMs0_NtCserJaDiv4hKx_13nestgate_core5cacheNtB6_12CacheBuilder14with_cache_dirpEB8_
FN:142,_RNCNvMNtCserJaDiv4hKx_13nestgate_core5cacheNtB4_11CacheSystem11maintenance0B6_
FN:115,_RNCNvMNtCserJaDiv4hKx_13nestgate_core5cacheNtB4_11CacheSystem12contains_key0B6_
FN:80,_RNCNvMNtCserJaDiv4hKx_13nestgate_core5cacheNtB4_11CacheSystem3get0B6_
FN:88,_RNCNvMNtCserJaDiv4hKx_13nestgate_core5cacheNtB4_11CacheSystem3put0B6_
FN:104,_RNCNvMNtCserJaDiv4hKx_13nestgate_core5cacheNtB4_11CacheSystem5clear0B6_
FN:96,_RNCNvMNtCserJaDiv4hKx_13nestgate_core5cacheNtB4_11CacheSystem6remove0B6_
FN:296,_RNCNvMs0_NtCserJaDiv4hKx_13nestgate_core5cacheNtB7_12CacheBuilder5build0B9_
FN:554,_RNCNvNtNtCshPPI97q08o7_13nestgate_core5cache25cache_comprehensive_testss_21test_cache_expiration0B7_
FN:575,_RNCNvNtNtCshPPI97q08o7_13nestgate_core5cache25cache_comprehensive_testss_21test_cache_statistics0B7_
FN:633,_RNCNvNtNtCshPPI97q08o7_13nestgate_core5cache25cache_comprehensive_testss_22test_cache_persistence0B7_
FN:658,_RNCNvNtNtCshPPI97q08o7_13nestgate_core5cache25cache_comprehensive_testss_25test_cache_error_handling0B7_
FN:533,_RNCNvNtNtCshPPI97q08o7_13nestgate_core5cache25cache_comprehensive_testss_28test_cache_eviction_policies0B7_
FN:711,_RNCNvNtNtCshPPI97q08o7_13nestgate_core5cache25cache_comprehensive_testss_30test_cache_performance_metrics0B7_
FN:512,_RNCNvNtNtCshPPI97q08o7_13nestgate_core5cache25cache_comprehensive_testss_31test_cache_data_type_operations0B7_
FN:603,_RNCNvNtNtCshPPI97q08o7_13nestgate_core5cache25cache_comprehensive_testss_32test_concurrent_cache_operations0B7_
FN:554,_RNvNtNtCshPPI97q08o7_13nestgate_core5cache25cache_comprehensive_testss_21test_cache_expiration
FN:575,_RNvNtNtCshPPI97q08o7_13nestgate_core5cache25cache_comprehensive_testss_21test_cache_statistics
FN:633,_RNvNtNtCshPPI97q08o7_13nestgate_core5cache25cache_comprehensive_testss_22test_cache_persistence
FN:658,_RNvNtNtCshPPI97q08o7_13nestgate_core5cache25cache_comprehensive_testss_25test_cache_error_handling
FN:696,_RNvNtNtCshPPI97q08o7_13nestgate_core5cache25cache_comprehensive_testss_28test_cache_config_validation
FN:533,_RNvNtNtCshPPI97q08o7_13nestgate_core5cache25cache_comprehensive_testss_28test_cache_eviction_policies
FN:678,_RNvNtNtCshPPI97q08o7_13nestgate_core5cache25cache_comprehensive_testss_28test_cache_memory_management
FN:711,_RNvNtNtCshPPI97q08o7_13nestgate_core5cache25cache_comprehensive_testss_30test_cache_performance_metrics
FN:512,_RNvNtNtCshPPI97q08o7_13nestgate_core5cache25cache_comprehensive_testss_31test_cache_data_type_operations
FN:603,_RNvNtNtCshPPI97q08o7_13nestgate_core5cache25cache_comprehensive_testss_32test_concurrent_cache_operations
FN:497,_RNvNtNtCshPPI97q08o7_13nestgate_core5cache25cache_comprehensive_testss_34test_cache_initialization_variants
FN:613,_RNCNCNvNtNtCshPPI97q08o7_13nestgate_core5cache25cache_comprehensive_testss_32test_concurrent_cache_operations00B9_
FN:66,_RNCNvMNtCshPPI97q08o7_13nestgate_core5cacheNtB4_11CacheSystem11single_tier0B6_
FN:74,_RNvMNtCshPPI97q08o7_13nestgate_core5cacheNtB2_11CacheSystem10multi_tier
FN:142,_RNvMNtCshPPI97q08o7_13nestgate_core5cacheNtB2_11CacheSystem11maintenance
FN:58,_RNvMNtCshPPI97q08o7_13nestgate_core5cacheNtB2_11CacheSystem11single_tier
FN:115,_RNvMNtCshPPI97q08o7_13nestgate_core5cacheNtB2_11CacheSystem12contains_key
FN:80,_RNvMNtCshPPI97q08o7_13nestgate_core5cacheNtB2_11CacheSystem3get
FN:88,_RNvMNtCshPPI97q08o7_13nestgate_core5cacheNtB2_11CacheSystem3put
FN:150,_RNvMNtCshPPI97q08o7_13nestgate_core5cacheNtB2_11CacheSystem5flush
FN:126,_RNvMNtCshPPI97q08o7_13nestgate_core5cacheNtB2_11CacheSystem5stats
FN:96,_RNvMNtCshPPI97q08o7_13nestgate_core5cacheNtB2_11CacheSystem6remove
FN:233,_RNvMs0_NtCshPPI97q08o7_13nestgate_core5cacheNtB5_12CacheBuilder11with_policy
FN:261,_RNvMs0_NtCshPPI97q08o7_13nestgate_core5cacheNtB5_12CacheBuilder15with_multi_tier
FN:223,_RNvMs0_NtCshPPI97q08o7_13nestgate_core5cacheNtB5_12CacheBuilder3new
FN:296,_RNvMs0_NtCshPPI97q08o7_13nestgate_core5cacheNtB5_12CacheBuilder5build
FN:246,_RNvMs0_NtCshPPI97q08o7_13nestgate_core5cacheNtB5_12CacheBuilder8with_ttl
FN:385,_RNCNCNvNtNtCshPPI97q08o7_13nestgate_core5cache5testss_16test_cache_stats00B9_
FN:390,_RNCNCNvNtNtCshPPI97q08o7_13nestgate_core5cache5testss_16test_cache_stats0s_0B9_
FN:469,_RNCNCNvNtNtCshPPI97q08o7_13nestgate_core5cache5testss_18test_cache_builder00B9_
FN:323,_RNCNCNvNtNtCshPPI97q08o7_13nestgate_core5cache5testss_28test_cache_system_operations00B9_
FN:359,_RNCNCNvNtNtCshPPI97q08o7_13nestgate_core5cache5testss_28test_cache_system_operations0s0_0B9_
FN:374,_RNCNCNvNtNtCshPPI97q08o7_13nestgate_core5cache5testss_28test_cache_system_operations0s1_0B9_
FN:343,_RNCNCNvNtNtCshPPI97q08o7_13nestgate_core5cache5testss_28test_cache_system_operations0s_0B9_
FN:420,_RNCNCNvNtNtCshPPI97q08o7_13nestgate_core5cache5testss_32test_multi_tier_cache_operations00B9_
FN:433,_RNCNCNvNtNtCshPPI97q08o7_13nestgate_core5cache5testss_32test_multi_tier_cache_operations0s0_0B9_
FN:441,_RNCNCNvNtNtCshPPI97q08o7_13nestgate_core5cache5testss_32test_multi_tier_cache_operations0s1_0B9_
FN:448,_RNCNCNvNtNtCshPPI97q08o7_13nestgate_core5cache5testss_32test_multi_tier_cache_operations0s2_0B9_
FN:427,_RNCNCNvNtNtCshPPI97q08o7_13nestgate_core5cache5testss_32test_multi_tier_cache_operations0s_0B9_
FN:142,_RNCNvMNtCshPPI97q08o7_13nestgate_core5cacheNtB4_11CacheSystem11maintenance0B6_
FN:115,_RNCNvMNtCshPPI97q08o7_13nestgate_core5cacheNtB4_11CacheSystem12contains_key0B6_
FN:80,_RNCNvMNtCshPPI97q08o7_13nestgate_core5cacheNtB4_11CacheSystem3get0B6_
FN:88,_RNCNvMNtCshPPI97q08o7_13nestgate_core5cacheNtB4_11CacheSystem3put0B6_
FN:96,_RNCNvMNtCshPPI97q08o7_13nestgate_core5cacheNtB4_11CacheSystem6remove0B6_
FN:296,_RNCNvMs0_NtCshPPI97q08o7_13nestgate_core5cacheNtB7_12CacheBuilder5build0B9_
FN:383,_RNCNvNtNtCshPPI97q08o7_13nestgate_core5cache5testss_16test_cache_stats0B7_
FN:457,_RNCNvNtNtCshPPI97q08o7_13nestgate_core5cache5testss_18test_cache_builder0B7_
FN:319,_RNCNvNtNtCshPPI97q08o7_13nestgate_core5cache5testss_28test_cache_system_operations0B7_
FN:409,_RNCNvNtNtCshPPI97q08o7_13nestgate_core5cache5testss_32test_multi_tier_cache_operations0B7_
FN:383,_RNvNtNtCshPPI97q08o7_13nestgate_core5cache5testss_16test_cache_stats
FN:457,_RNvNtNtCshPPI97q08o7_13nestgate_core5cache5testss_18test_cache_builder
FN:477,_RNvNtNtCshPPI97q08o7_13nestgate_core5cache5testss_25test_cache_config_presets
FN:319,_RNvNtNtCshPPI97q08o7_13nestgate_core5cache5testss_28test_cache_system_operations
FN:409,_RNvNtNtCshPPI97q08o7_13nestgate_core5cache5testss_32test_multi_tier_cache_operations
FN:104,_RNCNvMNtCshPPI97q08o7_13nestgate_core5cacheNtB4_11CacheSystem5clear0B6_
FN:104,_RNvMNtCshPPI97q08o7_13nestgate_core5cacheNtB2_11CacheSystem5clear
FN:289,_RNvMs0_NtCshPPI97q08o7_13nestgate_core5cacheNtB5_12CacheBuilder17enable_multi_tier
FN:253,_RNvMs0_NtCshPPI97q08o7_13nestgate_core5cacheNtB5_12CacheBuilder18with_hot_tier_size
FN:170,_RNvMs_NtCshPPI97q08o7_13nestgate_core5cacheNtB4_16CacheSystemStats10total_hits
FN:188,_RNvMs_NtCshPPI97q08o7_13nestgate_core5cacheNtB4_16CacheSystemStats11total_items
FN:179,_RNvMs_NtCshPPI97q08o7_13nestgate_core5cacheNtB4_16CacheSystemStats12total_misses
FN:197,_RNvMs_NtCshPPI97q08o7_13nestgate_core5cacheNtB4_16CacheSystemStats16total_size_bytes
FN:206,_RNvMs_NtCshPPI97q08o7_13nestgate_core5cacheNtB4_16CacheSystemStats9hit_ratio
FN:307,_RNvXs1_NtCshPPI97q08o7_13nestgate_core5cacheNtB5_12CacheBuilderNtNtCs5GmCzIpY9Qj_4core7default7Default7default
FN:239,_RINvMs0_NtCshPPI97q08o7_13nestgate_core5cacheNtB6_12CacheBuilder14with_cache_dirNtNtCscmSb185pVu_5alloc6string6StringEB8_
FN:239,_RINvMs0_NtCshPPI97q08o7_13nestgate_core5cacheNtB6_12CacheBuilder14with_cache_dirRNtNtCscKkwsb9kWaL_3std4path4PathEB8_
FNDA:0,_RINvMs0_NtCserJaDiv4hKx_13nestgate_core5cacheNtB6_12CacheBuilder14with_cache_dirpEB8_
FNDA:0,_RNCNvMNtCserJaDiv4hKx_13nestgate_core5cacheNtB4_11CacheSystem11maintenance0B6_
FNDA:0,_RNCNvMNtCserJaDiv4hKx_13nestgate_core5cacheNtB4_11CacheSystem12contains_key0B6_
FNDA:0,_RNCNvMNtCserJaDiv4hKx_13nestgate_core5cacheNtB4_11CacheSystem3get0B6_
FNDA:0,_RNCNvMNtCserJaDiv4hKx_13nestgate_core5cacheNtB4_11CacheSystem3put0B6_
FNDA:0,_RNCNvMNtCserJaDiv4hKx_13nestgate_core5cacheNtB4_11CacheSystem5clear0B6_
FNDA:0,_RNCNvMNtCserJaDiv4hKx_13nestgate_core5cacheNtB4_11CacheSystem6remove0B6_
FNDA:0,_RNCNvMs0_NtCserJaDiv4hKx_13nestgate_core5cacheNtB7_12CacheBuilder5build0B9_
FNDA:1,_RNCNvNtNtCshPPI97q08o7_13nestgate_core5cache25cache_comprehensive_testss_21test_cache_expiration0B7_
FNDA:1,_RNCNvNtNtCshPPI97q08o7_13nestgate_core5cache25cache_comprehensive_testss_21test_cache_statistics0B7_
FNDA:1,_RNCNvNtNtCshPPI97q08o7_13nestgate_core5cache25cache_comprehensive_testss_22test_cache_persistence0B7_
FNDA:1,_RNCNvNtNtCshPPI97q08o7_13nestgate_core5cache25cache_comprehensive_testss_25test_cache_error_handling0B7_
FNDA:1,_RNCNvNtNtCshPPI97q08o7_13nestgate_core5cache25cache_comprehensive_testss_28test_cache_eviction_policies0B7_
FNDA:1,_RNCNvNtNtCshPPI97q08o7_13nestgate_core5cache25cache_comprehensive_testss_30test_cache_performance_metrics0B7_
FNDA:1,_RNCNvNtNtCshPPI97q08o7_13nestgate_core5cache25cache_comprehensive_testss_31test_cache_data_type_operations0B7_
FNDA:1,_RNCNvNtNtCshPPI97q08o7_13nestgate_core5cache25cache_comprehensive_testss_32test_concurrent_cache_operations0B7_
FNDA:1,_RNvNtNtCshPPI97q08o7_13nestgate_core5cache25cache_comprehensive_testss_21test_cache_expiration
FNDA:1,_RNvNtNtCshPPI97q08o7_13nestgate_core5cache25cache_comprehensive_testss_21test_cache_statistics
FNDA:1,_RNvNtNtCshPPI97q08o7_13nestgate_core5cache25cache_comprehensive_testss_22test_cache_persistence
FNDA:1,_RNvNtNtCshPPI97q08o7_13nestgate_core5cache25cache_comprehensive_testss_25test_cache_error_handling
FNDA:1,_RNvNtNtCshPPI97q08o7_13nestgate_core5cache25cache_comprehensive_testss_28test_cache_config_validation
FNDA:1,_RNvNtNtCshPPI97q08o7_13nestgate_core5cache25cache_comprehensive_testss_28test_cache_eviction_policies
FNDA:1,_RNvNtNtCshPPI97q08o7_13nestgate_core5cache25cache_comprehensive_testss_28test_cache_memory_management
FNDA:1,_RNvNtNtCshPPI97q08o7_13nestgate_core5cache25cache_comprehensive_testss_30test_cache_performance_metrics
FNDA:1,_RNvNtNtCshPPI97q08o7_13nestgate_core5cache25cache_comprehensive_testss_31test_cache_data_type_operations
FNDA:1,_RNvNtNtCshPPI97q08o7_13nestgate_core5cache25cache_comprehensive_testss_32test_concurrent_cache_operations
FNDA:1,_RNvNtNtCshPPI97q08o7_13nestgate_core5cache25cache_comprehensive_testss_34test_cache_initialization_variants
FNDA:50,_RNCNCNvNtNtCshPPI97q08o7_13nestgate_core5cache25cache_comprehensive_testss_32test_concurrent_cache_operations00B9_
FNDA:13,_RNCNvMNtCshPPI97q08o7_13nestgate_core5cacheNtB4_11CacheSystem11single_tier0B6_
FNDA:1,_RNvMNtCshPPI97q08o7_13nestgate_core5cacheNtB2_11CacheSystem10multi_tier
FNDA:1,_RNvMNtCshPPI97q08o7_13nestgate_core5cacheNtB2_11CacheSystem11maintenance
FNDA:14,_RNvMNtCshPPI97q08o7_13nestgate_core5cacheNtB2_11CacheSystem11single_tier
FNDA:1,_RNvMNtCshPPI97q08o7_13nestgate_core5cacheNtB2_11CacheSystem12contains_key
FNDA:4,_RNvMNtCshPPI97q08o7_13nestgate_core5cacheNtB2_11CacheSystem3get
FNDA:3,_RNvMNtCshPPI97q08o7_13nestgate_core5cacheNtB2_11CacheSystem3put
FNDA:1,_RNvMNtCshPPI97q08o7_13nestgate_core5cacheNtB2_11CacheSystem5flush
FNDA:1,_RNvMNtCshPPI97q08o7_13nestgate_core5cacheNtB2_11CacheSystem5stats
FNDA:1,_RNvMNtCshPPI97q08o7_13nestgate_core5cacheNtB2_11CacheSystem6remove
FNDA:2,_RNvMs0_NtCshPPI97q08o7_13nestgate_core5cacheNtB5_12CacheBuilder11with_policy
FNDA:1,_RNvMs0_NtCshPPI97q08o7_13nestgate_core5cacheNtB5_12CacheBuilder15with_multi_tier
FNDA:2,_RNvMs0_NtCshPPI97q08o7_13nestgate_core5cacheNtB5_12CacheBuilder3new
FNDA:2,_RNvMs0_NtCshPPI97q08o7_13nestgate_core5cacheNtB5_12CacheBuilder5build
FNDA:2,_RNvMs0_NtCshPPI97q08o7_13nestgate_core5cacheNtB5_12CacheBuilder8with_ttl
FNDA:0,_RNCNCNvNtNtCshPPI97q08o7_13nestgate_core5cache5testss_16test_cache_stats00B9_
FNDA:0,_RNCNCNvNtNtCshPPI97q08o7_13nestgate_core5cache5testss_16test_cache_stats0s_0B9_
FNDA:0,_RNCNCNvNtNtCshPPI97q08o7_13nestgate_core5cache5testss_18test_cache_builder00B9_
FNDA:0,_RNCNCNvNtNtCshPPI97q08o7_13nestgate_core5cache5testss_28test_cache_system_operations00B9_
FNDA:0,_RNCNCNvNtNtCshPPI97q08o7_13nestgate_core5cache5testss_28test_cache_system_operations0s0_0B9_
FNDA:0,_RNCNCNvNtNtCshPPI97q08o7_13nestgate_core5cache5testss_28test_cache_system_operations0s1_0B9_
FNDA:0,_RNCNCNvNtNtCshPPI97q08o7_13nestgate_core5cache5testss_28test_cache_system_operations0s_0B9_
FNDA:0,_RNCNCNvNtNtCshPPI97q08o7_13nestgate_core5cache5testss_32test_multi_tier_cache_operations00B9_
FNDA:0,_RNCNCNvNtNtCshPPI97q08o7_13nestgate_core5cache5testss_32test_multi_tier_cache_operations0s0_0B9_
FNDA:0,_RNCNCNvNtNtCshPPI97q08o7_13nestgate_core5cache5testss_32test_multi_tier_cache_operations0s1_0B9_
FNDA:0,_RNCNCNvNtNtCshPPI97q08o7_13nestgate_core5cache5testss_32test_multi_tier_cache_operations0s2_0B9_
FNDA:0,_RNCNCNvNtNtCshPPI97q08o7_13nestgate_core5cache5testss_32test_multi_tier_cache_operations0s_0B9_
FNDA:1,_RNCNvMNtCshPPI97q08o7_13nestgate_core5cacheNtB4_11CacheSystem11maintenance0B6_
FNDA:1,_RNCNvMNtCshPPI97q08o7_13nestgate_core5cacheNtB4_11CacheSystem12contains_key0B6_
FNDA:4,_RNCNvMNtCshPPI97q08o7_13nestgate_core5cacheNtB4_11CacheSystem3get0B6_
FNDA:3,_RNCNvMNtCshPPI97q08o7_13nestgate_core5cacheNtB4_11CacheSystem3put0B6_
FNDA:1,_RNCNvMNtCshPPI97q08o7_13nestgate_core5cacheNtB4_11CacheSystem6remove0B6_
FNDA:2,_RNCNvMs0_NtCshPPI97q08o7_13nestgate_core5cacheNtB7_12CacheBuilder5build0B9_
FNDA:1,_RNCNvNtNtCshPPI97q08o7_13nestgate_core5cache5testss_16test_cache_stats0B7_
FNDA:1,_RNCNvNtNtCshPPI97q08o7_13nestgate_core5cache5testss_18test_cache_builder0B7_
FNDA:1,_RNCNvNtNtCshPPI97q08o7_13nestgate_core5cache5testss_28test_cache_system_operations0B7_
FNDA:1,_RNCNvNtNtCshPPI97q08o7_13nestgate_core5cache5testss_32test_multi_tier_cache_operations0B7_
FNDA:1,_RNvNtNtCshPPI97q08o7_13nestgate_core5cache5testss_16test_cache_stats
FNDA:1,_RNvNtNtCshPPI97q08o7_13nestgate_core5cache5testss_18test_cache_builder
FNDA:1,_RNvNtNtCshPPI97q08o7_13nestgate_core5cache5testss_25test_cache_config_presets
FNDA:1,_RNvNtNtCshPPI97q08o7_13nestgate_core5cache5testss_28test_cache_system_operations
FNDA:1,_RNvNtNtCshPPI97q08o7_13nestgate_core5cache5testss_32test_multi_tier_cache_operations
FNDA:0,_RNCNvMNtCshPPI97q08o7_13nestgate_core5cacheNtB4_11CacheSystem5clear0B6_
FNDA:0,_RNvMNtCshPPI97q08o7_13nestgate_core5cacheNtB2_11CacheSystem5clear
FNDA:0,_RNvMs0_NtCshPPI97q08o7_13nestgate_core5cacheNtB5_12CacheBuilder17enable_multi_tier
FNDA:0,_RNvMs0_NtCshPPI97q08o7_13nestgate_core5cacheNtB5_12CacheBuilder18with_hot_tier_size
FNDA:0,_RNvMs_NtCshPPI97q08o7_13nestgate_core5cacheNtB4_16CacheSystemStats10total_hits
FNDA:0,_RNvMs_NtCshPPI97q08o7_13nestgate_core5cacheNtB4_16CacheSystemStats11total_items
FNDA:0,_RNvMs_NtCshPPI97q08o7_13nestgate_core5cacheNtB4_16CacheSystemStats12total_misses
FNDA:0,_RNvMs_NtCshPPI97q08o7_13nestgate_core5cacheNtB4_16CacheSystemStats16total_size_bytes
FNDA:0,_RNvMs_NtCshPPI97q08o7_13nestgate_core5cacheNtB4_16CacheSystemStats9hit_ratio
FNDA:0,_RNvXs1_NtCshPPI97q08o7_13nestgate_core5cacheNtB5_12CacheBuilderNtNtCs5GmCzIpY9Qj_4core7default7Default7default
FNDA:1,_RINvMs0_NtCshPPI97q08o7_13nestgate_core5cacheNtB6_12CacheBuilder14with_cache_dirNtNtCscmSb185pVu_5alloc6string6StringEB8_
FNDA:1,_RINvMs0_NtCshPPI97q08o7_13nestgate_core5cacheNtB6_12CacheBuilder14with_cache_dirRNtNtCscKkwsb9kWaL_3std4path4PathEB8_
FNF:73
FNH:51
DA:58,14
DA:59,14
DA:60,14
DA:62,14
DA:63,14
DA:64,14
DA:65,14
DA:66,14
DA:69,14
DA:70,14
DA:71,14
DA:74,1
DA:75,1
DA:76,1
DA:77,1
DA:80,4
DA:81,4
DA:82,3
DA:83,1
DA:85,4
DA:88,3
DA:89,3
DA:90,2
DA:91,1
DA:93,3
DA:96,1
DA:97,1
DA:98,1
DA:99,0
DA:101,1
DA:104,0
DA:105,0
DA:106,0
DA:107,0
DA:108,0
DA:110,0
DA:112,0
DA:115,1
DA:116,1
DA:117,1
DA:119,1
DA:121,0
DA:123,1
DA:126,1
DA:127,1
DA:128,1
DA:130,1
DA:131,1
DA:132,1
DA:134,0
DA:135,0
DA:136,0
DA:139,1
DA:142,1
DA:143,1
DA:144,0
DA:145,1
DA:147,1
DA:150,1
DA:151,1
DA:152,0
DA:153,1
DA:155,1
DA:170,0
DA:171,0
DA:172,0
DA:173,0
DA:175,0
DA:179,0
DA:180,0
DA:181,0
DA:182,0
DA:184,0
DA:188,0
DA:189,0
DA:190,0
DA:191,0
DA:193,0
DA:197,0
DA:198,0
DA:199,0
DA:200,0
DA:202,0
DA:206,0
DA:207,0
DA:208,0
DA:209,0
DA:211,0
DA:223,2
DA:224,2
DA:225,2
DA:226,2
DA:227,2
DA:228,2
DA:229,2
DA:233,2
DA:234,2
DA:235,2
DA:236,2
DA:239,2
DA:240,2
DA:241,2
DA:242,2
DA:246,2
DA:247,2
DA:248,2
DA:249,2
DA:253,0
DA:254,0
DA:255,0
DA:256,0
DA:261,1
DA:262,1
DA:264,1
DA:265,1
DA:266,1
DA:267,1
DA:268,1
DA:269,1
DA:270,1
DA:271,1
DA:272,1
DA:273,1
DA:274,1
DA:275,1
DA:276,1
DA:277,1
DA:278,1
DA:279,1
DA:280,1
DA:281,1
DA:282,1
DA:283,1
DA:284,1
DA:285,1
DA:289,0
DA:290,0
DA:291,0
DA:292,0
DA:293,0
DA:296,2
DA:297,2
DA:298,1
DA:299,1
DA:301,1
DA:303,2
DA:307,0
DA:308,0
DA:309,0
DA:319,1
DA:320,1
DA:323,1
DA:324,0
DA:325,0
DA:329,0
DA:330,0
DA:331,0
DA:334,0
DA:336,0
DA:338,1
DA:339,1
DA:343,1
DA:344,0
DA:345,0
DA:349,0
DA:350,0
DA:351,0
DA:354,0
DA:356,0
DA:359,1
DA:360,0
DA:361,0
DA:362,0
DA:363,1
DA:366,1
DA:367,1
DA:370,1
DA:371,1
DA:374,1
DA:375,0
DA:376,0
DA:377,0
DA:378,1
DA:379,2
DA:380,1
DA:383,1
DA:384,1
DA:385,1
DA:386,0
DA:387,0
DA:390,1
DA:391,0
DA:393,0
DA:394,0
DA:396,1
DA:397,1
DA:398,1
DA:399,1
DA:400,1
DA:401,1
DA:402,1
DA:403,1
DA:404,1
DA:405,1
DA:406,1
DA:409,1
DA:410,1
DA:411,1
DA:414,1
DA:415,1
DA:416,1
DA:417,1
DA:418,1
DA:420,1
DA:421,0
DA:422,0
DA:427,1
DA:428,0
DA:429,0
DA:432,0
DA:433,1
DA:434,0
DA:435,0
DA:438,1
DA:439,1
DA:441,1
DA:442,0
DA:443,0
DA:444,0
DA:445,0
DA:447,0
DA:448,1
DA:449,0
DA:450,0
DA:451,0
DA:452,1
DA:453,2
DA:454,1
DA:457,1
DA:458,1
DA:460,1
DA:461,1
DA:462,1
DA:463,1
DA:464,1
DA:465,1
DA:468,1
DA:469,1
DA:470,0
DA:471,0
DA:472,1
DA:473,2
DA:474,1
DA:477,1
DA:478,1
DA:480,1
DA:481,1
DA:483,1
DA:485,1
DA:486,1
DA:487,1
DA:497,1
DA:499,1
DA:500,1
DA:501,1
DA:504,1
DA:507,1
DA:508,1
DA:512,1
DA:513,1
DA:514,1
DA:517,1
DA:521,1
DA:525,1
DA:528,1
DA:529,1
DA:533,1
DA:534,1
DA:537,1
DA:540,1001
DA:541,1000
DA:542,1000
DA:543,1000
DA:544,1000
DA:545,1
DA:546,1
DA:547,1
DA:548,1
DA:549,1
DA:550,1
DA:554,1
DA:555,1
DA:556,1
DA:561,1
DA:570,1
DA:571,1
DA:575,1
DA:576,1
DA:577,1
DA:580,101
DA:581,100
DA:582,1
DA:583,1
DA:584,100
DA:585,50
DA:586,50
DA:587,1
DA:588,1
DA:589,1
DA:590,101
DA:591,100
DA:592,100
DA:593,100
DA:594,1
DA:595,1
DA:596,1
DA:597,1
DA:598,1
DA:599,1
DA:603,1
DA:605,1
DA:606,1
DA:608,1
DA:611,51
DA:612,50
DA:613,50
DA:614,50
DA:615,50
DA:616,1
DA:617,1
DA:618,1
DA:619,50
DA:620,50
DA:621,1
DA:622,1
DA:623,1
DA:624,51
DA:625,50
DA:626,1
DA:627,1
DA:628,1
DA:629,1
DA:633,1
DA:634,1
DA:635,1
DA:638,1
DA:644,1
DA:647,1
DA:648,1
DA:653,1
DA:654,1
DA:658,1
DA:659,1
DA:660,1
DA:663,1
DA:664,1
DA:665,5
DA:666,4
DA:667,4
DA:668,1
DA:669,1
DA:670,1
DA:671,1
DA:672,1
DA:673,1
DA:674,1
DA:678,1
DA:679,1
DA:680,1
DA:691,1
DA:692,1
DA:696,1
DA:698,1
DA:706,1
DA:707,1
DA:711,1
DA:712,1
DA:713,1
DA:716,1
DA:718,1001
DA:719,1000
DA:720,1000
DA:721,1000
DA:722,1000
DA:724,1
DA:726,1
DA:728,1001
DA:729,1000
DA:730,1000
DA:731,1000
DA:733,1
DA:736,1
DA:738,1
DA:739,1
BRF:0
BRH:0
LF:477
LH:362
end_of_record
SF:/home/eastgate/Development/ecoPrimals/nestgate/code/crates/nestgate-core/src/cache/multi_tier.rs
FN:246,_RNCNvMNtNtCserJaDiv4hKx_13nestgate_core5cache10multi_tierNtB4_14MultiTierCache12contains_key0B8_
FN:137,_RNCNvMNtNtCserJaDiv4hKx_13nestgate_core5cache10multi_tierNtB4_14MultiTierCache3get0B8_
FN:125,_RNCNvMNtNtCserJaDiv4hKx_13nestgate_core5cache10multi_tierNtB4_14MultiTierCache3put0B8_
FN:113,_RNCNvMNtNtCserJaDiv4hKx_13nestgate_core5cache10multi_tierNtB4_14MultiTierCache3set0B8_
FN:195,_RNCNvMNtNtCserJaDiv4hKx_13nestgate_core5cache10multi_tierNtB4_14MultiTierCache5clear0B8_
FN:170,_RNCNvMNtNtCserJaDiv4hKx_13nestgate_core5cache10multi_tierNtB4_14MultiTierCache6remove0B8_
FN:210,_RNvMNtNtCshPPI97q08o7_13nestgate_core5cache10multi_tierNtB2_14MultiTierCache11maintenance
FN:246,_RNvMNtNtCshPPI97q08o7_13nestgate_core5cache10multi_tierNtB2_14MultiTierCache12contains_key
FN:137,_RNvMNtNtCshPPI97q08o7_13nestgate_core5cache10multi_tierNtB2_14MultiTierCache3get
FN:81,_RNvMNtNtCshPPI97q08o7_13nestgate_core5cache10multi_tierNtB2_14MultiTierCache3new
FN:125,_RNvMNtNtCshPPI97q08o7_13nestgate_core5cache10multi_tierNtB2_14MultiTierCache3put
FN:113,_RNvMNtNtCshPPI97q08o7_13nestgate_core5cache10multi_tierNtB2_14MultiTierCache3set
FN:195,_RNvMNtNtCshPPI97q08o7_13nestgate_core5cache10multi_tierNtB2_14MultiTierCache5clear
FN:233,_RNvMNtNtCshPPI97q08o7_13nestgate_core5cache10multi_tierNtB2_14MultiTierCache5flush
FN:268,_RNvMNtNtCshPPI97q08o7_13nestgate_core5cache10multi_tierNtB2_14MultiTierCache5stats
FN:170,_RNvMNtNtCshPPI97q08o7_13nestgate_core5cache10multi_tierNtB2_14MultiTierCache6remove
FN:324,_RNvMs0_NtNtCshPPI97q08o7_13nestgate_core5cache10multi_tierNtB5_13InMemoryCache3new
FN:357,_RNvXs1_NtNtCshPPI97q08o7_13nestgate_core5cache10multi_tierNtB5_20MultiTierCacheConfigNtNtCs5GmCzIpY9Qj_4core7default7Default7default
FN:338,_RNvXs8_NtNtCshPPI97q08o7_13nestgate_core5cache10multi_tierNtB5_13InMemoryCacheINtB5_13CacheProviderNtNtCscmSb185pVu_5alloc6string6StringINtNtB1D_3vec3VechEE3get
FN:333,_RNvXs8_NtNtCshPPI97q08o7_13nestgate_core5cache10multi_tierNtB5_13InMemoryCacheINtB5_13CacheProviderNtNtCscmSb185pVu_5alloc6string6StringINtNtB1D_3vec3VechEE3set
FN:351,_RNvXs8_NtNtCshPPI97q08o7_13nestgate_core5cache10multi_tierNtB5_13InMemoryCacheINtB5_13CacheProviderNtNtCscmSb185pVu_5alloc6string6StringINtNtB1D_3vec3VechEE4size
FN:346,_RNvXs8_NtNtCshPPI97q08o7_13nestgate_core5cache10multi_tierNtB5_13InMemoryCacheINtB5_13CacheProviderNtNtCscmSb185pVu_5alloc6string6StringINtNtB1D_3vec3VechEE5clear
FN:342,_RNvXs8_NtNtCshPPI97q08o7_13nestgate_core5cache10multi_tierNtB5_13InMemoryCacheINtB5_13CacheProviderNtNtCscmSb185pVu_5alloc6string6StringINtNtB1D_3vec3VechEE6remove
FN:246,_RNCNvMNtNtCshPPI97q08o7_13nestgate_core5cache10multi_tierNtB4_14MultiTierCache12contains_key0B8_
FN:125,_RNCNvMNtNtCshPPI97q08o7_13nestgate_core5cache10multi_tierNtB4_14MultiTierCache3put0B8_
FN:309,_RNvMs_NtNtCshPPI97q08o7_13nestgate_core5cache10multi_tierNtB4_19MultiTierCacheStats17overall_hit_ratio
FN:520,_RNCNCNvNtNtNtCshPPI97q08o7_13nestgate_core5cache10multi_tier5testss_30test_tier_promotion_simulation00Bb_
FN:545,_RNCNCNvNtNtNtCshPPI97q08o7_13nestgate_core5cache10multi_tier5testss_30test_tier_promotion_simulation0s0_0Bb_
FN:555,_RNCNCNvNtNtNtCshPPI97q08o7_13nestgate_core5cache10multi_tier5testss_30test_tier_promotion_simulation0s1_0Bb_
FN:535,_RNCNCNvNtNtNtCshPPI97q08o7_13nestgate_core5cache10multi_tier5testss_30test_tier_promotion_simulation0s_0Bb_
FN:429,_RNCNCNvNtNtNtCshPPI97q08o7_13nestgate_core5cache10multi_tier5testss_35test_multi_tier_cache_with_temp_dir00Bb_
FN:450,_RNCNCNvNtNtNtCshPPI97q08o7_13nestgate_core5cache10multi_tier5testss_35test_multi_tier_cache_with_temp_dir0s0_0Bb_
FN:460,_RNCNCNvNtNtNtCshPPI97q08o7_13nestgate_core5cache10multi_tier5testss_35test_multi_tier_cache_with_temp_dir0s1_0Bb_
FN:469,_RNCNCNvNtNtNtCshPPI97q08o7_13nestgate_core5cache10multi_tier5testss_35test_multi_tier_cache_with_temp_dir0s2_0Bb_
FN:476,_RNCNCNvNtNtNtCshPPI97q08o7_13nestgate_core5cache10multi_tier5testss_35test_multi_tier_cache_with_temp_dir0s3_0Bb_
FN:488,_RNCNCNvNtNtNtCshPPI97q08o7_13nestgate_core5cache10multi_tier5testss_35test_multi_tier_cache_with_temp_dir0s4_0Bb_
FN:498,_RNCNCNvNtNtNtCshPPI97q08o7_13nestgate_core5cache10multi_tier5testss_35test_multi_tier_cache_with_temp_dir0s5_0Bb_
FN:505,_RNCNCNvNtNtNtCshPPI97q08o7_13nestgate_core5cache10multi_tier5testss_35test_multi_tier_cache_with_temp_dir0s6_0Bb_
FN:441,_RNCNCNvNtNtNtCshPPI97q08o7_13nestgate_core5cache10multi_tier5testss_35test_multi_tier_cache_with_temp_dir0s_0Bb_
FN:387,_RNCNCNvNtNtNtCshPPI97q08o7_13nestgate_core5cache10multi_tier5testss_38test_multi_tier_cache_basic_operations00Bb_
FN:405,_RNCNCNvNtNtNtCshPPI97q08o7_13nestgate_core5cache10multi_tier5testss_38test_multi_tier_cache_basic_operations0s0_0Bb_
FN:412,_RNCNCNvNtNtNtCshPPI97q08o7_13nestgate_core5cache10multi_tier5testss_38test_multi_tier_cache_basic_operations0s1_0Bb_
FN:419,_RNCNCNvNtNtNtCshPPI97q08o7_13nestgate_core5cache10multi_tier5testss_38test_multi_tier_cache_basic_operations0s2_0Bb_
FN:396,_RNCNCNvNtNtNtCshPPI97q08o7_13nestgate_core5cache10multi_tier5testss_38test_multi_tier_cache_basic_operations0s_0Bb_
FN:137,_RNCNvMNtNtCshPPI97q08o7_13nestgate_core5cache10multi_tierNtB4_14MultiTierCache3get0B8_
FN:113,_RNCNvMNtNtCshPPI97q08o7_13nestgate_core5cache10multi_tierNtB4_14MultiTierCache3set0B8_
FN:195,_RNCNvMNtNtCshPPI97q08o7_13nestgate_core5cache10multi_tierNtB4_14MultiTierCache5clear0B8_
FN:170,_RNCNvMNtNtCshPPI97q08o7_13nestgate_core5cache10multi_tierNtB4_14MultiTierCache6remove0B8_
FN:518,_RNCNvNtNtNtCshPPI97q08o7_13nestgate_core5cache10multi_tier5testss_30test_tier_promotion_simulation0B9_
FN:428,_RNCNvNtNtNtCshPPI97q08o7_13nestgate_core5cache10multi_tier5testss_35test_multi_tier_cache_with_temp_dir0B9_
FN:385,_RNCNvNtNtNtCshPPI97q08o7_13nestgate_core5cache10multi_tier5testss_38test_multi_tier_cache_basic_operations0B9_
FN:518,_RNvNtNtNtCshPPI97q08o7_13nestgate_core5cache10multi_tier5testss_30test_tier_promotion_simulation
FN:428,_RNvNtNtNtCshPPI97q08o7_13nestgate_core5cache10multi_tier5testss_35test_multi_tier_cache_with_temp_dir
FN:385,_RNvNtNtNtCshPPI97q08o7_13nestgate_core5cache10multi_tier5testss_38test_multi_tier_cache_basic_operations
FNDA:0,_RNCNvMNtNtCserJaDiv4hKx_13nestgate_core5cache10multi_tierNtB4_14MultiTierCache12contains_key0B8_
FNDA:0,_RNCNvMNtNtCserJaDiv4hKx_13nestgate_core5cache10multi_tierNtB4_14MultiTierCache3get0B8_
FNDA:0,_RNCNvMNtNtCserJaDiv4hKx_13nestgate_core5cache10multi_tierNtB4_14MultiTierCache3put0B8_
FNDA:0,_RNCNvMNtNtCserJaDiv4hKx_13nestgate_core5cache10multi_tierNtB4_14MultiTierCache3set0B8_
FNDA:0,_RNCNvMNtNtCserJaDiv4hKx_13nestgate_core5cache10multi_tierNtB4_14MultiTierCache5clear0B8_
FNDA:0,_RNCNvMNtNtCserJaDiv4hKx_13nestgate_core5cache10multi_tierNtB4_14MultiTierCache6remove0B8_
FNDA:1,_RNvMNtNtCshPPI97q08o7_13nestgate_core5cache10multi_tierNtB2_14MultiTierCache11maintenance
FNDA:0,_RNvMNtNtCshPPI97q08o7_13nestgate_core5cache10multi_tierNtB2_14MultiTierCache12contains_key
FNDA:11,_RNvMNtNtCshPPI97q08o7_13nestgate_core5cache10multi_tierNtB2_14MultiTierCache3get
FNDA:4,_RNvMNtNtCshPPI97q08o7_13nestgate_core5cache10multi_tierNtB2_14MultiTierCache3new
FNDA:1,_RNvMNtNtCshPPI97q08o7_13nestgate_core5cache10multi_tierNtB2_14MultiTierCache3put
FNDA:5,_RNvMNtNtCshPPI97q08o7_13nestgate_core5cache10multi_tierNtB2_14MultiTierCache3set
FNDA:1,_RNvMNtNtCshPPI97q08o7_13nestgate_core5cache10multi_tierNtB2_14MultiTierCache5clear
FNDA:1,_RNvMNtNtCshPPI97q08o7_13nestgate_core5cache10multi_tierNtB2_14MultiTierCache5flush
FNDA:2,_RNvMNtNtCshPPI97q08o7_13nestgate_core5cache10multi_tierNtB2_14MultiTierCache5stats
FNDA:1,_RNvMNtNtCshPPI97q08o7_13nestgate_core5cache10multi_tierNtB2_14MultiTierCache6remove
FNDA:12,_RNvMs0_NtNtCshPPI97q08o7_13nestgate_core5cache10multi_tierNtB5_13InMemoryCache3new
FNDA:3,_RNvXs1_NtNtCshPPI97q08o7_13nestgate_core5cache10multi_tierNtB5_20MultiTierCacheConfigNtNtCs5GmCzIpY9Qj_4core7default7Default7default
FNDA:15,_RNvXs8_NtNtCshPPI97q08o7_13nestgate_core5cache10multi_tierNtB5_13InMemoryCacheINtB5_13CacheProviderNtNtCscmSb185pVu_5alloc6string6StringINtNtB1D_3vec3VechEE3get
FNDA:5,_RNvXs8_NtNtCshPPI97q08o7_13nestgate_core5cache10multi_tierNtB5_13InMemoryCacheINtB5_13CacheProviderNtNtCscmSb185pVu_5alloc6string6StringINtNtB1D_3vec3VechEE3set
FNDA:0,_RNvXs8_NtNtCshPPI97q08o7_13nestgate_core5cache10multi_tierNtB5_13InMemoryCacheINtB5_13CacheProviderNtNtCscmSb185pVu_5alloc6string6StringINtNtB1D_3vec3VechEE4size
FNDA:3,_RNvXs8_NtNtCshPPI97q08o7_13nestgate_core5cache10multi_tierNtB5_13InMemoryCacheINtB5_13CacheProviderNtNtCscmSb185pVu_5alloc6string6StringINtNtB1D_3vec3VechEE5clear
FNDA:3,_RNvXs8_NtNtCshPPI97q08o7_13nestgate_core5cache10multi_tierNtB5_13InMemoryCacheINtB5_13CacheProviderNtNtCscmSb185pVu_5alloc6string6StringINtNtB1D_3vec3VechEE6remove
FNDA:0,_RNCNvMNtNtCshPPI97q08o7_13nestgate_core5cache10multi_tierNtB4_14MultiTierCache12contains_key0B8_
FNDA:1,_RNCNvMNtNtCshPPI97q08o7_13nestgate_core5cache10multi_tierNtB4_14MultiTierCache3put0B8_
FNDA:0,_RNvMs_NtNtCshPPI97q08o7_13nestgate_core5cache10multi_tierNtB4_19MultiTierCacheStats17overall_hit_ratio
FNDA:0,_RNCNCNvNtNtNtCshPPI97q08o7_13nestgate_core5cache10multi_tier5testss_30test_tier_promotion_simulation00Bb_
FNDA:0,_RNCNCNvNtNtNtCshPPI97q08o7_13nestgate_core5cache10multi_tier5testss_30test_tier_promotion_simulation0s0_0Bb_
FNDA:0,_RNCNCNvNtNtNtCshPPI97q08o7_13nestgate_core5cache10multi_tier5testss_30test_tier_promotion_simulation0s1_0Bb_
FNDA:0,_RNCNCNvNtNtNtCshPPI97q08o7_13nestgate_core5cache10multi_tier5testss_30test_tier_promotion_simulation0s_0Bb_
FNDA:0,_RNCNCNvNtNtNtCshPPI97q08o7_13nestgate_core5cache10multi_tier5testss_35test_multi_tier_cache_with_temp_dir00Bb_
FNDA:0,_RNCNCNvNtNtNtCshPPI97q08o7_13nestgate_core5cache10multi_tier5testss_35test_multi_tier_cache_with_temp_dir0s0_0Bb_
FNDA:0,_RNCNCNvNtNtNtCshPPI97q08o7_13nestgate_core5cache10multi_tier5testss_35test_multi_tier_cache_with_temp_dir0s1_0Bb_
FNDA:0,_RNCNCNvNtNtNtCshPPI97q08o7_13nestgate_core5cache10multi_tier5testss_35test_multi_tier_cache_with_temp_dir0s2_0Bb_
FNDA:0,_RNCNCNvNtNtNtCshPPI97q08o7_13nestgate_core5cache10multi_tier5testss_35test_multi_tier_cache_with_temp_dir0s3_0Bb_
FNDA:0,_RNCNCNvNtNtNtCshPPI97q08o7_13nestgate_core5cache10multi_tier5testss_35test_multi_tier_cache_with_temp_dir0s4_0Bb_
FNDA:0,_RNCNCNvNtNtNtCshPPI97q08o7_13nestgate_core5cache10multi_tier5testss_35test_multi_tier_cache_with_temp_dir0s5_0Bb_
FNDA:0,_RNCNCNvNtNtNtCshPPI97q08o7_13nestgate_core5cache10multi_tier5testss_35test_multi_tier_cache_with_temp_dir0s6_0Bb_
FNDA:0,_RNCNCNvNtNtNtCshPPI97q08o7_13nestgate_core5cache10multi_tier5testss_35test_multi_tier_cache_with_temp_dir0s_0Bb_
FNDA:0,_RNCNCNvNtNtNtCshPPI97q08o7_13nestgate_core5cache10multi_tier5testss_38test_multi_tier_cache_basic_operations00Bb_
FNDA:0,_RNCNCNvNtNtNtCshPPI97q08o7_13nestgate_core5cache10multi_tier5testss_38test_multi_tier_cache_basic_operations0s0_0Bb_
FNDA:0,_RNCNCNvNtNtNtCshPPI97q08o7_13nestgate_core5cache10multi_tier5testss_38test_multi_tier_cache_basic_operations0s1_0Bb_
FNDA:0,_RNCNCNvNtNtNtCshPPI97q08o7_13nestgate_core5cache10multi_tier5testss_38test_multi_tier_cache_basic_operations0s2_0Bb_
FNDA:0,_RNCNCNvNtNtNtCshPPI97q08o7_13nestgate_core5cache10multi_tier5testss_38test_multi_tier_cache_basic_operations0s_0Bb_
FNDA:11,_RNCNvMNtNtCshPPI97q08o7_13nestgate_core5cache10multi_tierNtB4_14MultiTierCache3get0B8_
FNDA:5,_RNCNvMNtNtCshPPI97q08o7_13nestgate_core5cache10multi_tierNtB4_14MultiTierCache3set0B8_
FNDA:1,_RNCNvMNtNtCshPPI97q08o7_13nestgate_core5cache10multi_tierNtB4_14MultiTierCache5clear0B8_
FNDA:1,_RNCNvMNtNtCshPPI97q08o7_13nestgate_core5cache10multi_tierNtB4_14MultiTierCache6remove0B8_
FNDA:1,_RNCNvNtNtNtCshPPI97q08o7_13nestgate_core5cache10multi_tier5testss_30test_tier_promotion_simulation0B9_
FNDA:1,_RNCNvNtNtNtCshPPI97q08o7_13nestgate_core5cache10multi_tier5testss_35test_multi_tier_cache_with_temp_dir0B9_
FNDA:1,_RNCNvNtNtNtCshPPI97q08o7_13nestgate_core5cache10multi_tier5testss_38test_multi_tier_cache_basic_operations0B9_
FNDA:1,_RNvNtNtNtCshPPI97q08o7_13nestgate_core5cache10multi_tier5testss_30test_tier_promotion_simulation
FNDA:1,_RNvNtNtNtCshPPI97q08o7_13nestgate_core5cache10multi_tier5testss_35test_multi_tier_cache_with_temp_dir
FNDA:1,_RNvNtNtNtCshPPI97q08o7_13nestgate_core5cache10multi_tier5testss_38test_multi_tier_cache_basic_operations
FNF:48
FNH:26
DA:81,4
DA:93,4
DA:94,4
DA:95,4
DA:97,4
DA:98,4
DA:99,4
DA:100,4
DA:101,4
DA:102,4
DA:103,4
DA:113,5
DA:114,5
DA:115,5
DA:125,1
DA:126,1
DA:127,1
DA:137,11
DA:141,11
DA:142,9
DA:143,2
DA:146,2
DA:148,0
DA:149,0
DA:150,2
DA:153,2
DA:155,0
DA:156,0
DA:157,2
DA:159,2
DA:160,11
DA:170,1
DA:171,1
DA:174,1
DA:175,1
DA:176,1
DA:177,1
DA:178,0
DA:179,1
DA:180,1
DA:181,0
DA:182,1
DA:184,1
DA:185,1
DA:195,1
DA:196,1
DA:197,1
DA:198,1
DA:199,1
DA:200,1
DA:210,1
DA:222,1
DA:223,1
DA:233,1
DA:242,1
DA:243,1
DA:246,0
DA:248,0
DA:249,0
DA:250,0
DA:251,0
DA:252,0
DA:253,0
DA:254,0
DA:255,0
DA:256,0
DA:257,0
DA:258,0
DA:268,2
DA:270,2
DA:271,2
DA:272,2
DA:273,2
DA:274,2
DA:275,2
DA:276,2
DA:277,2
DA:278,2
DA:279,2
DA:280,2
DA:281,2
DA:309,0
DA:310,0
DA:311,0
DA:312,0
DA:314,0
DA:316,0
DA:324,12
DA:325,12
DA:326,12
DA:327,12
DA:328,12
DA:333,5
DA:336,5
DA:338,15
DA:340,15
DA:342,3
DA:344,3
DA:346,3
DA:349,3
DA:351,0
DA:353,0
DA:357,3
DA:358,3
DA:359,3
DA:360,3
DA:361,3
DA:362,3
DA:363,3
DA:364,3
DA:365,3
DA:366,3
DA:367,3
DA:368,3
DA:369,3
DA:370,3
DA:371,3
DA:372,3
DA:373,3
DA:374,3
DA:375,3
DA:376,3
DA:377,3
DA:385,1
DA:386,1
DA:387,1
DA:388,0
DA:389,0
DA:392,1
DA:393,1
DA:396,1
DA:397,0
DA:398,0
DA:399,0
DA:402,0
DA:405,1
DA:406,0
DA:407,0
DA:408,0
DA:409,1
DA:412,1
DA:413,0
DA:414,0
DA:415,0
DA:416,1
DA:419,1
DA:420,0
DA:421,0
DA:422,0
DA:423,1
DA:424,2
DA:425,1
DA:428,1
DA:429,1
DA:430,0
DA:431,0
DA:433,1
DA:434,1
DA:435,1
DA:436,1
DA:437,1
DA:438,1
DA:439,1
DA:441,1
DA:442,0
DA:443,0
DA:447,1
DA:448,1
DA:449,1
DA:450,1
DA:451,0
DA:452,0
DA:453,0
DA:456,0
DA:457,1
DA:458,1
DA:459,1
DA:460,1
DA:461,0
DA:462,0
DA:463,0
DA:466,0
DA:469,1
DA:470,0
DA:471,0
DA:472,0
DA:475,0
DA:476,1
DA:477,0
DA:478,0
DA:479,0
DA:482,0
DA:484,1
DA:485,1
DA:488,1
DA:489,0
DA:490,0
DA:491,0
DA:494,0
DA:495,1
DA:498,1
DA:499,0
DA:500,0
DA:501,0
DA:504,0
DA:505,1
DA:506,0
DA:507,0
DA:508,0
DA:511,0
DA:512,1
DA:514,2
DA:515,1
DA:518,1
DA:519,1
DA:520,1
DA:521,0
DA:522,0
DA:523,0
DA:524,0
DA:526,0
DA:532,1
DA:533,1
DA:534,1
DA:535,1
DA:536,0
DA:537,0
DA:538,0
DA:539,0
DA:541,0
DA:544,6
DA:545,5
DA:546,0
DA:547,0
DA:548,0
DA:549,0
DA:551,0
DA:555,1
DA:556,0
DA:557,0
DA:558,0
DA:559,0
DA:561,0
DA:562,1
DA:563,2
DA:564,1
BRF:0
BRH:0
LF:288
LH:164
end_of_record
SF:/home/eastgate/Development/ecoPrimals/nestgate/code/crates/nestgate-core/src/cache/types.rs
FN:284,_RNCNvMs3_NtNtCserJaDiv4hKx_13nestgate_core5cache5typesNtB7_17EfficiencyMetrics18calculate_variances_0Bb_
FN:28,_RNvMNtNtCshPPI97q08o7_13nestgate_core5cache5typesNtNtNtB6_15canonical_types7storage11StorageTier19typical_access_time
FN:284,_RNCNvMs3_NtNtCshPPI97q08o7_13nestgate_core5cache5typesNtB7_17EfficiencyMetrics18calculate_variances_0Bb_
FN:16,_RNvMNtNtCshPPI97q08o7_13nestgate_core5cache5typesNtNtNtB6_15canonical_types7storage11StorageTier8priority
FN:150,_RNvMs1_NtNtCshPPI97q08o7_13nestgate_core5cache5typesNtB5_10CacheStats10record_hit
FN:156,_RNvMs1_NtNtCshPPI97q08o7_13nestgate_core5cache5typesNtB5_10CacheStats11record_miss
FN:133,_RNvMs1_NtNtCshPPI97q08o7_13nestgate_core5cache5typesNtB5_10CacheStats11total_items
FN:145,_RNvMs1_NtNtCshPPI97q08o7_13nestgate_core5cache5typesNtB5_10CacheStats15total_evictions
FN:139,_RNvMs1_NtNtCshPPI97q08o7_13nestgate_core5cache5typesNtB5_10CacheStats16total_size_bytes
FN:162,_RNvMs1_NtNtCshPPI97q08o7_13nestgate_core5cache5typesNtB5_10CacheStats18record_access_time
FN:122,_RNvMs1_NtNtCshPPI97q08o7_13nestgate_core5cache5typesNtB5_10CacheStats9hit_ratio
FN:205,_RNvMs3_NtNtCshPPI97q08o7_13nestgate_core5cache5typesNtB5_17EfficiencyMetrics10update_hit
FN:211,_RNvMs3_NtNtCshPPI97q08o7_13nestgate_core5cache5typesNtB5_17EfficiencyMetrics11update_miss
FN:216,_RNvMs3_NtNtCshPPI97q08o7_13nestgate_core5cache5typesNtB5_17EfficiencyMetrics13add_operation
FN:260,_RNvMs3_NtNtCshPPI97q08o7_13nestgate_core5cache5typesNtB5_17EfficiencyMetrics18calculate_variance
FN:223,_RNvMs3_NtNtCshPPI97q08o7_13nestgate_core5cache5typesNtB5_17EfficiencyMetrics19recalculate_metrics
FN:241,_RNvMs3_NtNtCshPPI97q08o7_13nestgate_core5cache5typesNtB5_17EfficiencyMetrics29calculate_effectiveness_score
FN:332,_RNvMs4_NtNtCshPPI97q08o7_13nestgate_core5cache5typesNtB5_10CacheEntry10is_expired
FN:349,_RNvMs4_NtNtCshPPI97q08o7_13nestgate_core5cache5typesNtB5_10CacheEntry3age
FN:315,_RNvMs4_NtNtCshPPI97q08o7_13nestgate_core5cache5typesNtB5_10CacheEntry3new
FN:342,_RNvMs4_NtNtCshPPI97q08o7_13nestgate_core5cache5typesNtB5_10CacheEntry5touch
FN:95,_RNvXs0_NtNtCshPPI97q08o7_13nestgate_core5cache5typesNtB5_10CacheStatsNtNtCs5GmCzIpY9Qj_4core7default7Default7default
FN:191,_RNvXs2_NtNtCshPPI97q08o7_13nestgate_core5cache5typesNtB5_17EfficiencyMetricsNtNtCs5GmCzIpY9Qj_4core7default7Default7default
FN:53,_RNvXs_NtNtCshPPI97q08o7_13nestgate_core5cache5typesNtB4_11CachePolicyNtNtCs5GmCzIpY9Qj_4core3fmt7Display3fmt
FN:28,_RNvMNtNtCserJaDiv4hKx_13nestgate_core5cache5typesNtNtNtB6_15canonical_types7storage11StorageTier19typical_access_time
FN:16,_RNvMNtNtCserJaDiv4hKx_13nestgate_core5cache5typesNtNtNtB6_15canonical_types7storage11StorageTier8priority
FNDA:0,_RNCNvMs3_NtNtCserJaDiv4hKx_13nestgate_core5cache5typesNtB7_17EfficiencyMetrics18calculate_variances_0Bb_
FNDA:3,_RNvMNtNtCshPPI97q08o7_13nestgate_core5cache5typesNtNtNtB6_15canonical_types7storage11StorageTier19typical_access_time
FNDA:0,_RNCNvMs3_NtNtCshPPI97q08o7_13nestgate_core5cache5typesNtB7_17EfficiencyMetrics18calculate_variances_0Bb_
FNDA:0,_RNvMNtNtCshPPI97q08o7_13nestgate_core5cache5typesNtNtNtB6_15canonical_types7storage11StorageTier8priority
FNDA:0,_RNvMs1_NtNtCshPPI97q08o7_13nestgate_core5cache5typesNtB5_10CacheStats10record_hit
FNDA:0,_RNvMs1_NtNtCshPPI97q08o7_13nestgate_core5cache5typesNtB5_10CacheStats11record_miss
FNDA:0,_RNvMs1_NtNtCshPPI97q08o7_13nestgate_core5cache5typesNtB5_10CacheStats11total_items
FNDA:0,_RNvMs1_NtNtCshPPI97q08o7_13nestgate_core5cache5typesNtB5_10CacheStats15total_evictions
FNDA:0,_RNvMs1_NtNtCshPPI97q08o7_13nestgate_core5cache5typesNtB5_10CacheStats16total_size_bytes
FNDA:0,_RNvMs1_NtNtCshPPI97q08o7_13nestgate_core5cache5typesNtB5_10CacheStats18record_access_time
FNDA:0,_RNvMs1_NtNtCshPPI97q08o7_13nestgate_core5cache5typesNtB5_10CacheStats9hit_ratio
FNDA:0,_RNvMs3_NtNtCshPPI97q08o7_13nestgate_core5cache5typesNtB5_17EfficiencyMetrics10update_hit
FNDA:0,_RNvMs3_NtNtCshPPI97q08o7_13nestgate_core5cache5typesNtB5_17EfficiencyMetrics11update_miss
FNDA:0,_RNvMs3_NtNtCshPPI97q08o7_13nestgate_core5cache5typesNtB5_17EfficiencyMetrics13add_operation
FNDA:0,_RNvMs3_NtNtCshPPI97q08o7_13nestgate_core5cache5typesNtB5_17EfficiencyMetrics18calculate_variance
FNDA:0,_RNvMs3_NtNtCshPPI97q08o7_13nestgate_core5cache5typesNtB5_17EfficiencyMetrics19recalculate_metrics
FNDA:0,_RNvMs3_NtNtCshPPI97q08o7_13nestgate_core5cache5typesNtB5_17EfficiencyMetrics29calculate_effectiveness_score
FNDA:0,_RNvMs4_NtNtCshPPI97q08o7_13nestgate_core5cache5typesNtB5_10CacheEntry10is_expired
FNDA:0,_RNvMs4_NtNtCshPPI97q08o7_13nestgate_core5cache5typesNtB5_10CacheEntry3age
FNDA:0,_RNvMs4_NtNtCshPPI97q08o7_13nestgate_core5cache5typesNtB5_10CacheEntry3new
FNDA:0,_RNvMs4_NtNtCshPPI97q08o7_13nestgate_core5cache5typesNtB5_10CacheEntry5touch
FNDA:1,_RNvXs0_NtNtCshPPI97q08o7_13nestgate_core5cache5typesNtB5_10CacheStatsNtNtCs5GmCzIpY9Qj_4core7default7Default7default
FNDA:1,_RNvXs2_NtNtCshPPI97q08o7_13nestgate_core5cache5typesNtB5_17EfficiencyMetricsNtNtCs5GmCzIpY9Qj_4core7default7Default7default
FNDA:2,_RNvXs_NtNtCshPPI97q08o7_13nestgate_core5cache5typesNtB4_11CachePolicyNtNtCs5GmCzIpY9Qj_4core3fmt7Display3fmt
FNDA:0,_RNvMNtNtCserJaDiv4hKx_13nestgate_core5cache5typesNtNtNtB6_15canonical_types7storage11StorageTier19typical_access_time
FNDA:0,_RNvMNtNtCserJaDiv4hKx_13nestgate_core5cache5typesNtNtNtB6_15canonical_types7storage11StorageTier8priority
FNF:23
FNH:4
DA:16,0
DA:17,0
DA:18,0
DA:19,0
DA:20,0
DA:21,0
DA:22,0
DA:24,0
DA:28,3
DA:29,3
DA:30,0
DA:31,1
DA:32,1
DA:33,1
DA:34,0
DA:36,3
DA:53,2
DA:54,2
DA:55,0
DA:56,0
DA:57,2
DA:58,0
DA:60,2
DA:95,1
DA:96,1
DA:97,1
DA:98,1
DA:99,1
DA:101,1
DA:102,1
DA:103,1
DA:104,1
DA:105,1
DA:106,1
DA:107,1
DA:108,1
DA:109,1
DA:110,1
DA:111,1
DA:112,1
DA:113,1
DA:114,1
DA:115,1
DA:116,1
DA:122,0
DA:123,0
DA:124,0
DA:125,0
DA:127,0
DA:129,0
DA:133,0
DA:134,0
DA:135,0
DA:139,0
DA:140,0
DA:141,0
DA:145,0
DA:146,0
DA:147,0
DA:150,0
DA:151,0
DA:152,0
DA:153,0
DA:156,0
DA:157,0
DA:158,0
DA:159,0
DA:162,0
DA:164,0
DA:165,0
DA:166,0
DA:167,0
DA:168,0
DA:169,0
DA:170,0
DA:171,0
DA:172,0
DA:191,1
DA:192,1
DA:193,1
DA:194,1
DA:195,1
DA:196,1
DA:197,1
DA:198,1
DA:199,1
DA:200,1
DA:205,0
DA:206,0
DA:207,0
DA:208,0
DA:211,0
DA:212,0
DA:213,0
DA:214,0
DA:216,0
DA:217,0
DA:218,0
DA:219,0
DA:220,0
DA:221,0
DA:223,0
DA:224,0
DA:225,0
DA:226,0
DA:229,0
DA:230,0
DA:233,0
DA:234,0
DA:235,0
DA:238,0
DA:239,0
DA:241,0
DA:243,0
DA:246,0
DA:247,0
DA:248,0
DA:249,0
DA:251,0
DA:254,0
DA:257,0
DA:258,0
DA:260,0
DA:261,0
DA:262,0
DA:263,0
DA:266,0
DA:267,0
DA:269,0
DA:270,0
DA:271,0
DA:272,0
DA:273,0
DA:274,0
DA:277,0
DA:278,0
DA:279,0
DA:281,0
DA:282,0
DA:283,0
DA:284,0
DA:285,0
DA:286,0
DA:288,0
DA:289,0
DA:315,0
DA:316,0
DA:317,0
DA:318,0
DA:319,0
DA:320,0
DA:321,0
DA:322,0
DA:323,0
DA:324,0
DA:325,0
DA:326,0
DA:327,0
DA:328,0
DA:332,0
DA:333,0
DA:334,0
DA:335,0
DA:337,0
DA:339,0
DA:342,0
DA:343,0
DA:344,0
DA:345,0
DA:349,0
DA:350,0
DA:351,0
BRF:0
BRH:0
LF:173
LH:41
end_of_record
SF:/home/eastgate/Development/ecoPrimals/nestgate/code/crates/nestgate-core/src/cache_math.rs
FN:37,_RNCNvNtCserJaDiv4hKx_13nestgate_core10cache_math26calculate_total_cache_size0B5_
FN:86,_RNvNtCserJaDiv4hKx_13nestgate_core10cache_math14is_at_max_size
FN:17,_RNvNtCserJaDiv4hKx_13nestgate_core10cache_math14needs_eviction
FN:72,_RNvNtCserJaDiv4hKx_13nestgate_core10cache_math17add_to_cache_size
FN:54,_RNvNtCserJaDiv4hKx_13nestgate_core10cache_math19calculate_hit_ratio
FN:43,_RNvNtCserJaDiv4hKx_13nestgate_core10cache_math23calculate_eviction_size
FN:79,_RNvNtCserJaDiv4hKx_13nestgate_core10cache_math24subtract_from_cache_size
FN:33,_RNvNtCserJaDiv4hKx_13nestgate_core10cache_math26calculate_total_cache_size
FN:113,_RNvNtCserJaDiv4hKx_13nestgate_core10cache_math32calculate_optimal_eviction_count
FN:97,_RNvNtCserJaDiv4hKx_13nestgate_core10cache_math34calculate_pool_expansion_threshold
FN:235,_RNvNtNtCshPPI97q08o7_13nestgate_core10cache_math5testss_31test_eviction_count_calculation
FN:250,_RNvNtNtCshPPI97q08o7_13nestgate_core10cache_math5testss_31test_integration_cache_workflow
FN:191,_RNvNtNtCshPPI97q08o7_13nestgate_core10cache_math5testss_32test_cache_size_update_mutations
FN:174,_RNvNtNtCshPPI97q08o7_13nestgate_core10cache_math5testss_33test_hit_ratio_division_precision
FN:208,_RNvNtNtCshPPI97q08o7_13nestgate_core10cache_math5testss_34test_max_size_threshold_comparison
FN:162,_RNvNtNtCshPPI97q08o7_13nestgate_core10cache_math5testss_36test_eviction_size_calculation_exact
FN:144,_RNvNtNtCshPPI97q08o7_13nestgate_core10cache_math5testss_37test_total_size_calculation_precision
FN:276,_RNvNtNtCshPPI97q08o7_13nestgate_core10cache_math5testss_39test_statistics_calculation_integration
FN:220,_RNvNtNtCshPPI97q08o7_13nestgate_core10cache_math5testss_41test_pool_expansion_threshold_calculation
FN:129,_RNvNtNtCshPPI97q08o7_13nestgate_core10cache_math5testss_42test_eviction_decision_boundary_conditions
FN:37,_RNCNvNtCshPPI97q08o7_13nestgate_core10cache_math26calculate_total_cache_size0B5_
FN:86,_RNvNtCshPPI97q08o7_13nestgate_core10cache_math14is_at_max_size
FN:17,_RNvNtCshPPI97q08o7_13nestgate_core10cache_math14needs_eviction
FN:72,_RNvNtCshPPI97q08o7_13nestgate_core10cache_math17add_to_cache_size
FN:54,_RNvNtCshPPI97q08o7_13nestgate_core10cache_math19calculate_hit_ratio
FN:43,_RNvNtCshPPI97q08o7_13nestgate_core10cache_math23calculate_eviction_size
FN:79,_RNvNtCshPPI97q08o7_13nestgate_core10cache_math24subtract_from_cache_size
FN:33,_RNvNtCshPPI97q08o7_13nestgate_core10cache_math26calculate_total_cache_size
FN:113,_RNvNtCshPPI97q08o7_13nestgate_core10cache_math32calculate_optimal_eviction_count
FN:97,_RNvNtCshPPI97q08o7_13nestgate_core10cache_math34calculate_pool_expansion_threshold
FNDA:0,_RNCNvNtCserJaDiv4hKx_13nestgate_core10cache_math26calculate_total_cache_size0B5_
FNDA:0,_RNvNtCserJaDiv4hKx_13nestgate_core10cache_math14is_at_max_size
FNDA:0,_RNvNtCserJaDiv4hKx_13nestgate_core10cache_math14needs_eviction
FNDA:0,_RNvNtCserJaDiv4hKx_13nestgate_core10cache_math17add_to_cache_size
FNDA:0,_RNvNtCserJaDiv4hKx_13nestgate_core10cache_math19calculate_hit_ratio
FNDA:0,_RNvNtCserJaDiv4hKx_13nestgate_core10cache_math23calculate_eviction_size
FNDA:0,_RNvNtCserJaDiv4hKx_13nestgate_core10cache_math24subtract_from_cache_size
FNDA:0,_RNvNtCserJaDiv4hKx_13nestgate_core10cache_math26calculate_total_cache_size
FNDA:0,_RNvNtCserJaDiv4hKx_13nestgate_core10cache_math32calculate_optimal_eviction_count
FNDA:0,_RNvNtCserJaDiv4hKx_13nestgate_core10cache_math34calculate_pool_expansion_threshold
FNDA:1,_RNvNtNtCshPPI97q08o7_13nestgate_core10cache_math5testss_31test_eviction_count_calculation
FNDA:1,_RNvNtNtCshPPI97q08o7_13nestgate_core10cache_math5testss_31test_integration_cache_workflow
FNDA:1,_RNvNtNtCshPPI97q08o7_13nestgate_core10cache_math5testss_32test_cache_size_update_mutations
FNDA:1,_RNvNtNtCshPPI97q08o7_13nestgate_core10cache_math5testss_33test_hit_ratio_division_precision
FNDA:1,_RNvNtNtCshPPI97q08o7_13nestgate_core10cache_math5testss_34test_max_size_threshold_comparison
FNDA:1,_RNvNtNtCshPPI97q08o7_13nestgate_core10cache_math5testss_36test_eviction_size_calculation_exact
FNDA:1,_RNvNtNtCshPPI97q08o7_13nestgate_core10cache_math5testss_37test_total_size_calculation_precision
FNDA:1,_RNvNtNtCshPPI97q08o7_13nestgate_core10cache_math5testss_39test_statistics_calculation_integration
FNDA:1,_RNvNtNtCshPPI97q08o7_13nestgate_core10cache_math5testss_41test_pool_expansion_threshold_calculation
FNDA:1,_RNvNtNtCshPPI97q08o7_13nestgate_core10cache_math5testss_42test_eviction_decision_boundary_conditions
FNDA:9,_RNCNvNtCshPPI97q08o7_13nestgate_core10cache_math26calculate_total_cache_size0B5_
FNDA:6,_RNvNtCshPPI97q08o7_13nestgate_core10cache_math14is_at_max_size
FNDA:7,_RNvNtCshPPI97q08o7_13nestgate_core10cache_math14needs_eviction
FNDA:6,_RNvNtCshPPI97q08o7_13nestgate_core10cache_math17add_to_cache_size
FNDA:7,_RNvNtCshPPI97q08o7_13nestgate_core10cache_math19calculate_hit_ratio
FNDA:6,_RNvNtCshPPI97q08o7_13nestgate_core10cache_math23calculate_eviction_size
FNDA:5,_RNvNtCshPPI97q08o7_13nestgate_core10cache_math24subtract_from_cache_size
FNDA:4,_RNvNtCshPPI97q08o7_13nestgate_core10cache_math26calculate_total_cache_size
FNDA:6,_RNvNtCshPPI97q08o7_13nestgate_core10cache_math32calculate_optimal_eviction_count
FNDA:6,_RNvNtCshPPI97q08o7_13nestgate_core10cache_math34calculate_pool_expansion_threshold
FNF:20
FNH:20
DA:17,7
DA:18,7
DA:19,1
DA:20,6
DA:22,6
DA:23,0
DA:24,6
DA:26,6
DA:27,7
DA:33,4
DA:35,4
DA:36,4
DA:37,9
DA:38,4
DA:43,6
DA:44,6
DA:45,2
DA:46,4
DA:47,4
DA:48,6
DA:54,7
DA:56,7
DA:57,0
DA:58,7
DA:60,7
DA:61,7
DA:62,1
DA:64,6
DA:66,7
DA:72,6
DA:73,6
DA:74,6
DA:79,5
DA:80,5
DA:81,5
DA:86,6
DA:87,6
DA:88,2
DA:89,4
DA:90,4
DA:91,6
DA:97,6
DA:98,6
DA:99,6
DA:100,6
DA:101,6
DA:102,6
DA:103,1
DA:104,5
DA:105,5
DA:106,5
DA:107,6
DA:113,6
DA:114,6
DA:115,1
DA:116,5
DA:117,5
DA:118,5
DA:119,6
DA:129,1
DA:131,1
DA:132,1
DA:133,1
DA:136,1
DA:139,1
DA:140,1
DA:141,1
DA:144,1
DA:146,1
DA:147,1
DA:150,1
DA:153,1
DA:156,1
DA:157,1
DA:158,1
DA:159,1
DA:162,1
DA:164,1
DA:165,1
DA:166,1
DA:169,1
DA:170,1
DA:171,1
DA:174,1
DA:176,1
DA:177,1
DA:178,1
DA:181,1
DA:184,1
DA:187,1
DA:188,1
DA:191,1
DA:193,1
DA:194,1
DA:197,1
DA:200,1
DA:201,1
DA:204,1
DA:205,1
DA:208,1
DA:210,1
DA:211,1
DA:212,1
DA:215,1
DA:216,1
DA:217,1
DA:220,1
DA:222,1
DA:223,1
DA:224,1
DA:227,1
DA:228,1
DA:231,1
DA:232,1
DA:235,1
DA:237,1
DA:238,1
DA:239,1
DA:242,1
DA:243,1
DA:246,1
DA:247,1
DA:250,1
DA:252,1
DA:253,1
DA:254,1
DA:257,1
DA:260,1
DA:261,1
DA:264,1
DA:265,1
DA:268,1
DA:269,1
DA:272,1
DA:273,1
DA:276,1
DA:278,1
DA:279,1
DA:280,1
DA:281,1
DA:284,1
DA:285,1
DA:286,1
DA:287,1
DA:288,1
DA:289,1
BRF:0
BRH:0
LF:147
LH:145
end_of_record
SF:/home/eastgate/Development/ecoPrimals/nestgate/code/crates/nestgate-core/src/canonical/types/config_registry.rs
FN:670,_RNvMs3_NtNtNtCshPPI97q08o7_13nestgate_core9canonical5types15config_registryNtB5_27CanonicalConfigTypeRegistry12legacy_types
FN:686,_RNvMs3_NtNtNtCshPPI97q08o7_13nestgate_core9canonical5types15config_registryNtB5_27CanonicalConfigTypeRegistry14is_legacy_type
FN:652,_RNvMs3_NtNtNtCshPPI97q08o7_13nestgate_core9canonical5types15config_registryNtB5_27CanonicalConfigTypeRegistry14network_config
FN:646,_RNvMs3_NtNtNtCshPPI97q08o7_13nestgate_core9canonical5types15config_registryNtB5_27CanonicalConfigTypeRegistry14storage_config
FN:658,_RNvMs3_NtNtNtCshPPI97q08o7_13nestgate_core9canonical5types15config_registryNtB5_27CanonicalConfigTypeRegistry15security_config
FN:664,_RNvMs3_NtNtNtCshPPI97q08o7_13nestgate_core9canonical5types15config_registryNtB5_27CanonicalConfigTypeRegistry17monitoring_config
FN:138,_RNvXNtNtNtCshPPI97q08o7_13nestgate_core9canonical5types15config_registryNtB2_18StorageBackendTypeNtNtCs5GmCzIpY9Qj_4core7default7Default7default
FN:206,_RNvXs0_NtNtNtCshPPI97q08o7_13nestgate_core9canonical5types15config_registryNtB5_26ConflictResolutionStrategyNtNtCs5GmCzIpY9Qj_4core7default7Default7default
FN:400,_RNvXs1_NtNtNtCshPPI97q08o7_13nestgate_core9canonical5types15config_registryNtB5_21LoadBalancingStrategyNtNtCs5GmCzIpY9Qj_4core7default7Default7default
FN:432,_RNvXs2_NtNtNtCshPPI97q08o7_13nestgate_core9canonical5types15config_registryNtB5_22ServiceDiscoveryMethodNtNtCs5GmCzIpY9Qj_4core7default7Default7default
FN:192,_RNvXs_NtNtNtCshPPI97q08o7_13nestgate_core9canonical5types15config_registryNtB4_19ReplicationSyncModeNtNtCs5GmCzIpY9Qj_4core7default7Default7default
FNDA:0,_RNvMs3_NtNtNtCshPPI97q08o7_13nestgate_core9canonical5types15config_registryNtB5_27CanonicalConfigTypeRegistry12legacy_types
FNDA:0,_RNvMs3_NtNtNtCshPPI97q08o7_13nestgate_core9canonical5types15config_registryNtB5_27CanonicalConfigTypeRegistry14is_legacy_type
FNDA:0,_RNvMs3_NtNtNtCshPPI97q08o7_13nestgate_core9canonical5types15config_registryNtB5_27CanonicalConfigTypeRegistry14network_config
FNDA:0,_RNvMs3_NtNtNtCshPPI97q08o7_13nestgate_core9canonical5types15config_registryNtB5_27CanonicalConfigTypeRegistry14storage_config
FNDA:0,_RNvMs3_NtNtNtCshPPI97q08o7_13nestgate_core9canonical5types15config_registryNtB5_27CanonicalConfigTypeRegistry15security_config
FNDA:0,_RNvMs3_NtNtNtCshPPI97q08o7_13nestgate_core9canonical5types15config_registryNtB5_27CanonicalConfigTypeRegistry17monitoring_config
FNDA:0,_RNvXNtNtNtCshPPI97q08o7_13nestgate_core9canonical5types15config_registryNtB2_18StorageBackendTypeNtNtCs5GmCzIpY9Qj_4core7default7Default7default
FNDA:0,_RNvXs0_NtNtNtCshPPI97q08o7_13nestgate_core9canonical5types15config_registryNtB5_26ConflictResolutionStrategyNtNtCs5GmCzIpY9Qj_4core7default7Default7default
FNDA:0,_RNvXs1_NtNtNtCshPPI97q08o7_13nestgate_core9canonical5types15config_registryNtB5_21LoadBalancingStrategyNtNtCs5GmCzIpY9Qj_4core7default7Default7default
FNDA:0,_RNvXs2_NtNtNtCshPPI97q08o7_13nestgate_core9canonical5types15config_registryNtB5_22ServiceDiscoveryMethodNtNtCs5GmCzIpY9Qj_4core7default7Default7default
FNDA:0,_RNvXs_NtNtNtCshPPI97q08o7_13nestgate_core9canonical5types15config_registryNtB4_19ReplicationSyncModeNtNtCs5GmCzIpY9Qj_4core7default7Default7default
FNF:11
FNH:0
DA:138,0
DA:139,0
DA:140,0
DA:192,0
DA:193,0
DA:194,0
DA:206,0
DA:207,0
DA:208,0
DA:400,0
DA:401,0
DA:402,0
DA:432,0
DA:433,0
DA:434,0
DA:646,0
DA:647,0
DA:648,0
DA:652,0
DA:653,0
DA:654,0
DA:658,0
DA:659,0
DA:660,0
DA:664,0
DA:665,0
DA:666,0
DA:670,0
DA:671,0
DA:672,0
DA:673,0
DA:674,0
DA:675,0
DA:676,0
DA:677,0
DA:678,0
DA:679,0
DA:682,0
DA:686,0
DA:687,0
DA:688,0
BRF:0
BRH:0
LF:41
LH:0
end_of_record
SF:/home/eastgate/Development/ecoPrimals/nestgate/code/crates/nestgate-core/src/canonical/types/core_types.rs
FN:166,_RNCNvXNtNtNtCshPPI97q08o7_13nestgate_core9canonical5types10core_typesNtB4_11ServiceInfoNtNtCs5GmCzIpY9Qj_4core7default7Default7default0Ba_
FN:160,_RNvXNtNtNtCshPPI97q08o7_13nestgate_core9canonical5types10core_typesNtB2_11ServiceInfoNtNtCs5GmCzIpY9Qj_4core7default7Default7default
FN:184,_RNvXs0_NtNtNtCshPPI97q08o7_13nestgate_core9canonical5types10core_typesNtB5_9AlertRuleNtNtCs5GmCzIpY9Qj_4core7default7Default7default
FN:196,_RNvXs1_NtNtNtCshPPI97q08o7_13nestgate_core9canonical5types10core_typesNtB5_5AlertNtNtCs5GmCzIpY9Qj_4core7default7Default7default
FN:209,_RNvXs2_NtNtNtCshPPI97q08o7_13nestgate_core9canonical5types10core_typesNtB5_12AlertChannelNtNtCs5GmCzIpY9Qj_4core7default7Default7default
FN:220,_RNvXs3_NtNtNtCshPPI97q08o7_13nestgate_core9canonical5types10core_typesNtB5_15SuppressionRuleNtNtCs5GmCzIpY9Qj_4core7default7Default7default
FN:232,_RNvXs4_NtNtNtCshPPI97q08o7_13nestgate_core9canonical5types10core_typesNtB5_11HealthCheckNtNtCs5GmCzIpY9Qj_4core7default7Default7default
FN:174,_RNvXs_NtNtNtCshPPI97q08o7_13nestgate_core9canonical5types10core_typesNtB4_12EventHandlerNtNtCs5GmCzIpY9Qj_4core7default7Default7default
FNDA:0,_RNCNvXNtNtNtCshPPI97q08o7_13nestgate_core9canonical5types10core_typesNtB4_11ServiceInfoNtNtCs5GmCzIpY9Qj_4core7default7Default7default0Ba_
FNDA:0,_RNvXNtNtNtCshPPI97q08o7_13nestgate_core9canonical5types10core_typesNtB2_11ServiceInfoNtNtCs5GmCzIpY9Qj_4core7default7Default7default
FNDA:0,_RNvXs0_NtNtNtCshPPI97q08o7_13nestgate_core9canonical5types10core_typesNtB5_9AlertRuleNtNtCs5GmCzIpY9Qj_4core7default7Default7default
FNDA:0,_RNvXs1_NtNtNtCshPPI97q08o7_13nestgate_core9canonical5types10core_typesNtB5_5AlertNtNtCs5GmCzIpY9Qj_4core7default7Default7default
FNDA:0,_RNvXs2_NtNtNtCshPPI97q08o7_13nestgate_core9canonical5types10core_typesNtB5_12AlertChannelNtNtCs5GmCzIpY9Qj_4core7default7Default7default
FNDA:0,_RNvXs3_NtNtNtCshPPI97q08o7_13nestgate_core9canonical5types10core_typesNtB5_15SuppressionRuleNtNtCs5GmCzIpY9Qj_4core7default7Default7default
FNDA:0,_RNvXs4_NtNtNtCshPPI97q08o7_13nestgate_core9canonical5types10core_typesNtB5_11HealthCheckNtNtCs5GmCzIpY9Qj_4core7default7Default7default
FNDA:0,_RNvXs_NtNtNtCshPPI97q08o7_13nestgate_core9canonical5types10core_typesNtB4_12EventHandlerNtNtCs5GmCzIpY9Qj_4core7default7Default7default
FNF:8
FNH:0
DA:160,0
DA:162,0
DA:163,0
DA:164,0
DA:165,0
DA:166,0
DA:167,0
DA:168,0
DA:170,0
DA:174,0
DA:175,0
DA:176,0
DA:177,0
DA:178,0
DA:179,0
DA:180,0
DA:184,0
DA:185,0
DA:186,0
DA:187,0
DA:188,0
DA:189,0
DA:190,0
DA:191,0
DA:192,0
DA:196,0
DA:197,0
DA:198,0
DA:199,0
DA:200,0
DA:201,0
DA:202,0
DA:203,0
DA:204,0
DA:205,0
DA:209,0
DA:210,0
DA:211,0
DA:212,0
DA:213,0
DA:214,0
DA:215,0
DA:216,0
DA:220,0
DA:221,0
DA:222,0
DA:223,0
DA:224,0
DA:225,0
DA:226,0
DA:227,0
DA:228,0
DA:232,0
DA:233,0
DA:234,0
DA:235,0
DA:236,0
DA:237,0
DA:238,0
DA:239,0
DA:240,0
DA:241,0
BRF:0
BRH:0
LF:63
LH:0
end_of_record
SF:/home/eastgate/Development/ecoPrimals/nestgate/code/crates/nestgate-core/src/canonical_modernization/builders.rs
FN:36,_RINvMNtNtCserJaDiv4hKx_13nestgate_core23canonical_modernization8buildersNtB3_22CanonicalConfigBuilder12service_namepEB7_
FN:59,_RNvMNtNtCserJaDiv4hKx_13nestgate_core23canonical_modernization8buildersNtB2_22CanonicalConfigBuilder10enable_tls
FN:43,_RNvMNtNtCserJaDiv4hKx_13nestgate_core23canonical_modernization8buildersNtB2_22CanonicalConfigBuilder11environment
FN:17,_RNvMNtNtCserJaDiv4hKx_13nestgate_core23canonical_modernization8buildersNtB2_22CanonicalConfigBuilder3new
FN:28,_RNvMNtNtCserJaDiv4hKx_13nestgate_core23canonical_modernization8buildersNtB2_22CanonicalConfigBuilder5build
FN:50,_RNvMNtNtCserJaDiv4hKx_13nestgate_core23canonical_modernization8buildersNtB2_22CanonicalConfigBuilder8api_port
FN:68,_RNvXs_NtNtCserJaDiv4hKx_13nestgate_core23canonical_modernization8buildersNtB4_22CanonicalConfigBuilderNtNtCs5GmCzIpY9Qj_4core7default7Default7default
FN:36,_RINvMNtNtCshPPI97q08o7_13nestgate_core23canonical_modernization8buildersNtB3_22CanonicalConfigBuilder12service_namepEB7_
FN:59,_RNvMNtNtCshPPI97q08o7_13nestgate_core23canonical_modernization8buildersNtB2_22CanonicalConfigBuilder10enable_tls
FN:43,_RNvMNtNtCshPPI97q08o7_13nestgate_core23canonical_modernization8buildersNtB2_22CanonicalConfigBuilder11environment
FN:17,_RNvMNtNtCshPPI97q08o7_13nestgate_core23canonical_modernization8buildersNtB2_22CanonicalConfigBuilder3new
FN:28,_RNvMNtNtCshPPI97q08o7_13nestgate_core23canonical_modernization8buildersNtB2_22CanonicalConfigBuilder5build
FN:50,_RNvMNtNtCshPPI97q08o7_13nestgate_core23canonical_modernization8buildersNtB2_22CanonicalConfigBuilder8api_port
FN:77,_RNvMs0_NtNtCshPPI97q08o7_13nestgate_core23canonical_modernization8buildersNtNtNtB9_6config16canonical_master23NestGateCanonicalConfig14default_config
FN:68,_RNvXs_NtNtCshPPI97q08o7_13nestgate_core23canonical_modernization8buildersNtB4_22CanonicalConfigBuilderNtNtCs5GmCzIpY9Qj_4core7default7Default7default
FNDA:0,_RINvMNtNtCserJaDiv4hKx_13nestgate_core23canonical_modernization8buildersNtB3_22CanonicalConfigBuilder12service_namepEB7_
FNDA:0,_RNvMNtNtCserJaDiv4hKx_13nestgate_core23canonical_modernization8buildersNtB2_22CanonicalConfigBuilder10enable_tls
FNDA:0,_RNvMNtNtCserJaDiv4hKx_13nestgate_core23canonical_modernization8buildersNtB2_22CanonicalConfigBuilder11environment
FNDA:0,_RNvMNtNtCserJaDiv4hKx_13nestgate_core23canonical_modernization8buildersNtB2_22CanonicalConfigBuilder3new
FNDA:0,_RNvMNtNtCserJaDiv4hKx_13nestgate_core23canonical_modernization8buildersNtB2_22CanonicalConfigBuilder5build
FNDA:0,_RNvMNtNtCserJaDiv4hKx_13nestgate_core23canonical_modernization8buildersNtB2_22CanonicalConfigBuilder8api_port
FNDA:0,_RNvXs_NtNtCserJaDiv4hKx_13nestgate_core23canonical_modernization8buildersNtB4_22CanonicalConfigBuilderNtNtCs5GmCzIpY9Qj_4core7default7Default7default
FNDA:0,_RINvMNtNtCshPPI97q08o7_13nestgate_core23canonical_modernization8buildersNtB3_22CanonicalConfigBuilder12service_namepEB7_
FNDA:0,_RNvMNtNtCshPPI97q08o7_13nestgate_core23canonical_modernization8buildersNtB2_22CanonicalConfigBuilder10enable_tls
FNDA:0,_RNvMNtNtCshPPI97q08o7_13nestgate_core23canonical_modernization8buildersNtB2_22CanonicalConfigBuilder11environment
FNDA:0,_RNvMNtNtCshPPI97q08o7_13nestgate_core23canonical_modernization8buildersNtB2_22CanonicalConfigBuilder3new
FNDA:0,_RNvMNtNtCshPPI97q08o7_13nestgate_core23canonical_modernization8buildersNtB2_22CanonicalConfigBuilder5build
FNDA:0,_RNvMNtNtCshPPI97q08o7_13nestgate_core23canonical_modernization8buildersNtB2_22CanonicalConfigBuilder8api_port
FNDA:0,_RNvMs0_NtNtCshPPI97q08o7_13nestgate_core23canonical_modernization8buildersNtNtNtB9_6config16canonical_master23NestGateCanonicalConfig14default_config
FNDA:0,_RNvXs_NtNtCshPPI97q08o7_13nestgate_core23canonical_modernization8buildersNtB4_22CanonicalConfigBuilderNtNtCs5GmCzIpY9Qj_4core7default7Default7default
FNF:8
FNH:0
DA:17,0
DA:18,0
DA:19,0
DA:20,0
DA:21,0
DA:28,0
DA:31,0
DA:32,0
DA:36,0
DA:37,0
DA:38,0
DA:39,0
DA:43,0
DA:44,0
DA:45,0
DA:46,0
DA:50,0
DA:54,0
DA:55,0
DA:59,0
DA:63,0
DA:64,0
DA:68,0
DA:69,0
DA:70,0
DA:77,0
DA:78,0
DA:79,0
BRF:0
BRH:0
LF:28
LH:0
end_of_record
SF:/home/eastgate/Development/ecoPrimals/nestgate/code/crates/nestgate-core/src/canonical_modernization/idiomatic_evolution/builders.rs
FN:25,_RNvMNtNtNtCserJaDiv4hKx_13nestgate_core23canonical_modernization19idiomatic_evolution8buildersINtB2_22IdiomaticConfigBuilderpE13with_metadataB8_
FN:17,_RNvMNtNtNtCserJaDiv4hKx_13nestgate_core23canonical_modernization19idiomatic_evolution8buildersINtB2_22IdiomaticConfigBuilderpE3newB8_
FN:62,_RNvMs0_NtNtNtCserJaDiv4hKx_13nestgate_core23canonical_modernization19idiomatic_evolution8buildersINtB5_18SmartConfigBuilderpE19apply_modernizationBb_
FN:56,_RNvMs0_NtNtNtCserJaDiv4hKx_13nestgate_core23canonical_modernization19idiomatic_evolution8buildersINtB5_18SmartConfigBuilderpE23with_evolution_metadataBb_
FN:47,_RNvMs0_NtNtNtCserJaDiv4hKx_13nestgate_core23canonical_modernization19idiomatic_evolution8buildersINtB5_18SmartConfigBuilderpE3newBb_
FN:93,_RNvMs2_NtNtNtCserJaDiv4hKx_13nestgate_core23canonical_modernization19idiomatic_evolution8buildersINtB5_21EvolutionAwareBuilderpE19check_compatibilityBb_
FN:99,_RNvMs2_NtNtNtCserJaDiv4hKx_13nestgate_core23canonical_modernization19idiomatic_evolution8buildersINtB5_21EvolutionAwareBuilderpE20with_evolution_scoreBb_
FN:84,_RNvMs2_NtNtNtCserJaDiv4hKx_13nestgate_core23canonical_modernization19idiomatic_evolution8buildersINtB5_21EvolutionAwareBuilderpE3newBb_
FN:128,_RNvMs4_NtNtNtCserJaDiv4hKx_13nestgate_core23canonical_modernization19idiomatic_evolution8buildersINtB5_16CanonicalBuilderpE24apply_canonical_patternsBb_
FN:120,_RNvMs4_NtNtNtCserJaDiv4hKx_13nestgate_core23canonical_modernization19idiomatic_evolution8buildersINtB5_16CanonicalBuilderpE3newBb_
FN:165,_RNvMs6_NtNtNtCserJaDiv4hKx_13nestgate_core23canonical_modernization19idiomatic_evolution8buildersINtB5_20ModernizationBuilderpE15enable_rollbackBb_
FN:159,_RNvMs6_NtNtNtCserJaDiv4hKx_13nestgate_core23canonical_modernization19idiomatic_evolution8buildersINtB5_20ModernizationBuilderpE22add_modernization_stepBb_
FN:150,_RNvMs6_NtNtNtCserJaDiv4hKx_13nestgate_core23canonical_modernization19idiomatic_evolution8buildersINtB5_20ModernizationBuilderpE3newBb_
FN:69,_RNvXININtNtNtCserJaDiv4hKx_13nestgate_core23canonical_modernization19idiomatic_evolution8builderss1_0pEINtB5_18SmartConfigBuilderpENtNtCs5GmCzIpY9Qj_4core7default7Default7defaultBb_
FN:106,_RNvXININtNtNtCserJaDiv4hKx_13nestgate_core23canonical_modernization19idiomatic_evolution8builderss3_0pEINtB5_21EvolutionAwareBuilderpENtNtCs5GmCzIpY9Qj_4core7default7Default7defaultBb_
FN:135,_RNvXININtNtNtCserJaDiv4hKx_13nestgate_core23canonical_modernization19idiomatic_evolution8builderss5_0pEINtB5_16CanonicalBuilderpENtNtCs5GmCzIpY9Qj_4core7default7Default7defaultBb_
FN:172,_RNvXININtNtNtCserJaDiv4hKx_13nestgate_core23canonical_modernization19idiomatic_evolution8builderss7_0pEINtB5_20ModernizationBuilderpENtNtCs5GmCzIpY9Qj_4core7default7Default7defaultBb_
FN:32,_RNvXININtNtNtCserJaDiv4hKx_13nestgate_core23canonical_modernization19idiomatic_evolution8builderss_0pEINtB5_22IdiomaticConfigBuilderpENtNtCs5GmCzIpY9Qj_4core7default7Default7defaultBb_
FN:25,_RNvMNtNtNtCshPPI97q08o7_13nestgate_core23canonical_modernization19idiomatic_evolution8buildersINtB2_22IdiomaticConfigBuilderpE13with_metadataB8_
FN:17,_RNvMNtNtNtCshPPI97q08o7_13nestgate_core23canonical_modernization19idiomatic_evolution8buildersINtB2_22IdiomaticConfigBuilderpE3newB8_
FN:62,_RNvMs0_NtNtNtCshPPI97q08o7_13nestgate_core23canonical_modernization19idiomatic_evolution8buildersINtB5_18SmartConfigBuilderpE19apply_modernizationBb_
FN:56,_RNvMs0_NtNtNtCshPPI97q08o7_13nestgate_core23canonical_modernization19idiomatic_evolution8buildersINtB5_18SmartConfigBuilderpE23with_evolution_metadataBb_
FN:47,_RNvMs0_NtNtNtCshPPI97q08o7_13nestgate_core23canonical_modernization19idiomatic_evolution8buildersINtB5_18SmartConfigBuilderpE3newBb_
FN:93,_RNvMs2_NtNtNtCshPPI97q08o7_13nestgate_core23canonical_modernization19idiomatic_evolution8buildersINtB5_21EvolutionAwareBuilderpE19check_compatibilityBb_
FN:99,_RNvMs2_NtNtNtCshPPI97q08o7_13nestgate_core23canonical_modernization19idiomatic_evolution8buildersINtB5_21EvolutionAwareBuilderpE20with_evolution_scoreBb_
FN:84,_RNvMs2_NtNtNtCshPPI97q08o7_13nestgate_core23canonical_modernization19idiomatic_evolution8buildersINtB5_21EvolutionAwareBuilderpE3newBb_
FN:128,_RNvMs4_NtNtNtCshPPI97q08o7_13nestgate_core23canonical_modernization19idiomatic_evolution8buildersINtB5_16CanonicalBuilderpE24apply_canonical_patternsBb_
FN:120,_RNvMs4_NtNtNtCshPPI97q08o7_13nestgate_core23canonical_modernization19idiomatic_evolution8buildersINtB5_16CanonicalBuilderpE3newBb_
FN:165,_RNvMs6_NtNtNtCshPPI97q08o7_13nestgate_core23canonical_modernization19idiomatic_evolution8buildersINtB5_20ModernizationBuilderpE15enable_rollbackBb_
FN:159,_RNvMs6_NtNtNtCshPPI97q08o7_13nestgate_core23canonical_modernization19idiomatic_evolution8buildersINtB5_20ModernizationBuilderpE22add_modernization_stepBb_
FN:150,_RNvMs6_NtNtNtCshPPI97q08o7_13nestgate_core23canonical_modernization19idiomatic_evolution8buildersINtB5_20ModernizationBuilderpE3newBb_
FN:69,_RNvXININtNtNtCshPPI97q08o7_13nestgate_core23canonical_modernization19idiomatic_evolution8builderss1_0pEINtB5_18SmartConfigBuilderpENtNtCs5GmCzIpY9Qj_4core7default7Default7defaultBb_
FN:106,_RNvXININtNtNtCshPPI97q08o7_13nestgate_core23canonical_modernization19idiomatic_evolution8builderss3_0pEINtB5_21EvolutionAwareBuilderpENtNtCs5GmCzIpY9Qj_4core7default7Default7defaultBb_
FN:135,_RNvXININtNtNtCshPPI97q08o7_13nestgate_core23canonical_modernization19idiomatic_evolution8builderss5_0pEINtB5_16CanonicalBuilderpENtNtCs5GmCzIpY9Qj_4core7default7Default7defaultBb_
FN:172,_RNvXININtNtNtCshPPI97q08o7_13nestgate_core23canonical_modernization19idiomatic_evolution8builderss7_0pEINtB5_20ModernizationBuilderpENtNtCs5GmCzIpY9Qj_4core7default7Default7defaultBb_
FN:32,_RNvXININtNtNtCshPPI97q08o7_13nestgate_core23canonical_modernization19idiomatic_evolution8builderss_0pEINtB5_22IdiomaticConfigBuilderpENtNtCs5GmCzIpY9Qj_4core7default7Default7defaultBb_
FNDA:0,_RNvMNtNtNtCserJaDiv4hKx_13nestgate_core23canonical_modernization19idiomatic_evolution8buildersINtB2_22IdiomaticConfigBuilderpE13with_metadataB8_
FNDA:0,_RNvMNtNtNtCserJaDiv4hKx_13nestgate_core23canonical_modernization19idiomatic_evolution8buildersINtB2_22IdiomaticConfigBuilderpE3newB8_
FNDA:0,_RNvMs0_NtNtNtCserJaDiv4hKx_13nestgate_core23canonical_modernization19idiomatic_evolution8buildersINtB5_18SmartConfigBuilderpE19apply_modernizationBb_
FNDA:0,_RNvMs0_NtNtNtCserJaDiv4hKx_13nestgate_core23canonical_modernization19idiomatic_evolution8buildersINtB5_18SmartConfigBuilderpE23with_evolution_metadataBb_
FNDA:0,_RNvMs0_NtNtNtCserJaDiv4hKx_13nestgate_core23canonical_modernization19idiomatic_evolution8buildersINtB5_18SmartConfigBuilderpE3newBb_
FNDA:0,_RNvMs2_NtNtNtCserJaDiv4hKx_13nestgate_core23canonical_modernization19idiomatic_evolution8buildersINtB5_21EvolutionAwareBuilderpE19check_compatibilityBb_
FNDA:0,_RNvMs2_NtNtNtCserJaDiv4hKx_13nestgate_core23canonical_modernization19idiomatic_evolution8buildersINtB5_21EvolutionAwareBuilderpE20with_evolution_scoreBb_
FNDA:0,_RNvMs2_NtNtNtCserJaDiv4hKx_13nestgate_core23canonical_modernization19idiomatic_evolution8buildersINtB5_21EvolutionAwareBuilderpE3newBb_
FNDA:0,_RNvMs4_NtNtNtCserJaDiv4hKx_13nestgate_core23canonical_modernization19idiomatic_evolution8buildersINtB5_16CanonicalBuilderpE24apply_canonical_patternsBb_
FNDA:0,_RNvMs4_NtNtNtCserJaDiv4hKx_13nestgate_core23canonical_modernization19idiomatic_evolution8buildersINtB5_16CanonicalBuilderpE3newBb_
FNDA:0,_RNvMs6_NtNtNtCserJaDiv4hKx_13nestgate_core23canonical_modernization19idiomatic_evolution8buildersINtB5_20ModernizationBuilderpE15enable_rollbackBb_
FNDA:0,_RNvMs6_NtNtNtCserJaDiv4hKx_13nestgate_core23canonical_modernization19idiomatic_evolution8buildersINtB5_20ModernizationBuilderpE22add_modernization_stepBb_
FNDA:0,_RNvMs6_NtNtNtCserJaDiv4hKx_13nestgate_core23canonical_modernization19idiomatic_evolution8buildersINtB5_20ModernizationBuilderpE3newBb_
FNDA:0,_RNvXININtNtNtCserJaDiv4hKx_13nestgate_core23canonical_modernization19idiomatic_evolution8builderss1_0pEINtB5_18SmartConfigBuilderpENtNtCs5GmCzIpY9Qj_4core7default7Default7defaultBb_
FNDA:0,_RNvXININtNtNtCserJaDiv4hKx_13nestgate_core23canonical_modernization19idiomatic_evolution8builderss3_0pEINtB5_21EvolutionAwareBuilderpENtNtCs5GmCzIpY9Qj_4core7default7Default7defaultBb_
FNDA:0,_RNvXININtNtNtCserJaDiv4hKx_13nestgate_core23canonical_modernization19idiomatic_evolution8builderss5_0pEINtB5_16CanonicalBuilderpENtNtCs5GmCzIpY9Qj_4core7default7Default7defaultBb_
FNDA:0,_RNvXININtNtNtCserJaDiv4hKx_13nestgate_core23canonical_modernization19idiomatic_evolution8builderss7_0pEINtB5_20ModernizationBuilderpENtNtCs5GmCzIpY9Qj_4core7default7Default7defaultBb_
FNDA:0,_RNvXININtNtNtCserJaDiv4hKx_13nestgate_core23canonical_modernization19idiomatic_evolution8builderss_0pEINtB5_22IdiomaticConfigBuilderpENtNtCs5GmCzIpY9Qj_4core7default7Default7defaultBb_
FNDA:0,_RNvMNtNtNtCshPPI97q08o7_13nestgate_core23canonical_modernization19idiomatic_evolution8buildersINtB2_22IdiomaticConfigBuilderpE13with_metadataB8_
FNDA:0,_RNvMNtNtNtCshPPI97q08o7_13nestgate_core23canonical_modernization19idiomatic_evolution8buildersINtB2_22IdiomaticConfigBuilderpE3newB8_
FNDA:0,_RNvMs0_NtNtNtCshPPI97q08o7_13nestgate_core23canonical_modernization19idiomatic_evolution8buildersINtB5_18SmartConfigBuilderpE19apply_modernizationBb_
FNDA:0,_RNvMs0_NtNtNtCshPPI97q08o7_13nestgate_core23canonical_modernization19idiomatic_evolution8buildersINtB5_18SmartConfigBuilderpE23with_evolution_metadataBb_
FNDA:0,_RNvMs0_NtNtNtCshPPI97q08o7_13nestgate_core23canonical_modernization19idiomatic_evolution8buildersINtB5_18SmartConfigBuilderpE3newBb_
FNDA:0,_RNvMs2_NtNtNtCshPPI97q08o7_13nestgate_core23canonical_modernization19idiomatic_evolution8buildersINtB5_21EvolutionAwareBuilderpE19check_compatibilityBb_
FNDA:0,_RNvMs2_NtNtNtCshPPI97q08o7_13nestgate_core23canonical_modernization19idiomatic_evolution8buildersINtB5_21EvolutionAwareBuilderpE20with_evolution_scoreBb_
FNDA:0,_RNvMs2_NtNtNtCshPPI97q08o7_13nestgate_core23canonical_modernization19idiomatic_evolution8buildersINtB5_21EvolutionAwareBuilderpE3newBb_
FNDA:0,_RNvMs4_NtNtNtCshPPI97q08o7_13nestgate_core23canonical_modernization19idiomatic_evolution8buildersINtB5_16CanonicalBuilderpE24apply_canonical_patternsBb_
FNDA:0,_RNvMs4_NtNtNtCshPPI97q08o7_13nestgate_core23canonical_modernization19idiomatic_evolution8buildersINtB5_16CanonicalBuilderpE3newBb_
FNDA:0,_RNvMs6_NtNtNtCshPPI97q08o7_13nestgate_core23canonical_modernization19idiomatic_evolution8buildersINtB5_20ModernizationBuilderpE15enable_rollbackBb_
FNDA:0,_RNvMs6_NtNtNtCshPPI97q08o7_13nestgate_core23canonical_modernization19idiomatic_evolution8buildersINtB5_20ModernizationBuilderpE22add_modernization_stepBb_
FNDA:0,_RNvMs6_NtNtNtCshPPI97q08o7_13nestgate_core23canonical_modernization19idiomatic_evolution8buildersINtB5_20ModernizationBuilderpE3newBb_
FNDA:0,_RNvXININtNtNtCshPPI97q08o7_13nestgate_core23canonical_modernization19idiomatic_evolution8builderss1_0pEINtB5_18SmartConfigBuilderpENtNtCs5GmCzIpY9Qj_4core7default7Default7defaultBb_
