SF:/home/eastgate/Development/ecoPrimals/nestgate/code/crates/nestgate-core/src/advanced_optimizations.rs
FN:269,_RNCNvMs4_NtCs2meEIT43k6D_13nestgate_core22advanced_optimizationsNtB7_26AdaptivePerformanceMonitor10statisticss0_0B9_
FN:265,_RNCNvMs4_NtCs2meEIT43k6D_13nestgate_core22advanced_optimizationsNtB7_26AdaptivePerformanceMonitor10statisticss_0B9_
FN:165,_RNvMs3_NtCs2meEIT43k6D_13nestgate_core22advanced_optimizationsNtB5_15LockFreeCounter3new
FN:251,_RNvMs4_NtCs2meEIT43k6D_13nestgate_core22advanced_optimizationsNtB5_26AdaptivePerformanceMonitor10statistics
FN:222,_RNvMs4_NtCs2meEIT43k6D_13nestgate_core22advanced_optimizationsNtB5_26AdaptivePerformanceMonitor13record_sample
FN:212,_RNvMs4_NtCs2meEIT43k6D_13nestgate_core22advanced_optimizationsNtB5_26AdaptivePerformanceMonitor3new
FN:69,_RNvMs_NtCs2meEIT43k6D_13nestgate_core22advanced_optimizationsNtB4_30UltraPerformanceBatchProcessor15total_processed
FN:28,_RNvMs_NtCs2meEIT43k6D_13nestgate_core22advanced_optimizationsNtB4_30UltraPerformanceBatchProcessor3new
FN:20,_RNvXNtCs2meEIT43k6D_13nestgate_core22advanced_optimizationsNtB2_30UltraPerformanceBatchProcessorNtNtCs5GmCzIpY9Qj_4core7default7Default7default
FN:157,_RNvXs2_NtCs2meEIT43k6D_13nestgate_core22advanced_optimizationsNtB5_15LockFreeCounterNtNtCs5GmCzIpY9Qj_4core7default7Default7default
FN:109,_RNvMs1_NtCs2meEIT43k6D_13nestgate_core22advanced_optimizationsINtB5_24ZeroAllocStringProcessorKpE11process_strB7_
FN:139,_RNvMs1_NtCs2meEIT43k6D_13nestgate_core22advanced_optimizationsINtB5_24ZeroAllocStringProcessorKpE11utilizationB7_
FN:93,_RNvMs1_NtCs2meEIT43k6D_13nestgate_core22advanced_optimizationsINtB5_24ZeroAllocStringProcessorKpE3newB7_
FN:132,_RNvMs1_NtCs2meEIT43k6D_13nestgate_core22advanced_optimizationsINtB5_24ZeroAllocStringProcessorKpE5resetB7_
FN:180,_RNvMs3_NtCs2meEIT43k6D_13nestgate_core22advanced_optimizationsNtB5_15LockFreeCounter3add
FN:187,_RNvMs3_NtCs2meEIT43k6D_13nestgate_core22advanced_optimizationsNtB5_15LockFreeCounter3get
FN:193,_RNvMs3_NtCs2meEIT43k6D_13nestgate_core22advanced_optimizationsNtB5_15LockFreeCounter5reset
FN:174,_RNvMs3_NtCs2meEIT43k6D_13nestgate_core22advanced_optimizationsNtB5_15LockFreeCounter9increment
FN:43,_RNvMs_NtCs2meEIT43k6D_13nestgate_core22advanced_optimizationsNtB4_30UltraPerformanceBatchProcessor23process_batch_optimized
FN:85,_RNvXININtCs2meEIT43k6D_13nestgate_core22advanced_optimizationss0_0KpEINtB5_24ZeroAllocStringProcessorKpENtNtCs5GmCzIpY9Qj_4core7default7Default7defaultB7_
FN:258,_RNCNvMs4_NtCs2meEIT43k6D_13nestgate_core22advanced_optimizationsNtB7_26AdaptivePerformanceMonitor10statistics0B9_
FNDA:0,_RNCNvMs4_NtCs2meEIT43k6D_13nestgate_core22advanced_optimizationsNtB7_26AdaptivePerformanceMonitor10statisticss0_0B9_
FNDA:0,_RNCNvMs4_NtCs2meEIT43k6D_13nestgate_core22advanced_optimizationsNtB7_26AdaptivePerformanceMonitor10statisticss_0B9_
FNDA:0,_RNvMs3_NtCs2meEIT43k6D_13nestgate_core22advanced_optimizationsNtB5_15LockFreeCounter3new
FNDA:0,_RNvMs4_NtCs2meEIT43k6D_13nestgate_core22advanced_optimizationsNtB5_26AdaptivePerformanceMonitor10statistics
FNDA:0,_RNvMs4_NtCs2meEIT43k6D_13nestgate_core22advanced_optimizationsNtB5_26AdaptivePerformanceMonitor13record_sample
FNDA:0,_RNvMs4_NtCs2meEIT43k6D_13nestgate_core22advanced_optimizationsNtB5_26AdaptivePerformanceMonitor3new
FNDA:0,_RNvMs_NtCs2meEIT43k6D_13nestgate_core22advanced_optimizationsNtB4_30UltraPerformanceBatchProcessor15total_processed
FNDA:0,_RNvMs_NtCs2meEIT43k6D_13nestgate_core22advanced_optimizationsNtB4_30UltraPerformanceBatchProcessor3new
FNDA:0,_RNvXNtCs2meEIT43k6D_13nestgate_core22advanced_optimizationsNtB2_30UltraPerformanceBatchProcessorNtNtCs5GmCzIpY9Qj_4core7default7Default7default
FNDA:0,_RNvXs2_NtCs2meEIT43k6D_13nestgate_core22advanced_optimizationsNtB5_15LockFreeCounterNtNtCs5GmCzIpY9Qj_4core7default7Default7default
FNDA:0,_RNvMs1_NtCs2meEIT43k6D_13nestgate_core22advanced_optimizationsINtB5_24ZeroAllocStringProcessorKpE11process_strB7_
FNDA:0,_RNvMs1_NtCs2meEIT43k6D_13nestgate_core22advanced_optimizationsINtB5_24ZeroAllocStringProcessorKpE11utilizationB7_
FNDA:0,_RNvMs1_NtCs2meEIT43k6D_13nestgate_core22advanced_optimizationsINtB5_24ZeroAllocStringProcessorKpE3newB7_
FNDA:0,_RNvMs1_NtCs2meEIT43k6D_13nestgate_core22advanced_optimizationsINtB5_24ZeroAllocStringProcessorKpE5resetB7_
FNDA:0,_RNvMs3_NtCs2meEIT43k6D_13nestgate_core22advanced_optimizationsNtB5_15LockFreeCounter3add
FNDA:0,_RNvMs3_NtCs2meEIT43k6D_13nestgate_core22advanced_optimizationsNtB5_15LockFreeCounter3get
FNDA:0,_RNvMs3_NtCs2meEIT43k6D_13nestgate_core22advanced_optimizationsNtB5_15LockFreeCounter5reset
FNDA:0,_RNvMs3_NtCs2meEIT43k6D_13nestgate_core22advanced_optimizationsNtB5_15LockFreeCounter9increment
FNDA:0,_RNvMs_NtCs2meEIT43k6D_13nestgate_core22advanced_optimizationsNtB4_30UltraPerformanceBatchProcessor23process_batch_optimized
FNDA:0,_RNvXININtCs2meEIT43k6D_13nestgate_core22advanced_optimizationss0_0KpEINtB5_24ZeroAllocStringProcessorKpENtNtCs5GmCzIpY9Qj_4core7default7Default7defaultB7_
FNDA:0,_RNCNvMs4_NtCs2meEIT43k6D_13nestgate_core22advanced_optimizationsNtB7_26AdaptivePerformanceMonitor10statistics0B9_
FNF:21
FNH:0
DA:20,0
DA:21,0
DA:22,0
DA:28,0
DA:29,0
DA:30,0
DA:31,0
DA:32,0
DA:33,0
DA:43,0
DA:44,0
DA:47,0
DA:50,0
DA:51,0
DA:52,0
DA:53,0
DA:54,0
DA:55,0
DA:58,0
DA:59,0
DA:60,0
DA:62,0
DA:63,0
DA:64,0
DA:65,0
DA:69,0
DA:70,0
DA:71,0
DA:85,0
DA:86,0
DA:87,0
DA:93,0
DA:94,0
DA:95,0
DA:96,0
DA:97,0
DA:98,0
DA:109,0
DA:110,0
DA:111,0
DA:112,0
DA:113,0
DA:116,0
DA:117,0
DA:118,0
DA:119,0
DA:120,0
DA:122,0
DA:127,0
DA:128,0
DA:132,0
DA:133,0
DA:135,0
DA:139,0
DA:140,0
DA:141,0
DA:157,0
DA:158,0
DA:159,0
DA:165,0
DA:166,0
DA:167,0
DA:168,0
DA:169,0
DA:170,0
DA:174,0
DA:175,0
DA:176,0
DA:180,0
DA:181,0
DA:182,0
DA:187,0
DA:188,0
DA:189,0
DA:193,0
DA:194,0
DA:195,0
DA:212,0
DA:213,0
DA:214,0
DA:215,0
DA:216,0
DA:217,0
DA:218,0
DA:219,0
DA:222,0
DA:223,0
DA:225,0
DA:226,0
DA:227,0
DA:229,0
DA:230,0
DA:231,0
DA:233,0
DA:234,0
DA:235,0
DA:236,0
DA:237,0
DA:238,0
DA:240,0
DA:241,0
DA:242,0
DA:243,0
DA:245,0
DA:247,0
DA:251,0
DA:252,0
DA:253,0
DA:254,0
DA:256,0
DA:257,0
DA:258,0
DA:259,0
DA:262,0
DA:263,0
DA:264,0
DA:265,0
DA:266,0
DA:267,0
DA:268,0
DA:269,0
DA:271,0
BRF:0
BRH:0
LF:125
LH:0
end_of_record
SF:/home/eastgate/Development/ecoPrimals/nestgate/code/crates/nestgate-core/src/ai_first_refactored.rs
FN:643,_RINvNtCs2meEIT43k6D_13nestgate_core19ai_first_refactored10ai_successpEB4_
FN:663,_RINvNtCs2meEIT43k6D_13nestgate_core19ai_first_refactored24ai_response_with_actionspEB4_
FN:649,_RINvNtCs2meEIT43k6D_13nestgate_core19ai_first_refactored26ai_success_with_confidencepEB4_
FN:656,_RINvNtCs2meEIT43k6D_13nestgate_core19ai_first_refactored8ai_errorpEB4_
FN:359,_RNvMNtCs2meEIT43k6D_13nestgate_core19ai_first_refactoredINtB2_22AIFirstResponseBuilderpE10with_errorB4_
FN:381,_RNvMNtCs2meEIT43k6D_13nestgate_core19ai_first_refactoredINtB2_22AIFirstResponseBuilderpE13with_metadataB4_
FN:374,_RNvMNtCs2meEIT43k6D_13nestgate_core19ai_first_refactoredINtB2_22AIFirstResponseBuilderpE14add_suggestionB4_
FN:367,_RNvMNtCs2meEIT43k6D_13nestgate_core19ai_first_refactoredINtB2_22AIFirstResponseBuilderpE15with_confidenceB4_
FN:346,_RNvMNtCs2meEIT43k6D_13nestgate_core19ai_first_refactoredINtB2_22AIFirstResponseBuilderpE3newB4_
FN:387,_RNvMNtCs2meEIT43k6D_13nestgate_core19ai_first_refactoredINtB2_22AIFirstResponseBuilderpE5buildB4_
FN:434,_RNvXs0_NtCs2meEIT43k6D_13nestgate_core19ai_first_refactoredNtB5_13ResourceUsageNtNtCs5GmCzIpY9Qj_4core7default7Default7default
FN:446,_RNvXs1_NtCs2meEIT43k6D_13nestgate_core19ai_first_refactoredNtB5_17QualityIndicatorsNtNtCs5GmCzIpY9Qj_4core7default7Default7default
FN:458,_RNvXs2_NtCs2meEIT43k6D_13nestgate_core19ai_first_refactoredNtB5_22EcosystemCompatibilityNtNtCs5GmCzIpY9Qj_4core7default7Default7default
FN:473,_RNvXs3_NtCs2meEIT43k6D_13nestgate_core19ai_first_refactoredNtB5_17EcosystemMetadataNtNtCs5GmCzIpY9Qj_4core7default7Default7default
FN:421,_RNvXs_NtCs2meEIT43k6D_13nestgate_core19ai_first_refactoredNtB4_18AIResponseMetadataNtNtCs5GmCzIpY9Qj_4core7default7Default7default
FN:493,_RNvXs4_NtCs2meEIT43k6D_13nestgate_core19ai_first_refactoredNtNtNtNtB7_5error8variants11core_errors20NestGateUnifiedErrorNtB5_16IntoAIFirstError19into_ai_first_error
FN:511,_RNvXs4_NtCs2meEIT43k6D_13nestgate_core19ai_first_refactoredNtNtNtNtB7_5error8variants11core_errors20NestGateUnifiedErrorNtB5_16IntoAIFirstError30into_ai_first_error_with_hints
FN:538,_RNvXs5_NtCs2meEIT43k6D_13nestgate_core19ai_first_refactoredNtNtNtNtB7_5error8variants11core_errors20NestGateUnifiedErrorNtB5_16NestGateErrorExt10error_code
FN:563,_RNvXs5_NtCs2meEIT43k6D_13nestgate_core19ai_first_refactoredNtNtNtNtB7_5error8variants11core_errors20NestGateUnifiedErrorNtB5_16NestGateErrorExt14retry_strategy
FN:579,_RNvXs5_NtCs2meEIT43k6D_13nestgate_core19ai_first_refactoredNtNtNtNtB7_5error8variants11core_errors20NestGateUnifiedErrorNtB5_16NestGateErrorExt16automation_hints
FN:551,_RNvXs5_NtCs2meEIT43k6D_13nestgate_core19ai_first_refactoredNtNtNtNtB7_5error8variants11core_errors20NestGateUnifiedErrorNtB5_16NestGateErrorExt17ai_error_category
FN:614,_RNvXs5_NtCs2meEIT43k6D_13nestgate_core19ai_first_refactoredNtNtNtNtB7_5error8variants11core_errors20NestGateUnifiedErrorNtB5_16NestGateErrorExt20recovery_suggestions
FN:606,_RNvXs5_NtCs2meEIT43k6D_13nestgate_core19ai_first_refactoredNtNtNtNtB7_5error8variants11core_errors20NestGateUnifiedErrorNtB5_16NestGateErrorExt27requires_human_intervention
FN:596,_RNvXs5_NtCs2meEIT43k6D_13nestgate_core19ai_first_refactoredNtNtNtNtB7_5error8variants11core_errors20NestGateUnifiedErrorNtB5_16NestGateErrorExt8severity
FNDA:0,_RINvNtCs2meEIT43k6D_13nestgate_core19ai_first_refactored10ai_successpEB4_
FNDA:0,_RINvNtCs2meEIT43k6D_13nestgate_core19ai_first_refactored24ai_response_with_actionspEB4_
FNDA:0,_RINvNtCs2meEIT43k6D_13nestgate_core19ai_first_refactored26ai_success_with_confidencepEB4_
FNDA:0,_RINvNtCs2meEIT43k6D_13nestgate_core19ai_first_refactored8ai_errorpEB4_
FNDA:0,_RNvMNtCs2meEIT43k6D_13nestgate_core19ai_first_refactoredINtB2_22AIFirstResponseBuilderpE10with_errorB4_
FNDA:0,_RNvMNtCs2meEIT43k6D_13nestgate_core19ai_first_refactoredINtB2_22AIFirstResponseBuilderpE13with_metadataB4_
FNDA:0,_RNvMNtCs2meEIT43k6D_13nestgate_core19ai_first_refactoredINtB2_22AIFirstResponseBuilderpE14add_suggestionB4_
FNDA:0,_RNvMNtCs2meEIT43k6D_13nestgate_core19ai_first_refactoredINtB2_22AIFirstResponseBuilderpE15with_confidenceB4_
FNDA:0,_RNvMNtCs2meEIT43k6D_13nestgate_core19ai_first_refactoredINtB2_22AIFirstResponseBuilderpE3newB4_
FNDA:0,_RNvMNtCs2meEIT43k6D_13nestgate_core19ai_first_refactoredINtB2_22AIFirstResponseBuilderpE5buildB4_
FNDA:0,_RNvXs0_NtCs2meEIT43k6D_13nestgate_core19ai_first_refactoredNtB5_13ResourceUsageNtNtCs5GmCzIpY9Qj_4core7default7Default7default
FNDA:0,_RNvXs1_NtCs2meEIT43k6D_13nestgate_core19ai_first_refactoredNtB5_17QualityIndicatorsNtNtCs5GmCzIpY9Qj_4core7default7Default7default
FNDA:0,_RNvXs2_NtCs2meEIT43k6D_13nestgate_core19ai_first_refactoredNtB5_22EcosystemCompatibilityNtNtCs5GmCzIpY9Qj_4core7default7Default7default
FNDA:0,_RNvXs3_NtCs2meEIT43k6D_13nestgate_core19ai_first_refactoredNtB5_17EcosystemMetadataNtNtCs5GmCzIpY9Qj_4core7default7Default7default
FNDA:0,_RNvXs_NtCs2meEIT43k6D_13nestgate_core19ai_first_refactoredNtB4_18AIResponseMetadataNtNtCs5GmCzIpY9Qj_4core7default7Default7default
FNDA:0,_RNvXs4_NtCs2meEIT43k6D_13nestgate_core19ai_first_refactoredNtNtNtNtB7_5error8variants11core_errors20NestGateUnifiedErrorNtB5_16IntoAIFirstError19into_ai_first_error
FNDA:0,_RNvXs4_NtCs2meEIT43k6D_13nestgate_core19ai_first_refactoredNtNtNtNtB7_5error8variants11core_errors20NestGateUnifiedErrorNtB5_16IntoAIFirstError30into_ai_first_error_with_hints
FNDA:0,_RNvXs5_NtCs2meEIT43k6D_13nestgate_core19ai_first_refactoredNtNtNtNtB7_5error8variants11core_errors20NestGateUnifiedErrorNtB5_16NestGateErrorExt10error_code
FNDA:0,_RNvXs5_NtCs2meEIT43k6D_13nestgate_core19ai_first_refactoredNtNtNtNtB7_5error8variants11core_errors20NestGateUnifiedErrorNtB5_16NestGateErrorExt14retry_strategy
FNDA:0,_RNvXs5_NtCs2meEIT43k6D_13nestgate_core19ai_first_refactoredNtNtNtNtB7_5error8variants11core_errors20NestGateUnifiedErrorNtB5_16NestGateErrorExt16automation_hints
FNDA:0,_RNvXs5_NtCs2meEIT43k6D_13nestgate_core19ai_first_refactoredNtNtNtNtB7_5error8variants11core_errors20NestGateUnifiedErrorNtB5_16NestGateErrorExt17ai_error_category
FNDA:0,_RNvXs5_NtCs2meEIT43k6D_13nestgate_core19ai_first_refactoredNtNtNtNtB7_5error8variants11core_errors20NestGateUnifiedErrorNtB5_16NestGateErrorExt20recovery_suggestions
FNDA:0,_RNvXs5_NtCs2meEIT43k6D_13nestgate_core19ai_first_refactoredNtNtNtNtB7_5error8variants11core_errors20NestGateUnifiedErrorNtB5_16NestGateErrorExt27requires_human_intervention
FNDA:0,_RNvXs5_NtCs2meEIT43k6D_13nestgate_core19ai_first_refactoredNtNtNtNtB7_5error8variants11core_errors20NestGateUnifiedErrorNtB5_16NestGateErrorExt8severity
FNF:24
FNH:0
DA:346,0
DA:347,0
DA:348,0
DA:349,0
DA:350,0
DA:351,0
DA:352,0
DA:353,0
DA:354,0
DA:355,0
DA:359,0
DA:360,0
DA:361,0
DA:362,0
DA:363,0
DA:367,0
DA:368,0
DA:369,0
DA:370,0
DA:374,0
DA:375,0
DA:376,0
DA:377,0
DA:381,0
DA:382,0
DA:383,0
DA:384,0
DA:387,0
DA:388,0
DA:389,0
DA:390,0
DA:391,0
DA:392,0
DA:393,0
DA:394,0
DA:395,0
DA:396,0
DA:397,0
DA:398,0
DA:399,0
DA:400,0
DA:421,0
DA:422,0
DA:423,0
DA:424,0
DA:425,0
DA:426,0
DA:427,0
DA:428,0
DA:429,0
DA:434,0
DA:435,0
DA:436,0
DA:437,0
DA:438,0
DA:439,0
DA:440,0
DA:441,0
DA:446,0
DA:447,0
DA:448,0
DA:449,0
DA:450,0
DA:451,0
DA:452,0
DA:453,0
DA:458,0
DA:459,0
DA:460,0
DA:461,0
DA:462,0
DA:463,0
DA:464,0
DA:465,0
DA:466,0
DA:467,0
DA:468,0
DA:473,0
DA:474,0
DA:475,0
DA:476,0
DA:477,0
DA:478,0
DA:479,0
DA:480,0
DA:481,0
DA:482,0
DA:483,0
DA:484,0
DA:485,0
DA:486,0
DA:493,0
DA:494,0
DA:495,0
DA:496,0
DA:497,0
DA:498,0
DA:499,0
DA:500,0
DA:501,0
DA:502,0
DA:503,0
DA:504,0
DA:505,0
DA:506,0
DA:507,0
DA:508,0
DA:511,0
DA:512,0
DA:513,0
DA:514,0
DA:515,0
DA:538,0
DA:539,0
DA:540,0
DA:541,0
DA:542,0
DA:543,0
DA:544,0
DA:545,0
DA:546,0
DA:548,0
DA:551,0
DA:552,0
DA:553,0
DA:554,0
DA:555,0
DA:556,0
DA:557,0
DA:558,0
DA:560,0
DA:563,0
DA:564,0
DA:565,0
DA:566,0
DA:567,0
DA:568,0
DA:569,0
DA:570,0
DA:571,0
DA:572,0
DA:573,0
DA:574,0
DA:576,0
DA:579,0
DA:580,0
DA:581,0
DA:582,0
DA:583,0
DA:584,0
DA:586,0
DA:587,0
DA:588,0
DA:589,0
DA:591,0
DA:593,0
DA:596,0
DA:597,0
DA:598,0
DA:599,0
DA:600,0
DA:601,0
DA:603,0
DA:606,0
DA:607,0
DA:608,0
DA:611,0
DA:614,0
DA:615,0
DA:616,0
DA:617,0
DA:618,0
DA:619,0
DA:620,0
DA:621,0
DA:622,0
DA:623,0
DA:625,0
DA:643,0
DA:644,0
DA:645,0
DA:646,0
DA:647,0
DA:649,0
DA:650,0
DA:651,0
DA:652,0
DA:653,0
DA:656,0
DA:657,0
DA:658,0
DA:659,0
DA:660,0
DA:661,0
DA:663,0
DA:664,0
DA:665,0
DA:666,0
DA:667,0
DA:668,0
DA:669,0
BRF:0
BRH:0
LF:201
LH:0
end_of_record
SF:/home/eastgate/Development/ecoPrimals/nestgate/code/crates/nestgate-core/src/cache/manager.rs
FN:270,_RNCNvMs1_NtNtCs2meEIT43k6D_13nestgate_core5cache7managerNtB7_12CacheManager15expire_hot_tiers_0Bb_
FN:304,_RNCNvMs1_NtNtCs2meEIT43k6D_13nestgate_core5cache7managerNtB7_12CacheManager16expire_cold_tiers_0Bb_
FN:287,_RNCNvMs1_NtNtCs2meEIT43k6D_13nestgate_core5cache7managerNtB7_12CacheManager16expire_warm_tiers_0Bb_
FN:269,_RNCNvMs1_NtNtCs2meEIT43k6D_13nestgate_core5cache7managerNtB7_12CacheManager15expire_hot_tier0Bb_
FN:303,_RNCNvMs1_NtNtCs2meEIT43k6D_13nestgate_core5cache7managerNtB7_12CacheManager16expire_cold_tier0Bb_
FN:286,_RNCNvMs1_NtNtCs2meEIT43k6D_13nestgate_core5cache7managerNtB7_12CacheManager16expire_warm_tier0Bb_
FN:403,_RNCNCNvMs1_NtNtCs2meEIT43k6D_13nestgate_core5cache7managerNtB9_12CacheManager12save_to_disk00Bd_
FN:389,_RNCNCNvMs1_NtNtCs2meEIT43k6D_13nestgate_core5cache7managerNtB9_12CacheManager14load_from_disk00Bd_
FN:244,_RNCNvMs1_NtNtCs2meEIT43k6D_13nestgate_core5cache7managerNtB7_12CacheManager11maintenance0Bb_
FN:394,_RNCNvMs1_NtNtCs2meEIT43k6D_13nestgate_core5cache7managerNtB7_12CacheManager12save_to_disk0Bb_
FN:386,_RNCNvMs1_NtNtCs2meEIT43k6D_13nestgate_core5cache7managerNtB7_12CacheManager14load_from_disk0Bb_
FN:316,_RNCNvMs1_NtNtCs2meEIT43k6D_13nestgate_core5cache7managerNtB7_12CacheManager15evict_if_needed0Bb_
FN:193,_RNCNvMs1_NtNtCs2meEIT43k6D_13nestgate_core5cache7managerNtB7_12CacheManager3put0Bb_
FN:394,_RNvMs1_NtNtCs2meEIT43k6D_13nestgate_core5cache7managerNtB5_12CacheManager12save_to_disk
FN:386,_RNvMs1_NtNtCs2meEIT43k6D_13nestgate_core5cache7managerNtB5_12CacheManager14load_from_disk
FN:370,_RNCNvMs1_NtNtCs2meEIT43k6D_13nestgate_core5cache7managerNtB7_12CacheManager12find_lru_keys_0Bb_
FN:114,_RNvMs0_NtNtCs2meEIT43k6D_13nestgate_core5cache7managerNtB5_10CacheStats8hit_rate
FN:324,_RNvMs1_NtNtCs2meEIT43k6D_13nestgate_core5cache7managerNtB5_12CacheManager10total_size
FN:244,_RNvMs1_NtNtCs2meEIT43k6D_13nestgate_core5cache7managerNtB5_12CacheManager11maintenance
FN:407,_RNvMs1_NtNtCs2meEIT43k6D_13nestgate_core5cache7managerNtB5_12CacheManager11reset_stats
FN:367,_RNvMs1_NtNtCs2meEIT43k6D_13nestgate_core5cache7managerNtB5_12CacheManager12find_lru_key
FN:252,_RNvMs1_NtNtCs2meEIT43k6D_13nestgate_core5cache7managerNtB5_12CacheManager14expire_entries
FN:375,_RNvMs1_NtNtCs2meEIT43k6D_13nestgate_core5cache7managerNtB5_12CacheManager14get_cache_path
FN:316,_RNvMs1_NtNtCs2meEIT43k6D_13nestgate_core5cache7managerNtB5_12CacheManager15evict_if_needed
FN:329,_RNvMs1_NtNtCs2meEIT43k6D_13nestgate_core5cache7managerNtB5_12CacheManager15evict_one_entry
FN:265,_RNvMs1_NtNtCs2meEIT43k6D_13nestgate_core5cache7managerNtB5_12CacheManager15expire_hot_tier
FN:299,_RNvMs1_NtNtCs2meEIT43k6D_13nestgate_core5cache7managerNtB5_12CacheManager16expire_cold_tier
FN:282,_RNvMs1_NtNtCs2meEIT43k6D_13nestgate_core5cache7managerNtB5_12CacheManager16expire_warm_tier
FN:148,_RNvMs1_NtNtCs2meEIT43k6D_13nestgate_core5cache7managerNtB5_12CacheManager3get
FN:136,_RNvMs1_NtNtCs2meEIT43k6D_13nestgate_core5cache7managerNtB5_12CacheManager3new
FN:193,_RNvMs1_NtNtCs2meEIT43k6D_13nestgate_core5cache7managerNtB5_12CacheManager3put
FN:222,_RNvMs1_NtNtCs2meEIT43k6D_13nestgate_core5cache7managerNtB5_12CacheManager5clear
FN:413,_RNvMs1_NtNtCs2meEIT43k6D_13nestgate_core5cache7managerNtB5_12CacheManager5flush
FN:232,_RNvMs1_NtNtCs2meEIT43k6D_13nestgate_core5cache7managerNtB5_12CacheManager5stats
FN:208,_RNvMs1_NtNtCs2meEIT43k6D_13nestgate_core5cache7managerNtB5_12CacheManager6remove
FN:87,_RNvMs_NtNtCs2meEIT43k6D_13nestgate_core5cache7managerNtB4_10CacheEntry10is_expired
FN:75,_RNvMs_NtNtCs2meEIT43k6D_13nestgate_core5cache7managerNtB4_10CacheEntry3new
FN:92,_RNvMs_NtNtCs2meEIT43k6D_13nestgate_core5cache7managerNtB4_10CacheEntry6access
FN:49,_RNvXNtNtCs2meEIT43k6D_13nestgate_core5cache7managerNtB2_18UnifiedCacheConfigNtNtCs5GmCzIpY9Qj_4core7default7Default7default
FN:425,_RNvXs2_NtNtCs2meEIT43k6D_13nestgate_core5cache7managerNtB5_12CacheManagerNtNtCs5GmCzIpY9Qj_4core7default7Default7default
FNDA:0,_RNCNvMs1_NtNtCs2meEIT43k6D_13nestgate_core5cache7managerNtB7_12CacheManager15expire_hot_tiers_0Bb_
FNDA:0,_RNCNvMs1_NtNtCs2meEIT43k6D_13nestgate_core5cache7managerNtB7_12CacheManager16expire_cold_tiers_0Bb_
FNDA:0,_RNCNvMs1_NtNtCs2meEIT43k6D_13nestgate_core5cache7managerNtB7_12CacheManager16expire_warm_tiers_0Bb_
FNDA:0,_RNCNvMs1_NtNtCs2meEIT43k6D_13nestgate_core5cache7managerNtB7_12CacheManager15expire_hot_tier0Bb_
FNDA:0,_RNCNvMs1_NtNtCs2meEIT43k6D_13nestgate_core5cache7managerNtB7_12CacheManager16expire_cold_tier0Bb_
FNDA:0,_RNCNvMs1_NtNtCs2meEIT43k6D_13nestgate_core5cache7managerNtB7_12CacheManager16expire_warm_tier0Bb_
FNDA:0,_RNCNCNvMs1_NtNtCs2meEIT43k6D_13nestgate_core5cache7managerNtB9_12CacheManager12save_to_disk00Bd_
FNDA:0,_RNCNCNvMs1_NtNtCs2meEIT43k6D_13nestgate_core5cache7managerNtB9_12CacheManager14load_from_disk00Bd_
FNDA:0,_RNCNvMs1_NtNtCs2meEIT43k6D_13nestgate_core5cache7managerNtB7_12CacheManager11maintenance0Bb_
FNDA:0,_RNCNvMs1_NtNtCs2meEIT43k6D_13nestgate_core5cache7managerNtB7_12CacheManager12save_to_disk0Bb_
FNDA:0,_RNCNvMs1_NtNtCs2meEIT43k6D_13nestgate_core5cache7managerNtB7_12CacheManager14load_from_disk0Bb_
FNDA:0,_RNCNvMs1_NtNtCs2meEIT43k6D_13nestgate_core5cache7managerNtB7_12CacheManager15evict_if_needed0Bb_
FNDA:0,_RNCNvMs1_NtNtCs2meEIT43k6D_13nestgate_core5cache7managerNtB7_12CacheManager3put0Bb_
FNDA:0,_RNvMs1_NtNtCs2meEIT43k6D_13nestgate_core5cache7managerNtB5_12CacheManager12save_to_disk
FNDA:0,_RNvMs1_NtNtCs2meEIT43k6D_13nestgate_core5cache7managerNtB5_12CacheManager14load_from_disk
FNDA:0,_RNCNvMs1_NtNtCs2meEIT43k6D_13nestgate_core5cache7managerNtB7_12CacheManager12find_lru_keys_0Bb_
FNDA:0,_RNvMs0_NtNtCs2meEIT43k6D_13nestgate_core5cache7managerNtB5_10CacheStats8hit_rate
FNDA:0,_RNvMs1_NtNtCs2meEIT43k6D_13nestgate_core5cache7managerNtB5_12CacheManager10total_size
FNDA:0,_RNvMs1_NtNtCs2meEIT43k6D_13nestgate_core5cache7managerNtB5_12CacheManager11maintenance
FNDA:0,_RNvMs1_NtNtCs2meEIT43k6D_13nestgate_core5cache7managerNtB5_12CacheManager11reset_stats
FNDA:0,_RNvMs1_NtNtCs2meEIT43k6D_13nestgate_core5cache7managerNtB5_12CacheManager12find_lru_key
FNDA:0,_RNvMs1_NtNtCs2meEIT43k6D_13nestgate_core5cache7managerNtB5_12CacheManager14expire_entries
FNDA:0,_RNvMs1_NtNtCs2meEIT43k6D_13nestgate_core5cache7managerNtB5_12CacheManager14get_cache_path
FNDA:0,_RNvMs1_NtNtCs2meEIT43k6D_13nestgate_core5cache7managerNtB5_12CacheManager15evict_if_needed
FNDA:0,_RNvMs1_NtNtCs2meEIT43k6D_13nestgate_core5cache7managerNtB5_12CacheManager15evict_one_entry
FNDA:0,_RNvMs1_NtNtCs2meEIT43k6D_13nestgate_core5cache7managerNtB5_12CacheManager15expire_hot_tier
FNDA:0,_RNvMs1_NtNtCs2meEIT43k6D_13nestgate_core5cache7managerNtB5_12CacheManager16expire_cold_tier
FNDA:0,_RNvMs1_NtNtCs2meEIT43k6D_13nestgate_core5cache7managerNtB5_12CacheManager16expire_warm_tier
FNDA:0,_RNvMs1_NtNtCs2meEIT43k6D_13nestgate_core5cache7managerNtB5_12CacheManager3get
FNDA:0,_RNvMs1_NtNtCs2meEIT43k6D_13nestgate_core5cache7managerNtB5_12CacheManager3new
FNDA:0,_RNvMs1_NtNtCs2meEIT43k6D_13nestgate_core5cache7managerNtB5_12CacheManager3put
FNDA:0,_RNvMs1_NtNtCs2meEIT43k6D_13nestgate_core5cache7managerNtB5_12CacheManager5clear
FNDA:0,_RNvMs1_NtNtCs2meEIT43k6D_13nestgate_core5cache7managerNtB5_12CacheManager5flush
FNDA:0,_RNvMs1_NtNtCs2meEIT43k6D_13nestgate_core5cache7managerNtB5_12CacheManager5stats
FNDA:0,_RNvMs1_NtNtCs2meEIT43k6D_13nestgate_core5cache7managerNtB5_12CacheManager6remove
FNDA:0,_RNvMs_NtNtCs2meEIT43k6D_13nestgate_core5cache7managerNtB4_10CacheEntry10is_expired
FNDA:0,_RNvMs_NtNtCs2meEIT43k6D_13nestgate_core5cache7managerNtB4_10CacheEntry3new
FNDA:0,_RNvMs_NtNtCs2meEIT43k6D_13nestgate_core5cache7managerNtB4_10CacheEntry6access
FNDA:0,_RNvXNtNtCs2meEIT43k6D_13nestgate_core5cache7managerNtB2_18UnifiedCacheConfigNtNtCs5GmCzIpY9Qj_4core7default7Default7default
FNDA:0,_RNvXs2_NtNtCs2meEIT43k6D_13nestgate_core5cache7managerNtB5_12CacheManagerNtNtCs5GmCzIpY9Qj_4core7default7Default7default
FNF:40
FNH:0
DA:49,0
DA:50,0
DA:51,0
DA:52,0
DA:53,0
DA:54,0
DA:55,0
DA:56,0
DA:75,0
DA:76,0
DA:77,0
DA:78,0
DA:79,0
DA:80,0
DA:81,0
DA:82,0
DA:83,0
DA:87,0
DA:88,0
DA:89,0
DA:92,0
DA:93,0
DA:94,0
DA:95,0
DA:114,0
DA:115,0
DA:116,0
DA:118,0
DA:120,0
DA:136,0
DA:137,0
DA:138,0
DA:139,0
DA:140,0
DA:141,0
DA:142,0
DA:143,0
DA:144,0
DA:148,0
DA:150,0
DA:151,0
DA:152,0
DA:153,0
DA:154,0
DA:155,0
DA:158,0
DA:159,0
DA:160,0
DA:162,0
DA:163,0
DA:164,0
DA:165,0
DA:166,0
DA:169,0
DA:170,0
DA:171,0
DA:173,0
DA:174,0
DA:175,0
DA:176,0
DA:177,0
DA:180,0
DA:181,0
DA:182,0
DA:183,0
DA:193,0
DA:194,0
DA:197,0
DA:198,0
DA:201,0
DA:203,0
DA:204,0
DA:205,0
DA:208,0
DA:209,0
DA:210,0
DA:211,0
DA:213,0
DA:214,0
DA:215,0
DA:216,0
DA:218,0
DA:219,0
DA:222,0
DA:223,0
DA:224,0
DA:225,0
DA:226,0
DA:227,0
DA:228,0
DA:232,0
DA:233,0
DA:234,0
DA:244,0
DA:245,0
DA:246,0
DA:247,0
DA:248,0
DA:249,0
DA:252,0
DA:253,0
DA:254,0
DA:255,0
DA:256,0
DA:257,0
DA:258,0
DA:259,0
DA:260,0
DA:261,0
DA:262,0
DA:265,0
DA:266,0
DA:267,0
DA:268,0
DA:269,0
DA:270,0
DA:271,0
DA:273,0
DA:274,0
DA:275,0
DA:276,0
DA:277,0
DA:279,0
DA:282,0
DA:283,0
DA:284,0
DA:285,0
DA:286,0
DA:287,0
DA:288,0
DA:290,0
DA:291,0
DA:292,0
DA:293,0
DA:294,0
DA:296,0
DA:299,0
DA:300,0
DA:301,0
DA:302,0
DA:303,0
DA:304,0
DA:305,0
DA:307,0
DA:308,0
DA:309,0
DA:310,0
DA:311,0
DA:313,0
DA:316,0
DA:317,0
DA:318,0
DA:320,0
DA:321,0
DA:324,0
DA:325,0
DA:326,0
DA:329,0
DA:331,0
DA:332,0
DA:333,0
DA:334,0
DA:335,0
DA:336,0
DA:337,0
DA:338,0
DA:339,0
DA:342,0
DA:343,0
DA:344,0
DA:345,0
DA:346,0
DA:347,0
DA:348,0
DA:349,0
DA:350,0
DA:353,0
DA:354,0
DA:355,0
DA:356,0
DA:357,0
DA:358,0
DA:359,0
DA:360,0
DA:361,0
DA:363,0
DA:364,0
DA:367,0
DA:368,0
DA:369,0
DA:370,0
DA:371,0
DA:375,0
DA:376,0
DA:377,0
DA:378,0
DA:380,0
DA:382,0
DA:386,0
DA:387,0
DA:388,0
DA:389,0
DA:390,0
DA:394,0
DA:395,0
DA:397,0
DA:398,0
DA:399,0
DA:401,0
DA:402,0
DA:403,0
DA:404,0
DA:407,0
DA:408,0
DA:409,0
DA:410,0
DA:413,0
DA:414,0
DA:415,0
DA:416,0
DA:417,0
DA:418,0
DA:419,0
DA:420,0
DA:425,0
DA:426,0
DA:427,0
DA:428,0
DA:429,0
DA:430,0
DA:431,0
DA:432,0
DA:433,0
DA:434,0
BRF:0
BRH:0
LF:248
LH:0
end_of_record
SF:/home/eastgate/Development/ecoPrimals/nestgate/code/crates/nestgate-core/src/cache/mod.rs
FN:275,_RINvMs0_NtCs2meEIT43k6D_13nestgate_core5cacheNtB6_12CacheBuilder14with_cache_dirpEB8_
FN:159,_RNCNvMNtCs2meEIT43k6D_13nestgate_core5cacheNtB4_11CacheSystem11maintenance0B6_
FN:132,_RNCNvMNtCs2meEIT43k6D_13nestgate_core5cacheNtB4_11CacheSystem12contains_key0B6_
FN:97,_RNCNvMNtCs2meEIT43k6D_13nestgate_core5cacheNtB4_11CacheSystem3get0B6_
FN:105,_RNCNvMNtCs2meEIT43k6D_13nestgate_core5cacheNtB4_11CacheSystem3put0B6_
FN:121,_RNCNvMNtCs2meEIT43k6D_13nestgate_core5cacheNtB4_11CacheSystem5clear0B6_
FN:113,_RNCNvMNtCs2meEIT43k6D_13nestgate_core5cacheNtB4_11CacheSystem6remove0B6_
FN:332,_RNCNvMs0_NtCs2meEIT43k6D_13nestgate_core5cacheNtB7_12CacheBuilder5build0B9_
FNDA:0,_RINvMs0_NtCs2meEIT43k6D_13nestgate_core5cacheNtB6_12CacheBuilder14with_cache_dirpEB8_
FNDA:0,_RNCNvMNtCs2meEIT43k6D_13nestgate_core5cacheNtB4_11CacheSystem11maintenance0B6_
FNDA:0,_RNCNvMNtCs2meEIT43k6D_13nestgate_core5cacheNtB4_11CacheSystem12contains_key0B6_
FNDA:0,_RNCNvMNtCs2meEIT43k6D_13nestgate_core5cacheNtB4_11CacheSystem3get0B6_
FNDA:0,_RNCNvMNtCs2meEIT43k6D_13nestgate_core5cacheNtB4_11CacheSystem3put0B6_
FNDA:0,_RNCNvMNtCs2meEIT43k6D_13nestgate_core5cacheNtB4_11CacheSystem5clear0B6_
FNDA:0,_RNCNvMNtCs2meEIT43k6D_13nestgate_core5cacheNtB4_11CacheSystem6remove0B6_
FNDA:0,_RNCNvMs0_NtCs2meEIT43k6D_13nestgate_core5cacheNtB7_12CacheBuilder5build0B9_
FNF:8
FNH:0
DA:97,0
DA:98,0
DA:99,0
DA:100,0
DA:102,0
DA:105,0
DA:106,0
DA:107,0
DA:108,0
DA:110,0
DA:113,0
DA:114,0
DA:115,0
DA:116,0
DA:118,0
DA:121,0
DA:122,0
DA:123,0
DA:124,0
DA:125,0
DA:127,0
DA:129,0
DA:132,0
DA:133,0
DA:134,0
DA:136,0
DA:138,0
DA:140,0
DA:159,0
DA:160,0
DA:161,0
DA:162,0
DA:164,0
DA:275,0
DA:276,0
DA:277,0
DA:278,0
DA:332,0
DA:333,0
DA:334,0
DA:335,0
DA:337,0
DA:339,0
BRF:0
BRH:0
LF:43
LH:0
end_of_record
SF:/home/eastgate/Development/ecoPrimals/nestgate/code/crates/nestgate-core/src/cache/multi_tier.rs
FN:249,_RNCNvMNtNtCs2meEIT43k6D_13nestgate_core5cache10multi_tierNtB4_14MultiTierCache12contains_key0B8_
FN:155,_RNCNvMNtNtCs2meEIT43k6D_13nestgate_core5cache10multi_tierNtB4_14MultiTierCache3get0B8_
FN:143,_RNCNvMNtNtCs2meEIT43k6D_13nestgate_core5cache10multi_tierNtB4_14MultiTierCache3put0B8_
FN:131,_RNCNvMNtNtCs2meEIT43k6D_13nestgate_core5cache10multi_tierNtB4_14MultiTierCache3set0B8_
FN:213,_RNCNvMNtNtCs2meEIT43k6D_13nestgate_core5cache10multi_tierNtB4_14MultiTierCache5clear0B8_
FN:188,_RNCNvMNtNtCs2meEIT43k6D_13nestgate_core5cache10multi_tierNtB4_14MultiTierCache6remove0B8_
FNDA:0,_RNCNvMNtNtCs2meEIT43k6D_13nestgate_core5cache10multi_tierNtB4_14MultiTierCache12contains_key0B8_
FNDA:0,_RNCNvMNtNtCs2meEIT43k6D_13nestgate_core5cache10multi_tierNtB4_14MultiTierCache3get0B8_
FNDA:0,_RNCNvMNtNtCs2meEIT43k6D_13nestgate_core5cache10multi_tierNtB4_14MultiTierCache3put0B8_
FNDA:0,_RNCNvMNtNtCs2meEIT43k6D_13nestgate_core5cache10multi_tierNtB4_14MultiTierCache3set0B8_
FNDA:0,_RNCNvMNtNtCs2meEIT43k6D_13nestgate_core5cache10multi_tierNtB4_14MultiTierCache5clear0B8_
FNDA:0,_RNCNvMNtNtCs2meEIT43k6D_13nestgate_core5cache10multi_tierNtB4_14MultiTierCache6remove0B8_
FNF:6
FNH:0
DA:131,0
DA:132,0
DA:133,0
DA:143,0
DA:144,0
DA:145,0
DA:155,0
DA:159,0
DA:160,0
DA:161,0
DA:164,0
DA:166,0
DA:167,0
DA:168,0
DA:171,0
DA:173,0
DA:174,0
DA:175,0
DA:177,0
DA:178,0
DA:188,0
DA:189,0
DA:192,0
DA:193,0
DA:194,0
DA:195,0
DA:196,0
DA:197,0
DA:198,0
DA:199,0
DA:200,0
DA:202,0
DA:203,0
DA:213,0
DA:214,0
DA:215,0
DA:216,0
DA:217,0
DA:218,0
DA:249,0
DA:251,0
DA:252,0
DA:253,0
DA:254,0
DA:255,0
DA:256,0
DA:257,0
DA:258,0
DA:259,0
DA:260,0
DA:261,0
BRF:0
BRH:0
LF:51
LH:0
end_of_record
SF:/home/eastgate/Development/ecoPrimals/nestgate/code/crates/nestgate-core/src/cache/types.rs
FN:155,_RNvMs1_NtNtCs2meEIT43k6D_13nestgate_core5cache5typesNtB5_10CacheStats10record_hit
FN:161,_RNvMs1_NtNtCs2meEIT43k6D_13nestgate_core5cache5typesNtB5_10CacheStats11record_miss
FN:138,_RNvMs1_NtNtCs2meEIT43k6D_13nestgate_core5cache5typesNtB5_10CacheStats11total_items
FN:150,_RNvMs1_NtNtCs2meEIT43k6D_13nestgate_core5cache5typesNtB5_10CacheStats15total_evictions
FN:144,_RNvMs1_NtNtCs2meEIT43k6D_13nestgate_core5cache5typesNtB5_10CacheStats16total_size_bytes
FN:167,_RNvMs1_NtNtCs2meEIT43k6D_13nestgate_core5cache5typesNtB5_10CacheStats18record_access_time
FN:127,_RNvMs1_NtNtCs2meEIT43k6D_13nestgate_core5cache5typesNtB5_10CacheStats9hit_ratio
FN:212,_RNvMs3_NtNtCs2meEIT43k6D_13nestgate_core5cache5typesNtB5_17EfficiencyMetrics10update_hit
FN:218,_RNvMs3_NtNtCs2meEIT43k6D_13nestgate_core5cache5typesNtB5_17EfficiencyMetrics11update_miss
FN:224,_RNvMs3_NtNtCs2meEIT43k6D_13nestgate_core5cache5typesNtB5_17EfficiencyMetrics13add_operation
FN:271,_RNvMs3_NtNtCs2meEIT43k6D_13nestgate_core5cache5typesNtB5_17EfficiencyMetrics18calculate_variance
FN:232,_RNvMs3_NtNtCs2meEIT43k6D_13nestgate_core5cache5typesNtB5_17EfficiencyMetrics19recalculate_metrics
FN:251,_RNvMs3_NtNtCs2meEIT43k6D_13nestgate_core5cache5typesNtB5_17EfficiencyMetrics29calculate_effectiveness_score
FN:344,_RNvMs4_NtNtCs2meEIT43k6D_13nestgate_core5cache5typesNtB5_10CacheEntry10is_expired
FN:361,_RNvMs4_NtNtCs2meEIT43k6D_13nestgate_core5cache5typesNtB5_10CacheEntry3age
FN:327,_RNvMs4_NtNtCs2meEIT43k6D_13nestgate_core5cache5typesNtB5_10CacheEntry3new
FN:354,_RNvMs4_NtNtCs2meEIT43k6D_13nestgate_core5cache5typesNtB5_10CacheEntry5touch
FN:100,_RNvXs0_NtNtCs2meEIT43k6D_13nestgate_core5cache5typesNtB5_10CacheStatsNtNtCs5GmCzIpY9Qj_4core7default7Default7default
FN:198,_RNvXs2_NtNtCs2meEIT43k6D_13nestgate_core5cache5typesNtB5_17EfficiencyMetricsNtNtCs5GmCzIpY9Qj_4core7default7Default7default
FN:56,_RNvXs_NtNtCs2meEIT43k6D_13nestgate_core5cache5typesNtB4_11CachePolicyNtNtCs5GmCzIpY9Qj_4core3fmt7Display3fmt
FN:28,_RNvMNtNtCs2meEIT43k6D_13nestgate_core5cache5typesNtNtNtB6_15canonical_types7storage11StorageTier19typical_access_time
FN:16,_RNvMNtNtCs2meEIT43k6D_13nestgate_core5cache5typesNtNtNtB6_15canonical_types7storage11StorageTier8priority
FN:295,_RNCNvMs3_NtNtCs2meEIT43k6D_13nestgate_core5cache5typesNtB7_17EfficiencyMetrics18calculate_variances_0Bb_
FNDA:0,_RNvMs1_NtNtCs2meEIT43k6D_13nestgate_core5cache5typesNtB5_10CacheStats10record_hit
FNDA:0,_RNvMs1_NtNtCs2meEIT43k6D_13nestgate_core5cache5typesNtB5_10CacheStats11record_miss
FNDA:0,_RNvMs1_NtNtCs2meEIT43k6D_13nestgate_core5cache5typesNtB5_10CacheStats11total_items
FNDA:0,_RNvMs1_NtNtCs2meEIT43k6D_13nestgate_core5cache5typesNtB5_10CacheStats15total_evictions
FNDA:0,_RNvMs1_NtNtCs2meEIT43k6D_13nestgate_core5cache5typesNtB5_10CacheStats16total_size_bytes
FNDA:0,_RNvMs1_NtNtCs2meEIT43k6D_13nestgate_core5cache5typesNtB5_10CacheStats18record_access_time
FNDA:0,_RNvMs1_NtNtCs2meEIT43k6D_13nestgate_core5cache5typesNtB5_10CacheStats9hit_ratio
FNDA:0,_RNvMs3_NtNtCs2meEIT43k6D_13nestgate_core5cache5typesNtB5_17EfficiencyMetrics10update_hit
FNDA:0,_RNvMs3_NtNtCs2meEIT43k6D_13nestgate_core5cache5typesNtB5_17EfficiencyMetrics11update_miss
FNDA:0,_RNvMs3_NtNtCs2meEIT43k6D_13nestgate_core5cache5typesNtB5_17EfficiencyMetrics13add_operation
FNDA:0,_RNvMs3_NtNtCs2meEIT43k6D_13nestgate_core5cache5typesNtB5_17EfficiencyMetrics18calculate_variance
FNDA:0,_RNvMs3_NtNtCs2meEIT43k6D_13nestgate_core5cache5typesNtB5_17EfficiencyMetrics19recalculate_metrics
FNDA:0,_RNvMs3_NtNtCs2meEIT43k6D_13nestgate_core5cache5typesNtB5_17EfficiencyMetrics29calculate_effectiveness_score
FNDA:0,_RNvMs4_NtNtCs2meEIT43k6D_13nestgate_core5cache5typesNtB5_10CacheEntry10is_expired
FNDA:0,_RNvMs4_NtNtCs2meEIT43k6D_13nestgate_core5cache5typesNtB5_10CacheEntry3age
FNDA:0,_RNvMs4_NtNtCs2meEIT43k6D_13nestgate_core5cache5typesNtB5_10CacheEntry3new
FNDA:0,_RNvMs4_NtNtCs2meEIT43k6D_13nestgate_core5cache5typesNtB5_10CacheEntry5touch
FNDA:0,_RNvXs0_NtNtCs2meEIT43k6D_13nestgate_core5cache5typesNtB5_10CacheStatsNtNtCs5GmCzIpY9Qj_4core7default7Default7default
FNDA:0,_RNvXs2_NtNtCs2meEIT43k6D_13nestgate_core5cache5typesNtB5_17EfficiencyMetricsNtNtCs5GmCzIpY9Qj_4core7default7Default7default
FNDA:0,_RNvXs_NtNtCs2meEIT43k6D_13nestgate_core5cache5typesNtB4_11CachePolicyNtNtCs5GmCzIpY9Qj_4core3fmt7Display3fmt
FNDA:0,_RNvMNtNtCs2meEIT43k6D_13nestgate_core5cache5typesNtNtNtB6_15canonical_types7storage11StorageTier19typical_access_time
FNDA:0,_RNvMNtNtCs2meEIT43k6D_13nestgate_core5cache5typesNtNtNtB6_15canonical_types7storage11StorageTier8priority
FNDA:0,_RNCNvMs3_NtNtCs2meEIT43k6D_13nestgate_core5cache5typesNtB7_17EfficiencyMetrics18calculate_variances_0Bb_
FNF:23
FNH:0
DA:16,0
DA:17,0
DA:18,0
DA:19,0
DA:20,0
DA:21,0
DA:22,0
DA:24,0
DA:28,0
DA:29,0
DA:30,0
DA:31,0
DA:32,0
DA:33,0
DA:34,0
DA:36,0
DA:56,0
DA:57,0
DA:58,0
DA:59,0
DA:60,0
DA:61,0
DA:63,0
DA:100,0
DA:101,0
DA:102,0
DA:103,0
DA:104,0
DA:106,0
DA:107,0
DA:108,0
DA:109,0
DA:110,0
DA:111,0
DA:112,0
DA:113,0
DA:114,0
DA:115,0
DA:116,0
DA:117,0
DA:118,0
DA:119,0
DA:120,0
DA:121,0
DA:127,0
DA:128,0
DA:129,0
DA:130,0
DA:132,0
DA:134,0
DA:138,0
DA:139,0
DA:140,0
DA:144,0
DA:145,0
DA:146,0
DA:150,0
DA:151,0
DA:152,0
DA:155,0
DA:156,0
DA:157,0
DA:158,0
DA:161,0
DA:162,0
DA:163,0
DA:164,0
DA:167,0
DA:169,0
DA:170,0
DA:171,0
DA:172,0
DA:173,0
DA:174,0
DA:175,0
DA:176,0
DA:177,0
DA:198,0
DA:199,0
DA:200,0
DA:201,0
DA:202,0
DA:203,0
DA:204,0
DA:205,0
DA:206,0
DA:207,0
DA:212,0
DA:213,0
DA:214,0
DA:215,0
DA:218,0
DA:219,0
DA:220,0
DA:221,0
DA:224,0
DA:225,0
DA:226,0
DA:227,0
DA:228,0
DA:229,0
DA:232,0
DA:233,0
DA:234,0
DA:235,0
DA:238,0
DA:239,0
DA:242,0
DA:243,0
DA:244,0
DA:247,0
DA:248,0
DA:251,0
DA:253,0
DA:256,0
DA:257,0
DA:258,0
DA:259,0
DA:261,0
DA:264,0
DA:267,0
DA:268,0
DA:271,0
DA:272,0
DA:273,0
DA:274,0
DA:277,0
DA:278,0
DA:280,0
DA:281,0
DA:282,0
DA:283,0
DA:284,0
DA:285,0
DA:288,0
DA:289,0
DA:290,0
DA:292,0
DA:293,0
DA:294,0
DA:295,0
DA:296,0
DA:297,0
DA:299,0
DA:300,0
DA:327,0
DA:328,0
DA:329,0
DA:330,0
DA:331,0
DA:332,0
DA:333,0
DA:334,0
DA:335,0
DA:336,0
DA:337,0
DA:338,0
DA:339,0
DA:340,0
DA:344,0
DA:345,0
DA:346,0
DA:347,0
DA:349,0
DA:351,0
DA:354,0
DA:355,0
DA:356,0
DA:357,0
DA:361,0
DA:362,0
DA:363,0
BRF:0
BRH:0
LF:173
LH:0
end_of_record
SF:/home/eastgate/Development/ecoPrimals/nestgate/code/crates/nestgate-core/src/canonical/types/config_registry/monitoring.rs
FN:222,_RNvMNtNtNtNtCs2meEIT43k6D_13nestgate_core9canonical5types15config_registry10monitoringNtB2_27CanonicalConfigTypeRegistry12legacy_types
FN:238,_RNvMNtNtNtNtCs2meEIT43k6D_13nestgate_core9canonical5types15config_registry10monitoringNtB2_27CanonicalConfigTypeRegistry14is_legacy_type
FN:204,_RNvMNtNtNtNtCs2meEIT43k6D_13nestgate_core9canonical5types15config_registry10monitoringNtB2_27CanonicalConfigTypeRegistry14network_config
FN:198,_RNvMNtNtNtNtCs2meEIT43k6D_13nestgate_core9canonical5types15config_registry10monitoringNtB2_27CanonicalConfigTypeRegistry14storage_config
FN:210,_RNvMNtNtNtNtCs2meEIT43k6D_13nestgate_core9canonical5types15config_registry10monitoringNtB2_27CanonicalConfigTypeRegistry15security_config
FN:216,_RNvMNtNtNtNtCs2meEIT43k6D_13nestgate_core9canonical5types15config_registry10monitoringNtB2_27CanonicalConfigTypeRegistry17monitoring_config
FNDA:0,_RNvMNtNtNtNtCs2meEIT43k6D_13nestgate_core9canonical5types15config_registry10monitoringNtB2_27CanonicalConfigTypeRegistry12legacy_types
FNDA:0,_RNvMNtNtNtNtCs2meEIT43k6D_13nestgate_core9canonical5types15config_registry10monitoringNtB2_27CanonicalConfigTypeRegistry14is_legacy_type
FNDA:0,_RNvMNtNtNtNtCs2meEIT43k6D_13nestgate_core9canonical5types15config_registry10monitoringNtB2_27CanonicalConfigTypeRegistry14network_config
FNDA:0,_RNvMNtNtNtNtCs2meEIT43k6D_13nestgate_core9canonical5types15config_registry10monitoringNtB2_27CanonicalConfigTypeRegistry14storage_config
FNDA:0,_RNvMNtNtNtNtCs2meEIT43k6D_13nestgate_core9canonical5types15config_registry10monitoringNtB2_27CanonicalConfigTypeRegistry15security_config
FNDA:0,_RNvMNtNtNtNtCs2meEIT43k6D_13nestgate_core9canonical5types15config_registry10monitoringNtB2_27CanonicalConfigTypeRegistry17monitoring_config
FNF:6
FNH:0
DA:198,0
DA:199,0
DA:200,0
DA:204,0
DA:205,0
DA:206,0
DA:210,0
DA:211,0
DA:212,0
DA:216,0
DA:217,0
DA:218,0
DA:222,0
DA:223,0
DA:224,0
DA:225,0
DA:226,0
DA:227,0
DA:228,0
DA:229,0
DA:230,0
DA:231,0
DA:234,0
DA:238,0
DA:239,0
DA:240,0
BRF:0
BRH:0
LF:26
LH:0
end_of_record
SF:/home/eastgate/Development/ecoPrimals/nestgate/code/crates/nestgate-core/src/canonical/types/config_registry/network.rs
FN:252,_RNvXNtNtNtNtCs2meEIT43k6D_13nestgate_core9canonical5types15config_registry7networkNtB2_21LoadBalancingStrategyNtNtCs5GmCzIpY9Qj_4core7default7Default7default
FN:320,_RNvXs_NtNtNtNtCs2meEIT43k6D_13nestgate_core9canonical5types15config_registry7networkNtB4_22ServiceDiscoveryMethodNtNtCs5GmCzIpY9Qj_4core7default7Default7default
FNDA:0,_RNvXNtNtNtNtCs2meEIT43k6D_13nestgate_core9canonical5types15config_registry7networkNtB2_21LoadBalancingStrategyNtNtCs5GmCzIpY9Qj_4core7default7Default7default
FNDA:0,_RNvXs_NtNtNtNtCs2meEIT43k6D_13nestgate_core9canonical5types15config_registry7networkNtB4_22ServiceDiscoveryMethodNtNtCs5GmCzIpY9Qj_4core7default7Default7default
FNF:2
FNH:0
DA:252,0
DA:253,0
DA:254,0
DA:320,0
DA:321,0
DA:322,0
BRF:0
BRH:0
LF:6
LH:0
end_of_record
SF:/home/eastgate/Development/ecoPrimals/nestgate/code/crates/nestgate-core/src/canonical/types/config_registry/storage.rs
FN:33,_RNvXNtNtNtNtCs2meEIT43k6D_13nestgate_core9canonical5types15config_registry7storageNtB2_18StorageBackendTypeNtNtCs5GmCzIpY9Qj_4core7default7Default7default
FN:213,_RNvXs0_NtNtNtNtCs2meEIT43k6D_13nestgate_core9canonical5types15config_registry7storageNtB5_26ConflictResolutionStrategyNtNtCs5GmCzIpY9Qj_4core7default7Default7default
FN:193,_RNvXs_NtNtNtNtCs2meEIT43k6D_13nestgate_core9canonical5types15config_registry7storageNtB4_19ReplicationSyncModeNtNtCs5GmCzIpY9Qj_4core7default7Default7default
FNDA:0,_RNvXNtNtNtNtCs2meEIT43k6D_13nestgate_core9canonical5types15config_registry7storageNtB2_18StorageBackendTypeNtNtCs5GmCzIpY9Qj_4core7default7Default7default
FNDA:0,_RNvXs0_NtNtNtNtCs2meEIT43k6D_13nestgate_core9canonical5types15config_registry7storageNtB5_26ConflictResolutionStrategyNtNtCs5GmCzIpY9Qj_4core7default7Default7default
FNDA:0,_RNvXs_NtNtNtNtCs2meEIT43k6D_13nestgate_core9canonical5types15config_registry7storageNtB4_19ReplicationSyncModeNtNtCs5GmCzIpY9Qj_4core7default7Default7default
FNF:3
FNH:0
DA:33,0
DA:34,0
DA:35,0
DA:193,0
DA:194,0
DA:195,0
DA:213,0
DA:214,0
DA:215,0
BRF:0
BRH:0
LF:9
LH:0
end_of_record
SF:/home/eastgate/Development/ecoPrimals/nestgate/code/crates/nestgate-core/src/canonical/types/core_types.rs
FN:202,_RNvXNtNtNtCs2meEIT43k6D_13nestgate_core9canonical5types10core_typesNtB2_11ServiceInfoNtNtCs5GmCzIpY9Qj_4core7default7Default7default
FN:230,_RNvXs0_NtNtNtCs2meEIT43k6D_13nestgate_core9canonical5types10core_typesNtB5_9AlertRuleNtNtCs5GmCzIpY9Qj_4core7default7Default7default
FN:243,_RNvXs1_NtNtNtCs2meEIT43k6D_13nestgate_core9canonical5types10core_typesNtB5_5AlertNtNtCs5GmCzIpY9Qj_4core7default7Default7default
FN:257,_RNvXs2_NtNtNtCs2meEIT43k6D_13nestgate_core9canonical5types10core_typesNtB5_12AlertChannelNtNtCs5GmCzIpY9Qj_4core7default7Default7default
FN:269,_RNvXs3_NtNtNtCs2meEIT43k6D_13nestgate_core9canonical5types10core_typesNtB5_15SuppressionRuleNtNtCs5GmCzIpY9Qj_4core7default7Default7default
FN:282,_RNvXs4_NtNtNtCs2meEIT43k6D_13nestgate_core9canonical5types10core_typesNtB5_11HealthCheckNtNtCs5GmCzIpY9Qj_4core7default7Default7default
FN:219,_RNvXs_NtNtNtCs2meEIT43k6D_13nestgate_core9canonical5types10core_typesNtB4_12EventHandlerNtNtCs5GmCzIpY9Qj_4core7default7Default7default
FNDA:0,_RNvXNtNtNtCs2meEIT43k6D_13nestgate_core9canonical5types10core_typesNtB2_11ServiceInfoNtNtCs5GmCzIpY9Qj_4core7default7Default7default
FNDA:0,_RNvXs0_NtNtNtCs2meEIT43k6D_13nestgate_core9canonical5types10core_typesNtB5_9AlertRuleNtNtCs5GmCzIpY9Qj_4core7default7Default7default
FNDA:0,_RNvXs1_NtNtNtCs2meEIT43k6D_13nestgate_core9canonical5types10core_typesNtB5_5AlertNtNtCs5GmCzIpY9Qj_4core7default7Default7default
FNDA:0,_RNvXs2_NtNtNtCs2meEIT43k6D_13nestgate_core9canonical5types10core_typesNtB5_12AlertChannelNtNtCs5GmCzIpY9Qj_4core7default7Default7default
FNDA:0,_RNvXs3_NtNtNtCs2meEIT43k6D_13nestgate_core9canonical5types10core_typesNtB5_15SuppressionRuleNtNtCs5GmCzIpY9Qj_4core7default7Default7default
FNDA:0,_RNvXs4_NtNtNtCs2meEIT43k6D_13nestgate_core9canonical5types10core_typesNtB5_11HealthCheckNtNtCs5GmCzIpY9Qj_4core7default7Default7default
FNDA:0,_RNvXs_NtNtNtCs2meEIT43k6D_13nestgate_core9canonical5types10core_typesNtB4_12EventHandlerNtNtCs5GmCzIpY9Qj_4core7default7Default7default
FNF:7
FNH:0
DA:202,0
DA:204,0
DA:205,0
DA:206,0
DA:207,0
DA:208,0
DA:209,0
DA:210,0
DA:211,0
DA:212,0
DA:213,0
DA:214,0
DA:219,0
DA:220,0
DA:221,0
DA:222,0
DA:223,0
DA:224,0
DA:225,0
DA:230,0
DA:231,0
DA:232,0
DA:233,0
DA:234,0
DA:235,0
DA:236,0
DA:237,0
DA:238,0
DA:243,0
DA:244,0
DA:245,0
DA:246,0
DA:247,0
DA:248,0
DA:249,0
DA:250,0
DA:251,0
DA:252,0
DA:257,0
DA:258,0
DA:259,0
DA:260,0
DA:261,0
DA:262,0
DA:263,0
DA:264,0
DA:269,0
DA:270,0
DA:271,0
DA:272,0
DA:273,0
DA:274,0
DA:275,0
DA:276,0
DA:277,0
DA:282,0
DA:283,0
DA:284,0
DA:285,0
DA:286,0
DA:287,0
DA:288,0
DA:289,0
DA:290,0
DA:291,0
BRF:0
BRH:0
LF:65
LH:0
end_of_record
SF:/home/eastgate/Development/ecoPrimals/nestgate/code/crates/nestgate-core/src/canonical_modernization/builders.rs
FN:38,_RINvMNtNtCs2meEIT43k6D_13nestgate_core23canonical_modernization8buildersNtB3_22CanonicalConfigBuilder12service_namepEB7_
FN:80,_RNvMs0_NtNtCs2meEIT43k6D_13nestgate_core23canonical_modernization8buildersNtNtNtB9_6config17canonical_primary23NestGateCanonicalConfig14default_config
FN:61,_RNvMNtNtCs2meEIT43k6D_13nestgate_core23canonical_modernization8buildersNtB2_22CanonicalConfigBuilder10enable_tls
FN:45,_RNvMNtNtCs2meEIT43k6D_13nestgate_core23canonical_modernization8buildersNtB2_22CanonicalConfigBuilder11environment
FN:19,_RNvMNtNtCs2meEIT43k6D_13nestgate_core23canonical_modernization8buildersNtB2_22CanonicalConfigBuilder3new
FN:30,_RNvMNtNtCs2meEIT43k6D_13nestgate_core23canonical_modernization8buildersNtB2_22CanonicalConfigBuilder5build
FN:52,_RNvMNtNtCs2meEIT43k6D_13nestgate_core23canonical_modernization8buildersNtB2_22CanonicalConfigBuilder8api_port
FN:71,_RNvXs_NtNtCs2meEIT43k6D_13nestgate_core23canonical_modernization8buildersNtB4_22CanonicalConfigBuilderNtNtCs5GmCzIpY9Qj_4core7default7Default7default
FNDA:0,_RINvMNtNtCs2meEIT43k6D_13nestgate_core23canonical_modernization8buildersNtB3_22CanonicalConfigBuilder12service_namepEB7_
FNDA:0,_RNvMs0_NtNtCs2meEIT43k6D_13nestgate_core23canonical_modernization8buildersNtNtNtB9_6config17canonical_primary23NestGateCanonicalConfig14default_config
FNDA:0,_RNvMNtNtCs2meEIT43k6D_13nestgate_core23canonical_modernization8buildersNtB2_22CanonicalConfigBuilder10enable_tls
FNDA:0,_RNvMNtNtCs2meEIT43k6D_13nestgate_core23canonical_modernization8buildersNtB2_22CanonicalConfigBuilder11environment
FNDA:0,_RNvMNtNtCs2meEIT43k6D_13nestgate_core23canonical_modernization8buildersNtB2_22CanonicalConfigBuilder3new
FNDA:0,_RNvMNtNtCs2meEIT43k6D_13nestgate_core23canonical_modernization8buildersNtB2_22CanonicalConfigBuilder5build
FNDA:0,_RNvMNtNtCs2meEIT43k6D_13nestgate_core23canonical_modernization8buildersNtB2_22CanonicalConfigBuilder8api_port
FNDA:0,_RNvXs_NtNtCs2meEIT43k6D_13nestgate_core23canonical_modernization8buildersNtB4_22CanonicalConfigBuilderNtNtCs5GmCzIpY9Qj_4core7default7Default7default
FNF:8
FNH:0
DA:19,0
DA:20,0
DA:21,0
DA:22,0
DA:23,0
DA:30,0
DA:33,0
DA:34,0
DA:38,0
DA:39,0
DA:40,0
DA:41,0
DA:45,0
DA:46,0
DA:47,0
DA:48,0
DA:52,0
DA:56,0
DA:57,0
DA:61,0
DA:65,0
DA:66,0
DA:71,0
DA:72,0
DA:73,0
DA:80,0
DA:81,0
DA:82,0
BRF:0
BRH:0
LF:28
LH:0
end_of_record
SF:/home/eastgate/Development/ecoPrimals/nestgate/code/crates/nestgate-core/src/canonical_modernization/idiomatic_evolution/builders.rs
FN:51,_RNvMNtNtNtCs2meEIT43k6D_13nestgate_core23canonical_modernization19idiomatic_evolution8buildersINtB2_22IdiomaticConfigBuilderpE13with_metadataB8_
FN:28,_RNvMNtNtNtCs2meEIT43k6D_13nestgate_core23canonical_modernization19idiomatic_evolution8buildersINtB2_22IdiomaticConfigBuilderpE3newB8_
FN:115,_RNvMs0_NtNtNtCs2meEIT43k6D_13nestgate_core23canonical_modernization19idiomatic_evolution8buildersINtB5_18SmartConfigBuilderpE19apply_modernizationBb_
FN:99,_RNvMs0_NtNtNtCs2meEIT43k6D_13nestgate_core23canonical_modernization19idiomatic_evolution8buildersINtB5_18SmartConfigBuilderpE23with_evolution_metadataBb_
FN:85,_RNvMs0_NtNtNtCs2meEIT43k6D_13nestgate_core23canonical_modernization19idiomatic_evolution8buildersINtB5_18SmartConfigBuilderpE3newBb_
FN:168,_RNvMs2_NtNtNtCs2meEIT43k6D_13nestgate_core23canonical_modernization19idiomatic_evolution8buildersINtB5_21EvolutionAwareBuilderpE19check_compatibilityBb_
FN:188,_RNvMs2_NtNtNtCs2meEIT43k6D_13nestgate_core23canonical_modernization19idiomatic_evolution8buildersINtB5_21EvolutionAwareBuilderpE20with_evolution_scoreBb_
FN:149,_RNvMs2_NtNtNtCs2meEIT43k6D_13nestgate_core23canonical_modernization19idiomatic_evolution8buildersINtB5_21EvolutionAwareBuilderpE3newBb_
FN:238,_RNvMs4_NtNtNtCs2meEIT43k6D_13nestgate_core23canonical_modernization19idiomatic_evolution8buildersINtB5_16CanonicalBuilderpE24apply_canonical_patternsBb_
FN:220,_RNvMs4_NtNtNtCs2meEIT43k6D_13nestgate_core23canonical_modernization19idiomatic_evolution8buildersINtB5_16CanonicalBuilderpE3newBb_
FN:314,_RNvMs6_NtNtNtCs2meEIT43k6D_13nestgate_core23canonical_modernization19idiomatic_evolution8buildersINtB5_20ModernizationBuilderpE15enable_rollbackBb_
FN:294,_RNvMs6_NtNtNtCs2meEIT43k6D_13nestgate_core23canonical_modernization19idiomatic_evolution8buildersINtB5_20ModernizationBuilderpE22add_modernization_stepBb_
FN:271,_RNvMs6_NtNtNtCs2meEIT43k6D_13nestgate_core23canonical_modernization19idiomatic_evolution8buildersINtB5_20ModernizationBuilderpE3newBb_
FN:123,_RNvXININtNtNtCs2meEIT43k6D_13nestgate_core23canonical_modernization19idiomatic_evolution8builderss1_0pEINtB5_18SmartConfigBuilderpENtNtCs5GmCzIpY9Qj_4core7default7Default7defaultBb_
FN:196,_RNvXININtNtNtCs2meEIT43k6D_13nestgate_core23canonical_modernization19idiomatic_evolution8builderss3_0pEINtB5_21EvolutionAwareBuilderpENtNtCs5GmCzIpY9Qj_4core7default7Default7defaultBb_
FN:246,_RNvXININtNtNtCs2meEIT43k6D_13nestgate_core23canonical_modernization19idiomatic_evolution8builderss5_0pEINtB5_16CanonicalBuilderpENtNtCs5GmCzIpY9Qj_4core7default7Default7defaultBb_
FN:322,_RNvXININtNtNtCs2meEIT43k6D_13nestgate_core23canonical_modernization19idiomatic_evolution8builderss7_0pEINtB5_20ModernizationBuilderpENtNtCs5GmCzIpY9Qj_4core7default7Default7defaultBb_
FN:59,_RNvXININtNtNtCs2meEIT43k6D_13nestgate_core23canonical_modernization19idiomatic_evolution8builderss_0pEINtB5_22IdiomaticConfigBuilderpENtNtCs5GmCzIpY9Qj_4core7default7Default7defaultBb_
FNDA:0,_RNvMNtNtNtCs2meEIT43k6D_13nestgate_core23canonical_modernization19idiomatic_evolution8buildersINtB2_22IdiomaticConfigBuilderpE13with_metadataB8_
FNDA:0,_RNvMNtNtNtCs2meEIT43k6D_13nestgate_core23canonical_modernization19idiomatic_evolution8buildersINtB2_22IdiomaticConfigBuilderpE3newB8_
FNDA:0,_RNvMs0_NtNtNtCs2meEIT43k6D_13nestgate_core23canonical_modernization19idiomatic_evolution8buildersINtB5_18SmartConfigBuilderpE19apply_modernizationBb_
FNDA:0,_RNvMs0_NtNtNtCs2meEIT43k6D_13nestgate_core23canonical_modernization19idiomatic_evolution8buildersINtB5_18SmartConfigBuilderpE23with_evolution_metadataBb_
FNDA:0,_RNvMs0_NtNtNtCs2meEIT43k6D_13nestgate_core23canonical_modernization19idiomatic_evolution8buildersINtB5_18SmartConfigBuilderpE3newBb_
FNDA:0,_RNvMs2_NtNtNtCs2meEIT43k6D_13nestgate_core23canonical_modernization19idiomatic_evolution8buildersINtB5_21EvolutionAwareBuilderpE19check_compatibilityBb_
FNDA:0,_RNvMs2_NtNtNtCs2meEIT43k6D_13nestgate_core23canonical_modernization19idiomatic_evolution8buildersINtB5_21EvolutionAwareBuilderpE20with_evolution_scoreBb_
FNDA:0,_RNvMs2_NtNtNtCs2meEIT43k6D_13nestgate_core23canonical_modernization19idiomatic_evolution8buildersINtB5_21EvolutionAwareBuilderpE3newBb_
FNDA:0,_RNvMs4_NtNtNtCs2meEIT43k6D_13nestgate_core23canonical_modernization19idiomatic_evolution8buildersINtB5_16CanonicalBuilderpE24apply_canonical_patternsBb_
FNDA:0,_RNvMs4_NtNtNtCs2meEIT43k6D_13nestgate_core23canonical_modernization19idiomatic_evolution8buildersINtB5_16CanonicalBuilderpE3newBb_
FNDA:0,_RNvMs6_NtNtNtCs2meEIT43k6D_13nestgate_core23canonical_modernization19idiomatic_evolution8buildersINtB5_20ModernizationBuilderpE15enable_rollbackBb_
FNDA:0,_RNvMs6_NtNtNtCs2meEIT43k6D_13nestgate_core23canonical_modernization19idiomatic_evolution8buildersINtB5_20ModernizationBuilderpE22add_modernization_stepBb_
FNDA:0,_RNvMs6_NtNtNtCs2meEIT43k6D_13nestgate_core23canonical_modernization19idiomatic_evolution8buildersINtB5_20ModernizationBuilderpE3newBb_
FNDA:0,_RNvXININtNtNtCs2meEIT43k6D_13nestgate_core23canonical_modernization19idiomatic_evolution8builderss1_0pEINtB5_18SmartConfigBuilderpENtNtCs5GmCzIpY9Qj_4core7default7Default7defaultBb_
FNDA:0,_RNvXININtNtNtCs2meEIT43k6D_13nestgate_core23canonical_modernization19idiomatic_evolution8builderss3_0pEINtB5_21EvolutionAwareBuilderpENtNtCs5GmCzIpY9Qj_4core7default7Default7defaultBb_
FNDA:0,_RNvXININtNtNtCs2meEIT43k6D_13nestgate_core23canonical_modernization19idiomatic_evolution8builderss5_0pEINtB5_16CanonicalBuilderpENtNtCs5GmCzIpY9Qj_4core7default7Default7defaultBb_
FNDA:0,_RNvXININtNtNtCs2meEIT43k6D_13nestgate_core23canonical_modernization19idiomatic_evolution8builderss7_0pEINtB5_20ModernizationBuilderpENtNtCs5GmCzIpY9Qj_4core7default7Default7defaultBb_
FNDA:0,_RNvXININtNtNtCs2meEIT43k6D_13nestgate_core23canonical_modernization19idiomatic_evolution8builderss_0pEINtB5_22IdiomaticConfigBuilderpENtNtCs5GmCzIpY9Qj_4core7default7Default7defaultBb_
FNF:18
FNH:0
DA:28,0
DA:29,0
DA:30,0
DA:31,0
DA:32,0
DA:33,0
DA:51,0
DA:52,0
DA:53,0
DA:54,0
DA:59,0
DA:60,0
DA:61,0
DA:85,0
DA:86,0
DA:87,0
DA:88,0
DA:89,0
DA:90,0
DA:91,0
DA:99,0
DA:100,0
DA:101,0
DA:102,0
DA:115,0
DA:116,0
DA:117,0
DA:118,0
DA:123,0
DA:124,0
DA:125,0
DA:149,0
DA:150,0
DA:151,0
DA:152,0
DA:153,0
DA:154,0
DA:155,0
DA:168,0
DA:169,0
DA:170,0
DA:171,0
DA:188,0
DA:189,0
DA:190,0
DA:191,0
DA:196,0
DA:197,0
DA:198,0
DA:220,0
DA:221,0
DA:222,0
DA:223,0
DA:224,0
DA:225,0
DA:238,0
DA:239,0
DA:240,0
DA:241,0
DA:246,0
DA:247,0
DA:248,0
DA:271,0
DA:272,0
DA:273,0
DA:274,0
DA:275,0
DA:276,0
DA:277,0
DA:294,0
DA:295,0
DA:296,0
DA:297,0
DA:314,0
DA:315,0
DA:316,0
DA:317,0
DA:322,0
DA:323,0
DA:324,0
BRF:0
BRH:0
LF:80
LH:0
end_of_record
SF:/home/eastgate/Development/ecoPrimals/nestgate/code/crates/nestgate-core/src/canonical_modernization/idiomatic_evolution/evolution.rs
FN:263,_RINvMs3_NtNtNtCs2meEIT43k6D_13nestgate_core23canonical_modernization19idiomatic_evolution9evolutionNtB6_19ModernizationEngine14apply_patternspEBc_
FN:199,_RINvMs1_NtNtNtCs2meEIT43k6D_13nestgate_core23canonical_modernization19idiomatic_evolution9evolutionNtB6_20CompatibilityChecker8validateuEBc_
FNDA:0,_RINvMs3_NtNtNtCs2meEIT43k6D_13nestgate_core23canonical_modernization19idiomatic_evolution9evolutionNtB6_19ModernizationEngine14apply_patternspEBc_
FNDA:0,_RINvMs1_NtNtNtCs2meEIT43k6D_13nestgate_core23canonical_modernization19idiomatic_evolution9evolutionNtB6_20CompatibilityChecker8validateuEBc_
FNF:2
FNH:0
DA:199,0
DA:201,0
DA:202,0
DA:263,0
DA:265,0
DA:266,0
BRF:0
BRH:0
LF:6
LH:0
end_of_record
SF:/home/eastgate/Development/ecoPrimals/nestgate/code/crates/nestgate-core/src/canonical_modernization/idiomatic_evolution/implementations.rs
FN:113,_RINvMsa_NtNtNtCs2meEIT43k6D_13nestgate_core23canonical_modernization19idiomatic_evolution15implementationsNtB6_19CollectionEvolution13modernize_vecpEBc_
FN:122,_RINvMsb_NtNtNtCs2meEIT43k6D_13nestgate_core23canonical_modernization19idiomatic_evolution15implementationsNtB6_15ConfigEvolution21apply_config_patternspEBc_
FN:131,_RINvMsc_NtNtNtCs2meEIT43k6D_13nestgate_core23canonical_modernization19idiomatic_evolution15implementationsNtB6_16ServiceEvolution24modernize_service_configpEBc_
FN:11,_RNvXNtNtNtCs2meEIT43k6D_13nestgate_core23canonical_modernization19idiomatic_evolution15implementationsNtNtCscmSb185pVu_5alloc6string6StringNtNtB4_6traits12SmartDefault13smart_default
FN:140,_RNvXsd_NtNtNtCs2meEIT43k6D_13nestgate_core23canonical_modernization19idiomatic_evolution15implementationsNtNtCscmSb185pVu_5alloc6string6StringNtNtB7_6traits10SmartClone11smart_clone
FN:79,_RNvMs7_NtNtNtCs2meEIT43k6D_13nestgate_core23canonical_modernization19idiomatic_evolution15implementationsNtB5_15StringEvolution16modernize_string
FN:89,_RNvMs8_NtNtNtCs2meEIT43k6D_13nestgate_core23canonical_modernization19idiomatic_evolution15implementationsNtB5_16NumericEvolution14modernize_port
FN:103,_RNvMs9_NtNtNtCs2meEIT43k6D_13nestgate_core23canonical_modernization19idiomatic_evolution15implementationsNtB5_16BooleanEvolution14modernize_flag
FN:25,_RNvXs0_NtNtNtCs2meEIT43k6D_13nestgate_core23canonical_modernization19idiomatic_evolution15implementationsmNtNtB7_6traits12SmartDefault13smart_default
FN:32,_RNvXs1_NtNtNtCs2meEIT43k6D_13nestgate_core23canonical_modernization19idiomatic_evolution15implementationsyNtNtB7_6traits12SmartDefault13smart_default
FN:39,_RNvXs2_NtNtNtCs2meEIT43k6D_13nestgate_core23canonical_modernization19idiomatic_evolution15implementationsjNtNtB7_6traits12SmartDefault13smart_default
FN:46,_RNvXs3_NtNtNtCs2meEIT43k6D_13nestgate_core23canonical_modernization19idiomatic_evolution15implementationsbNtNtB7_6traits12SmartDefault13smart_default
FN:53,_RNvXs4_NtNtNtCs2meEIT43k6D_13nestgate_core23canonical_modernization19idiomatic_evolution15implementationslNtNtB7_6traits12SmartDefault13smart_default
FN:60,_RNvXs5_NtNtNtCs2meEIT43k6D_13nestgate_core23canonical_modernization19idiomatic_evolution15implementationsxNtNtB7_6traits12SmartDefault13smart_default
FN:67,_RNvXs6_NtNtNtCs2meEIT43k6D_13nestgate_core23canonical_modernization19idiomatic_evolution15implementationsdNtNtB7_6traits12SmartDefault13smart_default
FN:18,_RNvXs_NtNtNtCs2meEIT43k6D_13nestgate_core23canonical_modernization19idiomatic_evolution15implementationstNtNtB6_6traits12SmartDefault13smart_default
FN:147,_RNvXse_NtNtNtCs2meEIT43k6D_13nestgate_core23canonical_modernization19idiomatic_evolution15implementationsmNtNtB7_6traits10SmartClone11smart_clone
FN:154,_RNvXsf_NtNtNtCs2meEIT43k6D_13nestgate_core23canonical_modernization19idiomatic_evolution15implementationsbNtNtB7_6traits10SmartClone11smart_clone
FNDA:0,_RINvMsa_NtNtNtCs2meEIT43k6D_13nestgate_core23canonical_modernization19idiomatic_evolution15implementationsNtB6_19CollectionEvolution13modernize_vecpEBc_
FNDA:0,_RINvMsb_NtNtNtCs2meEIT43k6D_13nestgate_core23canonical_modernization19idiomatic_evolution15implementationsNtB6_15ConfigEvolution21apply_config_patternspEBc_
FNDA:0,_RINvMsc_NtNtNtCs2meEIT43k6D_13nestgate_core23canonical_modernization19idiomatic_evolution15implementationsNtB6_16ServiceEvolution24modernize_service_configpEBc_
FNDA:0,_RNvXNtNtNtCs2meEIT43k6D_13nestgate_core23canonical_modernization19idiomatic_evolution15implementationsNtNtCscmSb185pVu_5alloc6string6StringNtNtB4_6traits12SmartDefault13smart_default
FNDA:0,_RNvXsd_NtNtNtCs2meEIT43k6D_13nestgate_core23canonical_modernization19idiomatic_evolution15implementationsNtNtCscmSb185pVu_5alloc6string6StringNtNtB7_6traits10SmartClone11smart_clone
FNDA:0,_RNvMs7_NtNtNtCs2meEIT43k6D_13nestgate_core23canonical_modernization19idiomatic_evolution15implementationsNtB5_15StringEvolution16modernize_string
FNDA:0,_RNvMs8_NtNtNtCs2meEIT43k6D_13nestgate_core23canonical_modernization19idiomatic_evolution15implementationsNtB5_16NumericEvolution14modernize_port
FNDA:0,_RNvMs9_NtNtNtCs2meEIT43k6D_13nestgate_core23canonical_modernization19idiomatic_evolution15implementationsNtB5_16BooleanEvolution14modernize_flag
FNDA:0,_RNvXs0_NtNtNtCs2meEIT43k6D_13nestgate_core23canonical_modernization19idiomatic_evolution15implementationsmNtNtB7_6traits12SmartDefault13smart_default
FNDA:0,_RNvXs1_NtNtNtCs2meEIT43k6D_13nestgate_core23canonical_modernization19idiomatic_evolution15implementationsyNtNtB7_6traits12SmartDefault13smart_default
FNDA:0,_RNvXs2_NtNtNtCs2meEIT43k6D_13nestgate_core23canonical_modernization19idiomatic_evolution15implementationsjNtNtB7_6traits12SmartDefault13smart_default
FNDA:0,_RNvXs3_NtNtNtCs2meEIT43k6D_13nestgate_core23canonical_modernization19idiomatic_evolution15implementationsbNtNtB7_6traits12SmartDefault13smart_default
FNDA:0,_RNvXs4_NtNtNtCs2meEIT43k6D_13nestgate_core23canonical_modernization19idiomatic_evolution15implementationslNtNtB7_6traits12SmartDefault13smart_default
FNDA:0,_RNvXs5_NtNtNtCs2meEIT43k6D_13nestgate_core23canonical_modernization19idiomatic_evolution15implementationsxNtNtB7_6traits12SmartDefault13smart_default
FNDA:0,_RNvXs6_NtNtNtCs2meEIT43k6D_13nestgate_core23canonical_modernization19idiomatic_evolution15implementationsdNtNtB7_6traits12SmartDefault13smart_default
FNDA:0,_RNvXs_NtNtNtCs2meEIT43k6D_13nestgate_core23canonical_modernization19idiomatic_evolution15implementationstNtNtB6_6traits12SmartDefault13smart_default
FNDA:0,_RNvXse_NtNtNtCs2meEIT43k6D_13nestgate_core23canonical_modernization19idiomatic_evolution15implementationsmNtNtB7_6traits10SmartClone11smart_clone
FNDA:0,_RNvXsf_NtNtNtCs2meEIT43k6D_13nestgate_core23canonical_modernization19idiomatic_evolution15implementationsbNtNtB7_6traits10SmartClone11smart_clone
FNF:18
FNH:0
DA:11,0
DA:12,0
DA:13,0
DA:18,0
DA:19,0
DA:20,0
DA:25,0
DA:26,0
DA:27,0
DA:32,0
DA:33,0
DA:34,0
DA:39,0
DA:40,0
DA:41,0
DA:46,0
DA:47,0
DA:48,0
DA:53,0
DA:54,0
DA:55,0
DA:60,0
DA:61,0
DA:62,0
DA:67,0
DA:68,0
DA:69,0
DA:79,0
DA:80,0
DA:81,0
DA:89,0
DA:90,0
DA:91,0
DA:93,0
DA:95,0
DA:103,0
DA:104,0
DA:105,0
DA:113,0
DA:114,0
DA:115,0
DA:122,0
DA:123,0
DA:124,0
DA:131,0
DA:132,0
DA:133,0
DA:140,0
DA:141,0
DA:142,0
DA:147,0
DA:148,0
DA:149,0
DA:154,0
DA:155,0
DA:156,0
BRF:0
BRH:0
LF:56
LH:0
end_of_record
SF:/home/eastgate/Development/ecoPrimals/nestgate/code/crates/nestgate-core/src/canonical_modernization/idiomatic_evolution/mod.rs
FN:109,_RINvMNtNtCs2meEIT43k6D_13nestgate_core23canonical_modernization19idiomatic_evolutionNtB3_24IdiomaticEvolutionSystem15apply_evolutionpEB7_
FNDA:0,_RINvMNtNtCs2meEIT43k6D_13nestgate_core23canonical_modernization19idiomatic_evolutionNtB3_24IdiomaticEvolutionSystem15apply_evolutionpEB7_
FNF:1
FNH:0
DA:109,0
DA:110,0
DA:111,0
DA:114,0
DA:117,0
DA:119,0
DA:120,0
BRF:0
BRH:0
LF:7
LH:0
end_of_record
SF:/home/eastgate/Development/ecoPrimals/nestgate/code/crates/nestgate-core/src/canonical_modernization/idiomatic_evolution/patterns.rs
FN:15,_RINvNtNtNtCs2meEIT43k6D_13nestgate_core23canonical_modernization19idiomatic_evolution8patterns18safe_smart_defaultpEB8_
FN:94,_RINvNtNtNtCs2meEIT43k6D_13nestgate_core23canonical_modernization19idiomatic_evolution8patterns18validate_evolutionpEB8_
FN:62,_RINvNtNtNtCs2meEIT43k6D_13nestgate_core23canonical_modernization19idiomatic_evolution8patterns22safe_evolution_patternpEB8_
FN:81,_RINvNtNtNtCs2meEIT43k6D_13nestgate_core23canonical_modernization19idiomatic_evolution8patterns23batch_evolution_patternpEB8_
FN:19,_RINvNtNtNtCs2meEIT43k6D_13nestgate_core23canonical_modernization19idiomatic_evolution8patterns23with_evolution_metadatapEB8_
FN:35,_RINvNtNtNtCs2meEIT43k6D_13nestgate_core23canonical_modernization19idiomatic_evolution8patterns24create_idiomatic_builderppEB8_
FN:46,_RINvNtNtNtCs2meEIT43k6D_13nestgate_core23canonical_modernization19idiomatic_evolution8patterns24smart_conversion_patternppEB8_
FN:27,_RINvNtNtNtCs2meEIT43k6D_13nestgate_core23canonical_modernization19idiomatic_evolution8patterns27apply_modernization_patternpEB8_
FNDA:0,_RINvNtNtNtCs2meEIT43k6D_13nestgate_core23canonical_modernization19idiomatic_evolution8patterns18safe_smart_defaultpEB8_
FNDA:0,_RINvNtNtNtCs2meEIT43k6D_13nestgate_core23canonical_modernization19idiomatic_evolution8patterns18validate_evolutionpEB8_
FNDA:0,_RINvNtNtNtCs2meEIT43k6D_13nestgate_core23canonical_modernization19idiomatic_evolution8patterns22safe_evolution_patternpEB8_
FNDA:0,_RINvNtNtNtCs2meEIT43k6D_13nestgate_core23canonical_modernization19idiomatic_evolution8patterns23batch_evolution_patternpEB8_
FNDA:0,_RINvNtNtNtCs2meEIT43k6D_13nestgate_core23canonical_modernization19idiomatic_evolution8patterns23with_evolution_metadatapEB8_
FNDA:0,_RINvNtNtNtCs2meEIT43k6D_13nestgate_core23canonical_modernization19idiomatic_evolution8patterns24create_idiomatic_builderppEB8_
FNDA:0,_RINvNtNtNtCs2meEIT43k6D_13nestgate_core23canonical_modernization19idiomatic_evolution8patterns24smart_conversion_patternppEB8_
FNDA:0,_RINvNtNtNtCs2meEIT43k6D_13nestgate_core23canonical_modernization19idiomatic_evolution8patterns27apply_modernization_patternpEB8_
FNF:8
FNH:0
DA:15,0
DA:16,0
DA:17,0
DA:19,0
DA:20,0
DA:21,0
DA:27,0
DA:28,0
DA:29,0
DA:31,0
DA:32,0
DA:35,0
DA:36,0
DA:37,0
DA:39,0
DA:40,0
DA:46,0
DA:47,0
DA:48,0
DA:49,0
DA:52,0
DA:55,0
DA:56,0
DA:62,0
DA:63,0
DA:64,0
DA:66,0
DA:68,0
DA:69,0
DA:72,0
DA:75,0
DA:81,0
DA:82,0
DA:83,0
DA:85,0
DA:87,0
DA:88,0
DA:91,0
DA:92,0
DA:94,0
DA:95,0
DA:96,0
DA:99,0
DA:102,0
DA:103,0
DA:104,0
DA:105,0
DA:106,0
DA:108,0
DA:109,0
BRF:0
BRH:0
LF:50
LH:0
end_of_record
SF:/home/eastgate/Development/ecoPrimals/nestgate/code/crates/nestgate-core/src/canonical_modernization/idiomatic_evolution/traits.rs
FN:50,_RNvYpNtNtNtNtCs2meEIT43k6D_13nestgate_core23canonical_modernization19idiomatic_evolution6traits10SmartClone24smart_clone_with_contextBb_
FN:26,_RNvYpNtNtNtNtCs2meEIT43k6D_13nestgate_core23canonical_modernization19idiomatic_evolution6traits12SmartDefault18can_derive_defaultBb_
FN:15,_RNvYpNtNtNtNtCs2meEIT43k6D_13nestgate_core23canonical_modernization19idiomatic_evolution6traits12SmartDefault26smart_default_with_contextBb_
FN:112,_RNvYpNtNtNtNtCs2meEIT43k6D_13nestgate_core23canonical_modernization19idiomatic_evolution6traits18CanonicalEvolution18evolve_canonicallyBb_
FN:126,_RNvYpNtNtNtNtCs2meEIT43k6D_13nestgate_core23canonical_modernization19idiomatic_evolution6traits18CanonicalEvolution19get_evolution_scoreBb_
FN:98,_RNvYpNtNtNtNtCs2meEIT43k6D_13nestgate_core23canonical_modernization19idiomatic_evolution6traits18ModernizationTrait19needs_modernizationBb_
FN:103,_RNvYpNtNtNtNtCs2meEIT43k6D_13nestgate_core23canonical_modernization19idiomatic_evolution6traits18ModernizationTrait33get_modernization_recommendationsBb_
FN:71,_RNvYpNtNtNtNtCs2meEIT43k6D_13nestgate_core23canonical_modernization19idiomatic_evolution6traits19EvolutionCompatible21get_evolution_versionBb_
FN:80,_RNvYpNtNtNtNtCs2meEIT43k6D_13nestgate_core23canonical_modernization19idiomatic_evolution6traits19EvolutionCompatible25apply_compatibility_fixesBb_
FNDA:0,_RNvYpNtNtNtNtCs2meEIT43k6D_13nestgate_core23canonical_modernization19idiomatic_evolution6traits10SmartClone24smart_clone_with_contextBb_
FNDA:0,_RNvYpNtNtNtNtCs2meEIT43k6D_13nestgate_core23canonical_modernization19idiomatic_evolution6traits12SmartDefault18can_derive_defaultBb_
FNDA:0,_RNvYpNtNtNtNtCs2meEIT43k6D_13nestgate_core23canonical_modernization19idiomatic_evolution6traits12SmartDefault26smart_default_with_contextBb_
FNDA:0,_RNvYpNtNtNtNtCs2meEIT43k6D_13nestgate_core23canonical_modernization19idiomatic_evolution6traits18CanonicalEvolution18evolve_canonicallyBb_
FNDA:0,_RNvYpNtNtNtNtCs2meEIT43k6D_13nestgate_core23canonical_modernization19idiomatic_evolution6traits18CanonicalEvolution19get_evolution_scoreBb_
FNDA:0,_RNvYpNtNtNtNtCs2meEIT43k6D_13nestgate_core23canonical_modernization19idiomatic_evolution6traits18ModernizationTrait19needs_modernizationBb_
FNDA:0,_RNvYpNtNtNtNtCs2meEIT43k6D_13nestgate_core23canonical_modernization19idiomatic_evolution6traits18ModernizationTrait33get_modernization_recommendationsBb_
FNDA:0,_RNvYpNtNtNtNtCs2meEIT43k6D_13nestgate_core23canonical_modernization19idiomatic_evolution6traits19EvolutionCompatible21get_evolution_versionBb_
FNDA:0,_RNvYpNtNtNtNtCs2meEIT43k6D_13nestgate_core23canonical_modernization19idiomatic_evolution6traits19EvolutionCompatible25apply_compatibility_fixesBb_
FNF:9
FNH:0
DA:15,0
DA:16,0
DA:17,0
DA:20,0
DA:21,0
DA:22,0
DA:26,0
DA:27,0
DA:28,0
DA:50,0
DA:51,0
DA:52,0
DA:55,0
DA:56,0
DA:57,0
DA:71,0
DA:72,0
DA:73,0
DA:80,0
DA:81,0
DA:82,0
DA:98,0
DA:99,0
DA:100,0
DA:103,0
DA:104,0
DA:105,0
DA:112,0
DA:113,0
DA:114,0
DA:117,0
DA:120,0
DA:122,0
DA:123,0
DA:126,0
DA:127,0
DA:128,0
BRF:0
BRH:0
LF:37
LH:0
end_of_record
SF:/home/eastgate/Development/ecoPrimals/nestgate/code/crates/nestgate-core/src/canonical_modernization/unified_enums.rs
FN:34,_RNvXNtNtCs2meEIT43k6D_13nestgate_core23canonical_modernization13unified_enumsNtB2_21UnifiedCapabilityTypeNtNtCs5GmCzIpY9Qj_4core7default7Default7default
FN:98,_RNvXs0_NtNtCs2meEIT43k6D_13nestgate_core23canonical_modernization13unified_enumsNtB5_19UnifiedServiceStateNtNtCs5GmCzIpY9Qj_4core7default7Default7default
FN:136,_RNvXs1_NtNtCs2meEIT43k6D_13nestgate_core23canonical_modernization13unified_enumsNtB5_19UnifiedHealthStatusNtNtCs5GmCzIpY9Qj_4core7default7Default7default
FN:160,_RNvXs2_NtNtCs2meEIT43k6D_13nestgate_core23canonical_modernization13unified_enumsNtB5_15UnifiedTierTypeNtNtCs5GmCzIpY9Qj_4core7default7Default7default
FN:194,_RNvXs3_NtNtCs2meEIT43k6D_13nestgate_core23canonical_modernization13unified_enumsNtB5_15UnifiedFileTypeNtNtCs5GmCzIpY9Qj_4core7default7Default7default
FN:66,_RNvXs_NtNtCs2meEIT43k6D_13nestgate_core23canonical_modernization13unified_enumsNtB4_18UnifiedServiceTypeNtNtCs5GmCzIpY9Qj_4core7default7Default7default
FNDA:0,_RNvXNtNtCs2meEIT43k6D_13nestgate_core23canonical_modernization13unified_enumsNtB2_21UnifiedCapabilityTypeNtNtCs5GmCzIpY9Qj_4core7default7Default7default
FNDA:0,_RNvXs0_NtNtCs2meEIT43k6D_13nestgate_core23canonical_modernization13unified_enumsNtB5_19UnifiedServiceStateNtNtCs5GmCzIpY9Qj_4core7default7Default7default
FNDA:0,_RNvXs1_NtNtCs2meEIT43k6D_13nestgate_core23canonical_modernization13unified_enumsNtB5_19UnifiedHealthStatusNtNtCs5GmCzIpY9Qj_4core7default7Default7default
FNDA:0,_RNvXs2_NtNtCs2meEIT43k6D_13nestgate_core23canonical_modernization13unified_enumsNtB5_15UnifiedTierTypeNtNtCs5GmCzIpY9Qj_4core7default7Default7default
FNDA:0,_RNvXs3_NtNtCs2meEIT43k6D_13nestgate_core23canonical_modernization13unified_enumsNtB5_15UnifiedFileTypeNtNtCs5GmCzIpY9Qj_4core7default7Default7default
FNDA:0,_RNvXs_NtNtCs2meEIT43k6D_13nestgate_core23canonical_modernization13unified_enumsNtB4_18UnifiedServiceTypeNtNtCs5GmCzIpY9Qj_4core7default7Default7default
FNF:6
FNH:0
DA:34,0
DA:35,0
DA:36,0
DA:66,0
DA:67,0
DA:68,0
DA:98,0
DA:99,0
DA:100,0
DA:136,0
DA:137,0
DA:138,0
DA:160,0
DA:161,0
DA:162,0
DA:194,0
DA:195,0
DA:196,0
BRF:0
BRH:0
LF:18
LH:0
end_of_record
SF:/home/eastgate/Development/ecoPrimals/nestgate/code/crates/nestgate-core/src/canonical_types.rs
FN:302,_RNvXNtNtCs2meEIT43k6D_13nestgate_core15canonical_types6systemNtB2_16AllocationStatusNtNtCs5GmCzIpY9Qj_4core7default7Default7default
FN:707,_RNvXININtNtCs2meEIT43k6D_13nestgate_core15canonical_types8handlers0pEINtB5_22UniversalHandlerConfigpENtNtCs5GmCzIpY9Qj_4core7default7Default7defaultB9_
FN:804,_RNvNtNtCs2meEIT43k6D_13nestgate_core15canonical_types10conversion18parse_service_type
FN:791,_RNvNtNtCs2meEIT43k6D_13nestgate_core15canonical_types10conversion19parse_service_state
FN:26,_RNvXNtNtCs2meEIT43k6D_13nestgate_core15canonical_types7serviceNtB2_9ServiceIdNtNtCs5GmCzIpY9Qj_4core7default7Default7default
FN:156,_RNvXs_NtNtCs2meEIT43k6D_13nestgate_core15canonical_types7serviceNtB4_11ServiceInfoNtNtCs5GmCzIpY9Qj_4core7default7Default7default
FN:515,_RNvXNtNtCs2meEIT43k6D_13nestgate_core15canonical_types6eventsNtB2_5EventNtNtCs5GmCzIpY9Qj_4core7default7Default7default
FN:734,_RNvXs0_NtNtCs2meEIT43k6D_13nestgate_core15canonical_types8handlersNtB5_11RetryConfigNtNtCs5GmCzIpY9Qj_4core7default7Default7default
FN:747,_RNvXs1_NtNtCs2meEIT43k6D_13nestgate_core15canonical_types8handlersNtB5_16MonitoringConfigNtNtCs5GmCzIpY9Qj_4core7default7Default7default
FN:723,_RNvXs_NtNtCs2meEIT43k6D_13nestgate_core15canonical_types8handlersNtB4_15RateLimitConfigNtNtCs5GmCzIpY9Qj_4core7default7Default7default
FNDA:0,_RNvXNtNtCs2meEIT43k6D_13nestgate_core15canonical_types6systemNtB2_16AllocationStatusNtNtCs5GmCzIpY9Qj_4core7default7Default7default
FNDA:0,_RNvXININtNtCs2meEIT43k6D_13nestgate_core15canonical_types8handlers0pEINtB5_22UniversalHandlerConfigpENtNtCs5GmCzIpY9Qj_4core7default7Default7defaultB9_
FNDA:0,_RNvNtNtCs2meEIT43k6D_13nestgate_core15canonical_types10conversion18parse_service_type
FNDA:0,_RNvNtNtCs2meEIT43k6D_13nestgate_core15canonical_types10conversion19parse_service_state
FNDA:0,_RNvXNtNtCs2meEIT43k6D_13nestgate_core15canonical_types7serviceNtB2_9ServiceIdNtNtCs5GmCzIpY9Qj_4core7default7Default7default
FNDA:0,_RNvXs_NtNtCs2meEIT43k6D_13nestgate_core15canonical_types7serviceNtB4_11ServiceInfoNtNtCs5GmCzIpY9Qj_4core7default7Default7default
FNDA:0,_RNvXNtNtCs2meEIT43k6D_13nestgate_core15canonical_types6eventsNtB2_5EventNtNtCs5GmCzIpY9Qj_4core7default7Default7default
FNDA:0,_RNvXs0_NtNtCs2meEIT43k6D_13nestgate_core15canonical_types8handlersNtB5_11RetryConfigNtNtCs5GmCzIpY9Qj_4core7default7Default7default
FNDA:0,_RNvXs1_NtNtCs2meEIT43k6D_13nestgate_core15canonical_types8handlersNtB5_16MonitoringConfigNtNtCs5GmCzIpY9Qj_4core7default7Default7default
FNDA:0,_RNvXs_NtNtCs2meEIT43k6D_13nestgate_core15canonical_types8handlersNtB4_15RateLimitConfigNtNtCs5GmCzIpY9Qj_4core7default7Default7default
FNF:10
FNH:0
DA:26,0
DA:27,0
DA:28,0
DA:156,0
DA:157,0
DA:158,0
DA:159,0
DA:160,0
DA:161,0
DA:162,0
DA:163,0
DA:164,0
DA:165,0
DA:166,0
DA:167,0
DA:168,0
DA:169,0
DA:170,0
DA:171,0
DA:172,0
DA:173,0
DA:174,0
DA:302,0
DA:303,0
DA:304,0
DA:515,0
DA:516,0
DA:517,0
DA:518,0
DA:519,0
DA:520,0
DA:521,0
DA:522,0
DA:523,0
DA:524,0
DA:525,0
DA:526,0
DA:707,0
DA:708,0
DA:709,0
DA:710,0
DA:711,0
DA:712,0
DA:713,0
DA:714,0
DA:715,0
DA:716,0
DA:717,0
DA:718,0
DA:723,0
DA:724,0
DA:725,0
DA:726,0
DA:727,0
DA:728,0
DA:729,0
DA:734,0
DA:735,0
DA:736,0
DA:737,0
DA:738,0
DA:739,0
DA:740,0
DA:741,0
DA:742,0
DA:747,0
DA:748,0
DA:749,0
DA:750,0
DA:751,0
DA:752,0
DA:753,0
DA:754,0
DA:791,0
DA:792,0
DA:793,0
DA:794,0
DA:795,0
DA:796,0
DA:797,0
DA:798,0
DA:800,0
DA:804,0
DA:805,0
DA:806,0
DA:807,0
DA:808,0
DA:809,0
DA:810,0
DA:811,0
DA:812,0
DA:814,0
BRF:0
BRH:0
LF:92
LH:0
end_of_record
SF:/home/eastgate/Development/ecoPrimals/nestgate/code/crates/nestgate-core/src/capabilities/discovery/detector.rs
FN:131,_RNvXs_NtNtNtCs2meEIT43k6D_13nestgate_core12capabilities9discovery8detectorNtB4_15ServiceDetectorNtNtNtCs5GmCzIpY9Qj_4core3ops4drop4Drop4drop
FN:64,_RNCNCNvMNtNtNtCs2meEIT43k6D_13nestgate_core12capabilities9discovery8detectorNtB6_15ServiceDetector5start00Bc_
FN:80,_RNCNvMNtNtNtCs2meEIT43k6D_13nestgate_core12capabilities9discovery8detectorNtB4_15ServiceDetector10probe_port0Ba_
FN:123,_RNCNvMNtNtNtCs2meEIT43k6D_13nestgate_core12capabilities9discovery8detectorNtB4_15ServiceDetector4stop0Ba_
FN:58,_RNCNvMNtNtNtCs2meEIT43k6D_13nestgate_core12capabilities9discovery8detectorNtB4_15ServiceDetector5start0Ba_
FN:80,_RNvMNtNtNtCs2meEIT43k6D_13nestgate_core12capabilities9discovery8detectorNtB2_15ServiceDetector10probe_port
FN:46,_RNvMNtNtNtCs2meEIT43k6D_13nestgate_core12capabilities9discovery8detectorNtB2_15ServiceDetector13with_interval
FN:52,_RNvMNtNtNtCs2meEIT43k6D_13nestgate_core12capabilities9discovery8detectorNtB2_15ServiceDetector15with_scan_ports
FN:36,_RNvMNtNtNtCs2meEIT43k6D_13nestgate_core12capabilities9discovery8detectorNtB2_15ServiceDetector3new
FN:123,_RNvMNtNtNtCs2meEIT43k6D_13nestgate_core12capabilities9discovery8detectorNtB2_15ServiceDetector4stop
FN:58,_RNvMNtNtNtCs2meEIT43k6D_13nestgate_core12capabilities9discovery8detectorNtB2_15ServiceDetector5start
FNDA:0,_RNvXs_NtNtNtCs2meEIT43k6D_13nestgate_core12capabilities9discovery8detectorNtB4_15ServiceDetectorNtNtNtCs5GmCzIpY9Qj_4core3ops4drop4Drop4drop
FNDA:0,_RNCNCNvMNtNtNtCs2meEIT43k6D_13nestgate_core12capabilities9discovery8detectorNtB6_15ServiceDetector5start00Bc_
FNDA:0,_RNCNvMNtNtNtCs2meEIT43k6D_13nestgate_core12capabilities9discovery8detectorNtB4_15ServiceDetector10probe_port0Ba_
FNDA:0,_RNCNvMNtNtNtCs2meEIT43k6D_13nestgate_core12capabilities9discovery8detectorNtB4_15ServiceDetector4stop0Ba_
FNDA:0,_RNCNvMNtNtNtCs2meEIT43k6D_13nestgate_core12capabilities9discovery8detectorNtB4_15ServiceDetector5start0Ba_
FNDA:0,_RNvMNtNtNtCs2meEIT43k6D_13nestgate_core12capabilities9discovery8detectorNtB2_15ServiceDetector10probe_port
FNDA:0,_RNvMNtNtNtCs2meEIT43k6D_13nestgate_core12capabilities9discovery8detectorNtB2_15ServiceDetector13with_interval
FNDA:0,_RNvMNtNtNtCs2meEIT43k6D_13nestgate_core12capabilities9discovery8detectorNtB2_15ServiceDetector15with_scan_ports
FNDA:0,_RNvMNtNtNtCs2meEIT43k6D_13nestgate_core12capabilities9discovery8detectorNtB2_15ServiceDetector3new
FNDA:0,_RNvMNtNtNtCs2meEIT43k6D_13nestgate_core12capabilities9discovery8detectorNtB2_15ServiceDetector4stop
FNDA:0,_RNvMNtNtNtCs2meEIT43k6D_13nestgate_core12capabilities9discovery8detectorNtB2_15ServiceDetector5start
FNF:11
FNH:0
DA:36,0
DA:37,0
DA:38,0
DA:39,0
DA:40,0
DA:41,0
DA:42,0
DA:43,0
DA:46,0
DA:47,0
DA:48,0
DA:49,0
DA:52,0
DA:53,0
DA:54,0
DA:55,0
DA:58,0
DA:59,0
DA:60,0
DA:61,0
DA:62,0
DA:64,0
DA:66,0
DA:67,0
DA:68,0
DA:69,0
DA:73,0
DA:76,0
DA:77,0
DA:80,0
DA:84,0
DA:86,0
DA:88,0
DA:89,0
DA:92,0
DA:94,0
DA:95,0
DA:100,0
DA:101,0
DA:102,0
DA:104,0
DA:105,0
DA:106,0
DA:107,0
DA:109,0
DA:110,0
DA:112,0
DA:116,0
DA:117,0
DA:118,0
DA:119,0
DA:120,0
DA:123,0
DA:124,0
DA:125,0
DA:126,0
DA:127,0
DA:131,0
DA:132,0
DA:133,0
DA:134,0
DA:135,0
BRF:0
BRH:0
LF:66
LH:0
end_of_record
SF:/home/eastgate/Development/ecoPrimals/nestgate/code/crates/nestgate-core/src/capabilities/discovery/registry.rs
FN:87,_RNvMNtNtNtCs2meEIT43k6D_13nestgate_core12capabilities9discovery8registryNtB2_18CapabilityRegistry12all_services
FN:60,_RNvMNtNtNtCs2meEIT43k6D_13nestgate_core12capabilities9discovery8registryNtB2_18CapabilityRegistry14find_providers
FN:66,_RNvMNtNtNtCs2meEIT43k6D_13nestgate_core12capabilities9discovery8registryNtB2_18CapabilityRegistry14has_capability
FN:46,_RNvMNtNtNtCs2meEIT43k6D_13nestgate_core12capabilities9discovery8registryNtB2_18CapabilityRegistry16register_service
FN:72,_RNvMNtNtNtCs2meEIT43k6D_13nestgate_core12capabilities9discovery8registryNtB2_18CapabilityRegistry18unregister_service
FN:39,_RNvMNtNtNtCs2meEIT43k6D_13nestgate_core12capabilities9discovery8registryNtB2_18CapabilityRegistry3new
FN:105,_RNvXs_NtNtNtCs2meEIT43k6D_13nestgate_core12capabilities9discovery8registryNtB4_18CapabilityRegistryNtNtCs5GmCzIpY9Qj_4core7default7Default7default
FN:77,_RNCNCNvMNtNtNtCs2meEIT43k6D_13nestgate_core12capabilities9discovery8registryNtB6_18CapabilityRegistry18unregister_service00Bc_
FN:81,_RNCNCNvMNtNtNtCs2meEIT43k6D_13nestgate_core12capabilities9discovery8registryNtB6_18CapabilityRegistry18unregister_service0s_0Bc_
FN:87,_RNCNvMNtNtNtCs2meEIT43k6D_13nestgate_core12capabilities9discovery8registryNtB4_18CapabilityRegistry12all_services0Ba_
FN:60,_RNCNvMNtNtNtCs2meEIT43k6D_13nestgate_core12capabilities9discovery8registryNtB4_18CapabilityRegistry14find_providers0Ba_
FN:66,_RNCNvMNtNtNtCs2meEIT43k6D_13nestgate_core12capabilities9discovery8registryNtB4_18CapabilityRegistry14has_capability0Ba_
FN:46,_RNCNvMNtNtNtCs2meEIT43k6D_13nestgate_core12capabilities9discovery8registryNtB4_18CapabilityRegistry16register_service0Ba_
FN:72,_RNCNvMNtNtNtCs2meEIT43k6D_13nestgate_core12capabilities9discovery8registryNtB4_18CapabilityRegistry18unregister_service0Ba_
FNDA:0,_RNvMNtNtNtCs2meEIT43k6D_13nestgate_core12capabilities9discovery8registryNtB2_18CapabilityRegistry12all_services
FNDA:0,_RNvMNtNtNtCs2meEIT43k6D_13nestgate_core12capabilities9discovery8registryNtB2_18CapabilityRegistry14find_providers
FNDA:0,_RNvMNtNtNtCs2meEIT43k6D_13nestgate_core12capabilities9discovery8registryNtB2_18CapabilityRegistry14has_capability
FNDA:0,_RNvMNtNtNtCs2meEIT43k6D_13nestgate_core12capabilities9discovery8registryNtB2_18CapabilityRegistry16register_service
FNDA:0,_RNvMNtNtNtCs2meEIT43k6D_13nestgate_core12capabilities9discovery8registryNtB2_18CapabilityRegistry18unregister_service
FNDA:0,_RNvMNtNtNtCs2meEIT43k6D_13nestgate_core12capabilities9discovery8registryNtB2_18CapabilityRegistry3new
FNDA:0,_RNvXs_NtNtNtCs2meEIT43k6D_13nestgate_core12capabilities9discovery8registryNtB4_18CapabilityRegistryNtNtCs5GmCzIpY9Qj_4core7default7Default7default
FNDA:0,_RNCNCNvMNtNtNtCs2meEIT43k6D_13nestgate_core12capabilities9discovery8registryNtB6_18CapabilityRegistry18unregister_service00Bc_
FNDA:0,_RNCNCNvMNtNtNtCs2meEIT43k6D_13nestgate_core12capabilities9discovery8registryNtB6_18CapabilityRegistry18unregister_service0s_0Bc_
FNDA:0,_RNCNvMNtNtNtCs2meEIT43k6D_13nestgate_core12capabilities9discovery8registryNtB4_18CapabilityRegistry12all_services0Ba_
FNDA:0,_RNCNvMNtNtNtCs2meEIT43k6D_13nestgate_core12capabilities9discovery8registryNtB4_18CapabilityRegistry14find_providers0Ba_
FNDA:0,_RNCNvMNtNtNtCs2meEIT43k6D_13nestgate_core12capabilities9discovery8registryNtB4_18CapabilityRegistry14has_capability0Ba_
FNDA:0,_RNCNvMNtNtNtCs2meEIT43k6D_13nestgate_core12capabilities9discovery8registryNtB4_18CapabilityRegistry16register_service0Ba_
FNDA:0,_RNCNvMNtNtNtCs2meEIT43k6D_13nestgate_core12capabilities9discovery8registryNtB4_18CapabilityRegistry18unregister_service0Ba_
FNF:14
FNH:0
DA:39,0
DA:40,0
DA:41,0
DA:42,0
DA:43,0
DA:46,0
DA:47,0
DA:49,0
DA:50,0
DA:51,0
DA:52,0
DA:53,0
DA:54,0
DA:56,0
DA:57,0
DA:60,0
DA:61,0
DA:62,0
DA:63,0
DA:66,0
DA:67,0
DA:68,0
DA:69,0
DA:72,0
DA:73,0
DA:76,0
DA:77,0
DA:81,0
DA:83,0
DA:84,0
DA:87,0
DA:88,0
DA:89,0
DA:90,0
DA:92,0
DA:93,0
DA:94,0
DA:95,0
DA:96,0
DA:100,0
DA:101,0
DA:105,0
DA:106,0
DA:107,0
BRF:0
BRH:0
LF:51
LH:0
end_of_record
SF:/home/eastgate/Development/ecoPrimals/nestgate/code/crates/nestgate-core/src/capabilities/discovery/resolver.rs
FN:98,_RNCNCNvMNtNtNtCs2meEIT43k6D_13nestgate_core12capabilities9discovery8resolverNtB6_15ServiceResolver15select_provider00Bc_
FN:109,_RNCNCNvMNtNtNtCs2meEIT43k6D_13nestgate_core12capabilities9discovery8resolverNtB6_15ServiceResolver15select_provider0s0_0Bc_
FN:124,_RNCNCNvMNtNtNtCs2meEIT43k6D_13nestgate_core12capabilities9discovery8resolverNtB6_15ServiceResolver15select_provider0s1_0Bc_
FN:125,_RNCNCNvMNtNtNtCs2meEIT43k6D_13nestgate_core12capabilities9discovery8resolverNtB6_15ServiceResolver15select_provider0s2_0Bc_
FN:130,_RNCNCNvMNtNtNtCs2meEIT43k6D_13nestgate_core12capabilities9discovery8resolverNtB6_15ServiceResolver15select_provider0s3_0Bc_
FN:142,_RNCNCNvMNtNtNtCs2meEIT43k6D_13nestgate_core12capabilities9discovery8resolverNtB6_15ServiceResolver15select_provider0s4_0Bc_
FN:144,_RNCNCNvMNtNtNtCs2meEIT43k6D_13nestgate_core12capabilities9discovery8resolverNtB6_15ServiceResolver15select_provider0s5_0Bc_
FN:163,_RNCNCNvMNtNtNtCs2meEIT43k6D_13nestgate_core12capabilities9discovery8resolverNtB6_15ServiceResolver15select_provider0s6_0Bc_
FN:100,_RNCNCNvMNtNtNtCs2meEIT43k6D_13nestgate_core12capabilities9discovery8resolverNtB6_15ServiceResolver15select_provider0s_0Bc_
FN:175,_RNCNCNvMNtNtNtCs2meEIT43k6D_13nestgate_core12capabilities9discovery8resolverNtB6_15ServiceResolver22find_healthy_providers00Bc_
FN:92,_RNCNvMNtNtNtCs2meEIT43k6D_13nestgate_core12capabilities9discovery8resolverNtB4_15ServiceResolver15select_provider0Ba_
FN:173,_RNCNvMNtNtNtCs2meEIT43k6D_13nestgate_core12capabilities9discovery8resolverNtB4_15ServiceResolver22find_healthy_providers0Ba_
FN:77,_RNCNvMNtNtNtCs2meEIT43k6D_13nestgate_core12capabilities9discovery8resolverNtB4_15ServiceResolver7resolve0Ba_
FN:69,_RNvMNtNtNtCs2meEIT43k6D_13nestgate_core12capabilities9discovery8resolverNtB2_15ServiceResolver13with_strategy
FN:89,_RNvMNtNtNtCs2meEIT43k6D_13nestgate_core12capabilities9discovery8resolverNtB2_15ServiceResolver15select_provider
FN:173,_RNvMNtNtNtCs2meEIT43k6D_13nestgate_core12capabilities9discovery8resolverNtB2_15ServiceResolver22find_healthy_providers
FN:61,_RNvMNtNtNtCs2meEIT43k6D_13nestgate_core12capabilities9discovery8resolverNtB2_15ServiceResolver3new
FN:77,_RNvMNtNtNtCs2meEIT43k6D_13nestgate_core12capabilities9discovery8resolverNtB2_15ServiceResolver7resolve
FN:180,_RNvXs_NtNtNtCs2meEIT43k6D_13nestgate_core12capabilities9discovery8resolverNtB4_15ServiceResolverNtNtCs5GmCzIpY9Qj_4core7default7Default7default
FNDA:0,_RNCNCNvMNtNtNtCs2meEIT43k6D_13nestgate_core12capabilities9discovery8resolverNtB6_15ServiceResolver15select_provider00Bc_
FNDA:0,_RNCNCNvMNtNtNtCs2meEIT43k6D_13nestgate_core12capabilities9discovery8resolverNtB6_15ServiceResolver15select_provider0s0_0Bc_
FNDA:0,_RNCNCNvMNtNtNtCs2meEIT43k6D_13nestgate_core12capabilities9discovery8resolverNtB6_15ServiceResolver15select_provider0s1_0Bc_
FNDA:0,_RNCNCNvMNtNtNtCs2meEIT43k6D_13nestgate_core12capabilities9discovery8resolverNtB6_15ServiceResolver15select_provider0s2_0Bc_
FNDA:0,_RNCNCNvMNtNtNtCs2meEIT43k6D_13nestgate_core12capabilities9discovery8resolverNtB6_15ServiceResolver15select_provider0s3_0Bc_
FNDA:0,_RNCNCNvMNtNtNtCs2meEIT43k6D_13nestgate_core12capabilities9discovery8resolverNtB6_15ServiceResolver15select_provider0s4_0Bc_
FNDA:0,_RNCNCNvMNtNtNtCs2meEIT43k6D_13nestgate_core12capabilities9discovery8resolverNtB6_15ServiceResolver15select_provider0s5_0Bc_
FNDA:0,_RNCNCNvMNtNtNtCs2meEIT43k6D_13nestgate_core12capabilities9discovery8resolverNtB6_15ServiceResolver15select_provider0s6_0Bc_
FNDA:0,_RNCNCNvMNtNtNtCs2meEIT43k6D_13nestgate_core12capabilities9discovery8resolverNtB6_15ServiceResolver15select_provider0s_0Bc_
FNDA:0,_RNCNCNvMNtNtNtCs2meEIT43k6D_13nestgate_core12capabilities9discovery8resolverNtB6_15ServiceResolver22find_healthy_providers00Bc_
FNDA:0,_RNCNvMNtNtNtCs2meEIT43k6D_13nestgate_core12capabilities9discovery8resolverNtB4_15ServiceResolver15select_provider0Ba_
FNDA:0,_RNCNvMNtNtNtCs2meEIT43k6D_13nestgate_core12capabilities9discovery8resolverNtB4_15ServiceResolver22find_healthy_providers0Ba_
FNDA:0,_RNCNvMNtNtNtCs2meEIT43k6D_13nestgate_core12capabilities9discovery8resolverNtB4_15ServiceResolver7resolve0Ba_
FNDA:0,_RNvMNtNtNtCs2meEIT43k6D_13nestgate_core12capabilities9discovery8resolverNtB2_15ServiceResolver13with_strategy
FNDA:0,_RNvMNtNtNtCs2meEIT43k6D_13nestgate_core12capabilities9discovery8resolverNtB2_15ServiceResolver15select_provider
FNDA:0,_RNvMNtNtNtCs2meEIT43k6D_13nestgate_core12capabilities9discovery8resolverNtB2_15ServiceResolver22find_healthy_providers
FNDA:0,_RNvMNtNtNtCs2meEIT43k6D_13nestgate_core12capabilities9discovery8resolverNtB2_15ServiceResolver3new
FNDA:0,_RNvMNtNtNtCs2meEIT43k6D_13nestgate_core12capabilities9discovery8resolverNtB2_15ServiceResolver7resolve
FNDA:0,_RNvXs_NtNtNtCs2meEIT43k6D_13nestgate_core12capabilities9discovery8resolverNtB4_15ServiceResolverNtNtCs5GmCzIpY9Qj_4core7default7Default7default
FNF:19
FNH:0
DA:61,0
DA:62,0
DA:63,0
DA:64,0
DA:65,0
DA:66,0
DA:69,0
DA:70,0
DA:71,0
DA:72,0
DA:77,0
DA:78,0
DA:80,0
DA:81,0
DA:82,0
DA:85,0
DA:86,0
DA:89,0
DA:90,0
DA:91,0
DA:92,0
DA:93,0
DA:96,0
DA:97,0
DA:98,0
DA:99,0
DA:100,0
DA:101,0
DA:102,0
DA:103,0
DA:104,0
DA:109,0
DA:111,0
DA:112,0
DA:113,0
DA:114,0
DA:115,0
DA:117,0
DA:122,0
DA:123,0
DA:124,0
DA:125,0
DA:127,0
DA:128,0
DA:129,0
DA:130,0
DA:131,0
DA:132,0
DA:133,0
DA:134,0
DA:140,0
DA:141,0
DA:142,0
DA:143,0
DA:144,0
DA:145,0
DA:147,0
DA:148,0
DA:149,0
DA:151,0
DA:152,0
DA:155,0
DA:156,0
DA:157,0
DA:158,0
DA:160,0
DA:162,0
DA:163,0
DA:164,0
DA:165,0
DA:166,0
DA:167,0
DA:170,0
DA:173,0
DA:174,0
DA:175,0
DA:176,0
DA:180,0
DA:181,0
DA:182,0
BRF:0
BRH:0
LF:92
LH:0
end_of_record
SF:/home/eastgate/Development/ecoPrimals/nestgate/code/crates/nestgate-core/src/capabilities/discovery/service_descriptor.rs
FN:25,_RINvNtNtNtNtCs2meEIT43k6D_13nestgate_core12capabilities9discovery18service_descriptor15humantime_serde11deserializepEBa_
FN:18,_RINvNtNtNtNtCs2meEIT43k6D_13nestgate_core12capabilities9discovery18service_descriptor15humantime_serde9serializepEBa_
FN:178,_RNCNvMs_NtNtNtCs2meEIT43k6D_13nestgate_core12capabilities9discovery18service_descriptorNtB6_17ServiceDescriptor14has_capability0Bc_
FN:203,_RNvMs0_NtNtNtCs2meEIT43k6D_13nestgate_core12capabilities9discovery18service_descriptorNtB5_8Endpoint3new
FN:213,_RNvMs0_NtNtNtCs2meEIT43k6D_13nestgate_core12capabilities9discovery18service_descriptorNtB5_8Endpoint4http
FN:218,_RNvMs0_NtNtNtCs2meEIT43k6D_13nestgate_core12capabilities9discovery18service_descriptorNtB5_8Endpoint5https
FN:182,_RNvMs_NtNtNtCs2meEIT43k6D_13nestgate_core12capabilities9discovery18service_descriptorNtB4_17ServiceDescriptor10is_healthy
FN:187,_RNvMs_NtNtNtCs2meEIT43k6D_13nestgate_core12capabilities9discovery18service_descriptorNtB4_17ServiceDescriptor12is_available
FN:177,_RNvMs_NtNtNtCs2meEIT43k6D_13nestgate_core12capabilities9discovery18service_descriptorNtB4_17ServiceDescriptor14has_capability
FN:195,_RNvMs_NtNtNtCs2meEIT43k6D_13nestgate_core12capabilities9discovery18service_descriptorNtB4_17ServiceDescriptor3url
FN:147,_RNvXNtNtNtCs2meEIT43k6D_13nestgate_core12capabilities9discovery18service_descriptorNtB2_15ServiceMetadataNtNtCs5GmCzIpY9Qj_4core7default7Default7default
FNDA:0,_RINvNtNtNtNtCs2meEIT43k6D_13nestgate_core12capabilities9discovery18service_descriptor15humantime_serde11deserializepEBa_
FNDA:0,_RINvNtNtNtNtCs2meEIT43k6D_13nestgate_core12capabilities9discovery18service_descriptor15humantime_serde9serializepEBa_
FNDA:0,_RNCNvMs_NtNtNtCs2meEIT43k6D_13nestgate_core12capabilities9discovery18service_descriptorNtB6_17ServiceDescriptor14has_capability0Bc_
FNDA:0,_RNvMs0_NtNtNtCs2meEIT43k6D_13nestgate_core12capabilities9discovery18service_descriptorNtB5_8Endpoint3new
FNDA:0,_RNvMs0_NtNtNtCs2meEIT43k6D_13nestgate_core12capabilities9discovery18service_descriptorNtB5_8Endpoint4http
FNDA:0,_RNvMs0_NtNtNtCs2meEIT43k6D_13nestgate_core12capabilities9discovery18service_descriptorNtB5_8Endpoint5https
FNDA:0,_RNvMs_NtNtNtCs2meEIT43k6D_13nestgate_core12capabilities9discovery18service_descriptorNtB4_17ServiceDescriptor10is_healthy
FNDA:0,_RNvMs_NtNtNtCs2meEIT43k6D_13nestgate_core12capabilities9discovery18service_descriptorNtB4_17ServiceDescriptor12is_available
FNDA:0,_RNvMs_NtNtNtCs2meEIT43k6D_13nestgate_core12capabilities9discovery18service_descriptorNtB4_17ServiceDescriptor14has_capability
FNDA:0,_RNvMs_NtNtNtCs2meEIT43k6D_13nestgate_core12capabilities9discovery18service_descriptorNtB4_17ServiceDescriptor3url
FNDA:0,_RNvXNtNtNtCs2meEIT43k6D_13nestgate_core12capabilities9discovery18service_descriptorNtB2_15ServiceMetadataNtNtCs5GmCzIpY9Qj_4core7default7Default7default
FNF:11
FNH:0
DA:18,0
DA:19,0
DA:20,0
DA:22,0
DA:23,0
DA:25,0
DA:26,0
DA:27,0
DA:29,0
DA:30,0
DA:31,0
DA:147,0
DA:148,0
DA:149,0
DA:150,0
DA:151,0
DA:152,0
DA:153,0
DA:154,0
DA:155,0
DA:156,0
DA:177,0
DA:178,0
DA:179,0
DA:182,0
DA:183,0
DA:184,0
DA:187,0
DA:188,0
DA:189,0
DA:192,0
DA:195,0
DA:196,0
DA:197,0
DA:198,0
DA:203,0
DA:204,0
DA:205,0
DA:206,0
DA:207,0
DA:208,0
DA:209,0
DA:210,0
DA:213,0
DA:214,0
DA:215,0
DA:218,0
DA:219,0
DA:220,0
BRF:0
BRH:0
LF:50
LH:0
end_of_record
SF:/home/eastgate/Development/ecoPrimals/nestgate/code/crates/nestgate-core/src/capabilities/discovery/taxonomy.rs
FN:157,_RNvMNtNtNtCs2meEIT43k6D_13nestgate_core12capabilities9discovery8taxonomyNtB2_10Capability11description
FN:169,_RNvMNtNtNtCs2meEIT43k6D_13nestgate_core12capabilities9discovery8taxonomyNtB2_10Capability7matches
FNDA:0,_RNvMNtNtNtCs2meEIT43k6D_13nestgate_core12capabilities9discovery8taxonomyNtB2_10Capability11description
FNDA:0,_RNvMNtNtNtCs2meEIT43k6D_13nestgate_core12capabilities9discovery8taxonomyNtB2_10Capability7matches
FNF:2
FNH:0
DA:157,0
DA:158,0
DA:159,0
DA:160,0
DA:161,0
DA:162,0
DA:163,0
DA:164,0
DA:166,0
DA:169,0
DA:170,0
DA:172,0
DA:175,0
DA:177,0
BRF:0
BRH:0
LF:14
LH:0
end_of_record
SF:/home/eastgate/Development/ecoPrimals/nestgate/code/crates/nestgate-core/src/capability_aware_config.rs
FN:358,_RNCNCNvMs_NtCs2meEIT43k6D_13nestgate_core23capability_aware_configNtB8_21CapabilityAwareConfig28discover_host_via_capability00Ba_
FN:313,_RNCNCNvMs_NtCs2meEIT43k6D_13nestgate_core23capability_aware_configNtB8_21CapabilityAwareConfig28discover_port_via_capability00Ba_
FN:459,_RNCNvMs0_NtCs2meEIT43k6D_13nestgate_core23capability_aware_configNtB7_21CapabilityAwareConfig11health_port0B9_
FN:449,_RNCNvMs0_NtCs2meEIT43k6D_13nestgate_core23capability_aware_configNtB7_21CapabilityAwareConfig12api_endpoint0B9_
FN:454,_RNCNvMs0_NtCs2meEIT43k6D_13nestgate_core23capability_aware_configNtB7_21CapabilityAwareConfig12metrics_port0B9_
FN:444,_RNCNvMs0_NtCs2meEIT43k6D_13nestgate_core23capability_aware_configNtB7_21CapabilityAwareConfig8api_host0B9_
FN:439,_RNCNvMs0_NtCs2meEIT43k6D_13nestgate_core23capability_aware_configNtB7_21CapabilityAwareConfig8api_port0B9_
FN:425,_RNCNvMs_NtCs2meEIT43k6D_13nestgate_core23capability_aware_configNtB6_21CapabilityAwareConfig21discover_bind_address0B8_
FN:407,_RNCNvMs_NtCs2meEIT43k6D_13nestgate_core23capability_aware_configNtB6_21CapabilityAwareConfig23discover_available_port0B8_
FN:338,_RNCNvMs_NtCs2meEIT43k6D_13nestgate_core23capability_aware_configNtB6_21CapabilityAwareConfig28discover_host_via_capability0B8_
FN:293,_RNCNvMs_NtCs2meEIT43k6D_13nestgate_core23capability_aware_configNtB6_21CapabilityAwareConfig28discover_port_via_capability0B8_
FN:211,_RNCNvMs_NtCs2meEIT43k6D_13nestgate_core23capability_aware_configNtB6_21CapabilityAwareConfig4host0B8_
FN:172,_RNCNvMs_NtCs2meEIT43k6D_13nestgate_core23capability_aware_configNtB6_21CapabilityAwareConfig4port0B8_
FN:158,_RNCNvMs_NtCs2meEIT43k6D_13nestgate_core23capability_aware_configNtB6_21CapabilityAwareConfig8discover0B8_
FN:250,_RNCNvMs_NtCs2meEIT43k6D_13nestgate_core23capability_aware_configNtB6_21CapabilityAwareConfig8endpoint0B8_
FN:465,_RNCNvNtCs2meEIT43k6D_13nestgate_core23capability_aware_config17is_port_available0B5_
FN:472,_RNCNvNtCs2meEIT43k6D_13nestgate_core23capability_aware_config20is_address_available0B5_
FN:125,_RNvMNtCs2meEIT43k6D_13nestgate_core23capability_aware_configNtB2_11ServiceType10capability
FNDA:0,_RNCNCNvMs_NtCs2meEIT43k6D_13nestgate_core23capability_aware_configNtB8_21CapabilityAwareConfig28discover_host_via_capability00Ba_
FNDA:0,_RNCNCNvMs_NtCs2meEIT43k6D_13nestgate_core23capability_aware_configNtB8_21CapabilityAwareConfig28discover_port_via_capability00Ba_
FNDA:0,_RNCNvMs0_NtCs2meEIT43k6D_13nestgate_core23capability_aware_configNtB7_21CapabilityAwareConfig11health_port0B9_
FNDA:0,_RNCNvMs0_NtCs2meEIT43k6D_13nestgate_core23capability_aware_configNtB7_21CapabilityAwareConfig12api_endpoint0B9_
FNDA:0,_RNCNvMs0_NtCs2meEIT43k6D_13nestgate_core23capability_aware_configNtB7_21CapabilityAwareConfig12metrics_port0B9_
FNDA:0,_RNCNvMs0_NtCs2meEIT43k6D_13nestgate_core23capability_aware_configNtB7_21CapabilityAwareConfig8api_host0B9_
FNDA:0,_RNCNvMs0_NtCs2meEIT43k6D_13nestgate_core23capability_aware_configNtB7_21CapabilityAwareConfig8api_port0B9_
FNDA:0,_RNCNvMs_NtCs2meEIT43k6D_13nestgate_core23capability_aware_configNtB6_21CapabilityAwareConfig21discover_bind_address0B8_
FNDA:0,_RNCNvMs_NtCs2meEIT43k6D_13nestgate_core23capability_aware_configNtB6_21CapabilityAwareConfig23discover_available_port0B8_
FNDA:0,_RNCNvMs_NtCs2meEIT43k6D_13nestgate_core23capability_aware_configNtB6_21CapabilityAwareConfig28discover_host_via_capability0B8_
FNDA:0,_RNCNvMs_NtCs2meEIT43k6D_13nestgate_core23capability_aware_configNtB6_21CapabilityAwareConfig28discover_port_via_capability0B8_
FNDA:0,_RNCNvMs_NtCs2meEIT43k6D_13nestgate_core23capability_aware_configNtB6_21CapabilityAwareConfig4host0B8_
FNDA:0,_RNCNvMs_NtCs2meEIT43k6D_13nestgate_core23capability_aware_configNtB6_21CapabilityAwareConfig4port0B8_
FNDA:0,_RNCNvMs_NtCs2meEIT43k6D_13nestgate_core23capability_aware_configNtB6_21CapabilityAwareConfig8discover0B8_
FNDA:0,_RNCNvMs_NtCs2meEIT43k6D_13nestgate_core23capability_aware_configNtB6_21CapabilityAwareConfig8endpoint0B8_
FNDA:0,_RNCNvNtCs2meEIT43k6D_13nestgate_core23capability_aware_config17is_port_available0B5_
FNDA:0,_RNCNvNtCs2meEIT43k6D_13nestgate_core23capability_aware_config20is_address_available0B5_
FNDA:0,_RNvMNtCs2meEIT43k6D_13nestgate_core23capability_aware_configNtB2_11ServiceType10capability
FNF:18
FNH:0
DA:125,0
DA:126,0
DA:127,0
DA:128,0
DA:129,0
DA:130,0
DA:131,0
DA:132,0
DA:133,0
DA:134,0
DA:136,0
DA:158,0
DA:159,0
DA:161,0
DA:162,0
DA:163,0
DA:164,0
DA:172,0
DA:173,0
DA:177,0
DA:178,0
DA:179,0
DA:180,0
DA:181,0
DA:185,0
DA:186,0
DA:187,0
DA:188,0
DA:189,0
DA:192,0
DA:193,0
DA:194,0
DA:195,0
DA:196,0
DA:199,0
DA:200,0
DA:201,0
DA:202,0
DA:203,0
DA:211,0
DA:212,0
DA:216,0
DA:217,0
DA:218,0
DA:219,0
DA:220,0
DA:224,0
DA:225,0
DA:226,0
DA:227,0
DA:228,0
DA:231,0
DA:232,0
DA:233,0
DA:234,0
DA:235,0
DA:238,0
DA:239,0
DA:240,0
DA:241,0
DA:242,0
DA:250,0
DA:251,0
DA:255,0
DA:256,0
DA:257,0
DA:258,0
DA:259,0
DA:263,0
DA:264,0
DA:265,0
DA:266,0
DA:269,0
DA:270,0
DA:271,0
DA:273,0
DA:274,0
DA:275,0
DA:278,0
DA:279,0
DA:280,0
DA:282,0
DA:283,0
DA:284,0
DA:285,0
DA:287,0
DA:289,0
DA:290,0
DA:293,0
DA:297,0
DA:298,0
DA:299,0
DA:300,0
DA:301,0
DA:302,0
DA:303,0
DA:304,0
DA:305,0
DA:309,0
DA:310,0
DA:311,0
DA:312,0
DA:313,0
DA:314,0
DA:315,0
DA:318,0
DA:321,0
DA:322,0
DA:323,0
DA:324,0
DA:327,0
DA:328,0
DA:329,0
DA:331,0
DA:332,0
DA:333,0
DA:334,0
DA:335,0
DA:338,0
DA:342,0
DA:343,0
DA:344,0
DA:345,0
DA:346,0
DA:347,0
DA:348,0
DA:349,0
DA:350,0
DA:354,0
DA:355,0
DA:356,0
DA:357,0
DA:358,0
DA:359,0
DA:360,0
DA:363,0
DA:366,0
DA:367,0
DA:368,0
DA:369,0
DA:370,0
DA:373,0
DA:374,0
DA:375,0
DA:376,0
DA:378,0
DA:379,0
DA:380,0
DA:381,0
DA:382,0
DA:407,0
DA:408,0
DA:409,0
DA:412,0
DA:413,0
DA:414,0
DA:415,0
DA:418,0
DA:419,0
DA:420,0
DA:421,0
DA:422,0
DA:425,0
DA:427,0
DA:428,0
DA:429,0
DA:432,0
DA:433,0
DA:439,0
DA:440,0
DA:441,0
DA:444,0
DA:445,0
DA:446,0
DA:449,0
DA:450,0
DA:451,0
DA:454,0
DA:455,0
DA:456,0
DA:459,0
DA:460,0
DA:461,0
DA:465,0
DA:468,0
DA:469,0
DA:472,0
DA:475,0
DA:476,0
BRF:0
BRH:0
LF:193
LH:0
end_of_record
SF:/home/eastgate/Development/ecoPrimals/nestgate/code/crates/nestgate-core/src/capability_based_config.rs
FN:228,_RNCNCNvMs0_NtCs2meEIT43k6D_13nestgate_core23capability_based_configNtB9_16CapabilityConfig22determine_capabilities00Bb_
FN:361,_RNCNCNvMs0_NtCs2meEIT43k6D_13nestgate_core23capability_based_configNtB9_16CapabilityConfig25discover_from_environment00Bb_
FN:445,_RNCNCNvMs0_NtCs2meEIT43k6D_13nestgate_core23capability_based_configNtB9_16CapabilityConfig8get_port00Bb_
FN:451,_RNCNCNvMs0_NtCs2meEIT43k6D_13nestgate_core23capability_based_configNtB9_16CapabilityConfig8get_port0s_0Bb_
FN:191,_RNCNvMs0_NtCs2meEIT43k6D_13nestgate_core23capability_based_configNtB7_16CapabilityConfig10initialize0B9_
FN:249,_RNCNvMs0_NtCs2meEIT43k6D_13nestgate_core23capability_based_configNtB7_16CapabilityConfig15build_endpoints0B9_
FN:417,_RNCNvMs0_NtCs2meEIT43k6D_13nestgate_core23capability_based_configNtB7_16CapabilityConfig15cache_discovery0B9_
FN:504,_RNCNvMs0_NtCs2meEIT43k6D_13nestgate_core23capability_based_configNtB7_16CapabilityConfig19announce_via_method0B9_
FN:305,_RNCNvMs0_NtCs2meEIT43k6D_13nestgate_core23capability_based_configNtB7_16CapabilityConfig19discover_capability0B9_
FN:379,_RNCNvMs0_NtCs2meEIT43k6D_13nestgate_core23capability_based_configNtB7_16CapabilityConfig19discover_via_method0B9_
FN:203,_RNCNvMs0_NtCs2meEIT43k6D_13nestgate_core23capability_based_configNtB7_16CapabilityConfig20build_self_knowledge0B9_
FN:225,_RNCNvMs0_NtCs2meEIT43k6D_13nestgate_core23capability_based_configNtB7_16CapabilityConfig22determine_capabilities0B9_
FN:539,_RNCNvMs0_NtCs2meEIT43k6D_13nestgate_core23capability_based_configNtB7_16CapabilityConfig23discovered_capabilities0B9_
FN:350,_RNCNvMs0_NtCs2meEIT43k6D_13nestgate_core23capability_based_configNtB7_16CapabilityConfig25discover_from_environment0B9_
FN:487,_RNCNvMs0_NtCs2meEIT43k6D_13nestgate_core23capability_based_configNtB7_16CapabilityConfig8announce0B9_
FN:440,_RNCNvMs0_NtCs2meEIT43k6D_13nestgate_core23capability_based_configNtB7_16CapabilityConfig8get_port0B9_
FN:477,_RNCNvMs0_NtCs2meEIT43k6D_13nestgate_core23capability_based_configNtB7_16CapabilityConfig16get_bind_addresss_0B9_
FN:271,_RNCNvMs0_NtCs2meEIT43k6D_13nestgate_core23capability_based_configNtB7_16CapabilityConfig21resolve_port_from_env0B9_
FNDA:0,_RNCNCNvMs0_NtCs2meEIT43k6D_13nestgate_core23capability_based_configNtB9_16CapabilityConfig22determine_capabilities00Bb_
FNDA:0,_RNCNCNvMs0_NtCs2meEIT43k6D_13nestgate_core23capability_based_configNtB9_16CapabilityConfig25discover_from_environment00Bb_
FNDA:0,_RNCNCNvMs0_NtCs2meEIT43k6D_13nestgate_core23capability_based_configNtB9_16CapabilityConfig8get_port00Bb_
FNDA:0,_RNCNCNvMs0_NtCs2meEIT43k6D_13nestgate_core23capability_based_configNtB9_16CapabilityConfig8get_port0s_0Bb_
FNDA:0,_RNCNvMs0_NtCs2meEIT43k6D_13nestgate_core23capability_based_configNtB7_16CapabilityConfig10initialize0B9_
FNDA:0,_RNCNvMs0_NtCs2meEIT43k6D_13nestgate_core23capability_based_configNtB7_16CapabilityConfig15build_endpoints0B9_
FNDA:0,_RNCNvMs0_NtCs2meEIT43k6D_13nestgate_core23capability_based_configNtB7_16CapabilityConfig15cache_discovery0B9_
FNDA:0,_RNCNvMs0_NtCs2meEIT43k6D_13nestgate_core23capability_based_configNtB7_16CapabilityConfig19announce_via_method0B9_
FNDA:0,_RNCNvMs0_NtCs2meEIT43k6D_13nestgate_core23capability_based_configNtB7_16CapabilityConfig19discover_capability0B9_
FNDA:0,_RNCNvMs0_NtCs2meEIT43k6D_13nestgate_core23capability_based_configNtB7_16CapabilityConfig19discover_via_method0B9_
FNDA:0,_RNCNvMs0_NtCs2meEIT43k6D_13nestgate_core23capability_based_configNtB7_16CapabilityConfig20build_self_knowledge0B9_
FNDA:0,_RNCNvMs0_NtCs2meEIT43k6D_13nestgate_core23capability_based_configNtB7_16CapabilityConfig22determine_capabilities0B9_
FNDA:0,_RNCNvMs0_NtCs2meEIT43k6D_13nestgate_core23capability_based_configNtB7_16CapabilityConfig23discovered_capabilities0B9_
FNDA:0,_RNCNvMs0_NtCs2meEIT43k6D_13nestgate_core23capability_based_configNtB7_16CapabilityConfig25discover_from_environment0B9_
FNDA:0,_RNCNvMs0_NtCs2meEIT43k6D_13nestgate_core23capability_based_configNtB7_16CapabilityConfig8announce0B9_
FNDA:0,_RNCNvMs0_NtCs2meEIT43k6D_13nestgate_core23capability_based_configNtB7_16CapabilityConfig8get_port0B9_
FNDA:0,_RNCNvMs0_NtCs2meEIT43k6D_13nestgate_core23capability_based_configNtB7_16CapabilityConfig16get_bind_addresss_0B9_
FNDA:0,_RNCNvMs0_NtCs2meEIT43k6D_13nestgate_core23capability_based_configNtB7_16CapabilityConfig21resolve_port_from_env0B9_
FNF:18
FNH:0
DA:191,0
DA:192,0
DA:193,0
DA:195,0
DA:196,0
DA:197,0
DA:198,0
DA:199,0
DA:200,0
DA:203,0
DA:205,0
DA:206,0
DA:207,0
DA:208,0
DA:209,0
DA:212,0
DA:215,0
DA:217,0
DA:218,0
DA:219,0
DA:220,0
DA:221,0
DA:222,0
DA:225,0
DA:227,0
DA:228,0
DA:229,0
DA:232,0
DA:236,0
DA:237,0
DA:238,0
DA:239,0
DA:240,0
DA:241,0
DA:242,0
DA:243,0
DA:245,0
DA:246,0
DA:249,0
DA:250,0
DA:253,0
DA:254,0
DA:256,0
DA:257,0
DA:258,0
DA:259,0
DA:260,0
DA:261,0
DA:263,0
DA:264,0
DA:271,0
DA:305,0
DA:308,0
DA:309,0
DA:310,0
DA:311,0
DA:312,0
DA:316,0
DA:317,0
DA:318,0
DA:319,0
DA:320,0
DA:323,0
DA:324,0
DA:325,0
DA:326,0
DA:327,0
DA:328,0
DA:329,0
DA:331,0
DA:332,0
DA:333,0
DA:334,0
DA:340,0
DA:343,0
DA:344,0
DA:347,0
DA:350,0
DA:352,0
DA:355,0
DA:356,0
DA:358,0
DA:359,0
DA:360,0
DA:361,0
DA:363,0
DA:364,0
DA:365,0
DA:366,0
DA:367,0
DA:368,0
DA:369,0
DA:371,0
DA:372,0
DA:379,0
DA:380,0
DA:383,0
DA:387,0
DA:388,0
DA:392,0
DA:393,0
DA:397,0
DA:398,0
DA:402,0
DA:403,0
DA:406,0
DA:409,0
DA:417,0
DA:418,0
DA:419,0
DA:420,0
DA:421,0
DA:422,0
DA:423,0
DA:424,0
DA:425,0
DA:426,0
DA:427,0
DA:428,0
DA:440,0
DA:442,0
DA:443,0
DA:444,0
DA:445,0
DA:446,0
DA:449,0
DA:450,0
DA:451,0
DA:452,0
DA:453,0
DA:455,0
DA:456,0
DA:457,0
DA:460,0
DA:461,0
DA:465,0
DA:477,0
DA:487,0
DA:488,0
DA:489,0
DA:490,0
DA:491,0
DA:493,0
DA:494,0
DA:495,0
DA:496,0
DA:500,0
DA:501,0
DA:504,0
DA:505,0
DA:508,0
DA:512,0
DA:513,0
DA:517,0
DA:518,0
DA:522,0
DA:523,0
DA:527,0
DA:528,0
DA:531,0
DA:539,0
DA:540,0
DA:541,0
BRF:0
BRH:0
LF:167
LH:0
end_of_record
SF:/home/eastgate/Development/ecoPrimals/nestgate/code/crates/nestgate-core/src/capability_config.rs
FN:288,_RNCNvMNtCs2meEIT43k6D_13nestgate_core17capability_configNtB4_16CapabilityConfig12get_endpoint0B6_
FN:274,_RNCNvMNtCs2meEIT43k6D_13nestgate_core17capability_configNtB4_16CapabilityConfig18resolve_capability0B6_
FN:213,_RNCNvMNtCs2meEIT43k6D_13nestgate_core17capability_configNtB4_16CapabilityConfig8from_env0B6_
FN:230,_RNCNvMNtCs2meEIT43k6D_13nestgate_core17capability_configNtB4_16CapabilityConfig8from_envs_0B6_
FN:379,_RNCNvMs0_NtCs2meEIT43k6D_13nestgate_core17capability_configNtB7_14CapabilityInfo16primary_endpoint0B9_
FN:380,_RNCNvMs0_NtCs2meEIT43k6D_13nestgate_core17capability_configNtB7_14CapabilityInfo16primary_endpoints_0B9_
FN:285,_RNvMNtCs2meEIT43k6D_13nestgate_core17capability_configNtB2_16CapabilityConfig12get_endpoint
FN:264,_RNvMNtCs2meEIT43k6D_13nestgate_core17capability_configNtB2_16CapabilityConfig13with_fallback
FN:305,_RNvMNtCs2meEIT43k6D_13nestgate_core17capability_configNtB2_16CapabilityConfig14has_capability
FN:315,_RNvMNtCs2meEIT43k6D_13nestgate_core17capability_configNtB2_16CapabilityConfig17get_all_endpoints
FN:299,_RNvMNtCs2meEIT43k6D_13nestgate_core17capability_configNtB2_16CapabilityConfig18get_capability_url
FN:273,_RNvMNtCs2meEIT43k6D_13nestgate_core17capability_configNtB2_16CapabilityConfig18resolve_capability
FN:321,_RNvMNtCs2meEIT43k6D_13nestgate_core17capability_configNtB2_16CapabilityConfig19register_capability
FN:310,_RNvMNtCs2meEIT43k6D_13nestgate_core17capability_configNtB2_16CapabilityConfig22available_capabilities
FN:197,_RNvMNtCs2meEIT43k6D_13nestgate_core17capability_configNtB2_16CapabilityConfig8from_env
FN:386,_RNvMs0_NtCs2meEIT43k6D_13nestgate_core17capability_configNtB5_14CapabilityInfo13all_endpoints
FN:377,_RNvMs0_NtCs2meEIT43k6D_13nestgate_core17capability_configNtB5_14CapabilityInfo16primary_endpoint
FN:368,_RNvMs_NtCs2meEIT43k6D_13nestgate_core17capability_configNtB4_18CapabilityDefaults11development
FN:330,_RNvMs_NtCs2meEIT43k6D_13nestgate_core17capability_configNtB4_18CapabilityDefaults6secure
FN:239,_RNCNCNvMNtCs2meEIT43k6D_13nestgate_core17capability_configNtB6_16CapabilityConfig8from_envs0_00B8_
FN:248,_RNCNCNvMNtCs2meEIT43k6D_13nestgate_core17capability_configNtB6_16CapabilityConfig8from_envs0_0s_0B8_
FN:232,_RNCNvMNtCs2meEIT43k6D_13nestgate_core17capability_configNtB4_16CapabilityConfig8from_envs0_0B6_
FNDA:0,_RNCNvMNtCs2meEIT43k6D_13nestgate_core17capability_configNtB4_16CapabilityConfig12get_endpoint0B6_
FNDA:0,_RNCNvMNtCs2meEIT43k6D_13nestgate_core17capability_configNtB4_16CapabilityConfig18resolve_capability0B6_
FNDA:0,_RNCNvMNtCs2meEIT43k6D_13nestgate_core17capability_configNtB4_16CapabilityConfig8from_env0B6_
FNDA:0,_RNCNvMNtCs2meEIT43k6D_13nestgate_core17capability_configNtB4_16CapabilityConfig8from_envs_0B6_
FNDA:0,_RNCNvMs0_NtCs2meEIT43k6D_13nestgate_core17capability_configNtB7_14CapabilityInfo16primary_endpoint0B9_
FNDA:0,_RNCNvMs0_NtCs2meEIT43k6D_13nestgate_core17capability_configNtB7_14CapabilityInfo16primary_endpoints_0B9_
FNDA:0,_RNvMNtCs2meEIT43k6D_13nestgate_core17capability_configNtB2_16CapabilityConfig12get_endpoint
FNDA:0,_RNvMNtCs2meEIT43k6D_13nestgate_core17capability_configNtB2_16CapabilityConfig13with_fallback
FNDA:0,_RNvMNtCs2meEIT43k6D_13nestgate_core17capability_configNtB2_16CapabilityConfig14has_capability
FNDA:0,_RNvMNtCs2meEIT43k6D_13nestgate_core17capability_configNtB2_16CapabilityConfig17get_all_endpoints
FNDA:0,_RNvMNtCs2meEIT43k6D_13nestgate_core17capability_configNtB2_16CapabilityConfig18get_capability_url
FNDA:0,_RNvMNtCs2meEIT43k6D_13nestgate_core17capability_configNtB2_16CapabilityConfig18resolve_capability
FNDA:0,_RNvMNtCs2meEIT43k6D_13nestgate_core17capability_configNtB2_16CapabilityConfig19register_capability
FNDA:0,_RNvMNtCs2meEIT43k6D_13nestgate_core17capability_configNtB2_16CapabilityConfig22available_capabilities
FNDA:0,_RNvMNtCs2meEIT43k6D_13nestgate_core17capability_configNtB2_16CapabilityConfig8from_env
FNDA:0,_RNvMs0_NtCs2meEIT43k6D_13nestgate_core17capability_configNtB5_14CapabilityInfo13all_endpoints
FNDA:0,_RNvMs0_NtCs2meEIT43k6D_13nestgate_core17capability_configNtB5_14CapabilityInfo16primary_endpoint
FNDA:0,_RNvMs_NtCs2meEIT43k6D_13nestgate_core17capability_configNtB4_18CapabilityDefaults11development
FNDA:0,_RNvMs_NtCs2meEIT43k6D_13nestgate_core17capability_configNtB4_18CapabilityDefaults6secure
FNDA:0,_RNCNCNvMNtCs2meEIT43k6D_13nestgate_core17capability_configNtB6_16CapabilityConfig8from_envs0_00B8_
FNDA:0,_RNCNCNvMNtCs2meEIT43k6D_13nestgate_core17capability_configNtB6_16CapabilityConfig8from_envs0_0s_0B8_
FNDA:0,_RNCNvMNtCs2meEIT43k6D_13nestgate_core17capability_configNtB4_16CapabilityConfig8from_envs0_0B6_
FNF:22
FNH:0
DA:197,0
DA:198,0
DA:201,0
DA:202,0
DA:203,0
DA:204,0
DA:205,0
DA:206,0
DA:209,0
DA:210,0
DA:211,0
DA:212,0
DA:213,0
DA:215,0
DA:216,0
DA:217,0
DA:218,0
DA:219,0
DA:220,0
DA:221,0
DA:222,0
DA:223,0
DA:226,0
DA:229,0
DA:230,0
DA:231,0
DA:232,0
DA:233,0
DA:234,0
DA:235,0
DA:237,0
DA:238,0
DA:239,0
DA:240,0
DA:242,0
DA:243,0
DA:244,0
DA:246,0
DA:247,0
DA:248,0
DA:249,0
DA:251,0
DA:252,0
DA:253,0
DA:254,0
DA:256,0
DA:257,0
DA:258,0
DA:259,0
DA:260,0
DA:261,0
DA:264,0
DA:265,0
DA:266,0
DA:267,0
DA:273,0
DA:274,0
DA:275,0
DA:276,0
DA:278,0
DA:280,0
DA:281,0
DA:282,0
DA:285,0
DA:286,0
DA:288,0
DA:289,0
DA:290,0
DA:292,0
DA:294,0
DA:295,0
DA:296,0
DA:299,0
DA:300,0
DA:301,0
DA:302,0
DA:305,0
DA:306,0
DA:307,0
DA:310,0
DA:311,0
DA:312,0
DA:315,0
DA:316,0
DA:317,0
DA:318,0
DA:321,0
DA:322,0
DA:323,0
DA:330,0
DA:331,0
DA:332,0
DA:333,0
DA:334,0
DA:335,0
DA:336,0
DA:337,0
DA:339,0
DA:340,0
DA:341,0
DA:342,0
DA:343,0
DA:344,0
DA:346,0
DA:347,0
DA:348,0
DA:349,0
DA:350,0
DA:351,0
DA:354,0
DA:355,0
DA:356,0
DA:357,0
DA:358,0
DA:359,0
DA:360,0
DA:361,0
DA:362,0
DA:363,0
DA:368,0
DA:369,0
DA:370,0
DA:371,0
DA:372,0
DA:377,0
DA:378,0
DA:379,0
DA:380,0
DA:381,0
DA:382,0
DA:383,0
DA:386,0
DA:387,0
DA:388,0
DA:389,0
DA:390,0
DA:391,0
DA:392,0
DA:393,0
BRF:0
BRH:0
LF:148
LH:0
end_of_record
SF:/home/eastgate/Development/ecoPrimals/nestgate/code/crates/nestgate-core/src/capability_config/examples.rs
FN:11,_RNvNtNtCs2meEIT43k6D_13nestgate_core17capability_config8examples18example_api_server
FN:98,_RNvNtNtCs2meEIT43k6D_13nestgate_core17capability_config8examples24example_custom_discovery
FN:51,_RNvNtNtCs2meEIT43k6D_13nestgate_core17capability_config8examples25example_environment_aware
FN:27,_RNvNtNtCs2meEIT43k6D_13nestgate_core17capability_config8examples25example_multiple_services
FN:70,_RNvNtNtCs2meEIT43k6D_13nestgate_core17capability_config8examples29example_primal_self_knowledge
FNDA:0,_RNvNtNtCs2meEIT43k6D_13nestgate_core17capability_config8examples18example_api_server
FNDA:0,_RNvNtNtCs2meEIT43k6D_13nestgate_core17capability_config8examples24example_custom_discovery
FNDA:0,_RNvNtNtCs2meEIT43k6D_13nestgate_core17capability_config8examples25example_environment_aware
FNDA:0,_RNvNtNtCs2meEIT43k6D_13nestgate_core17capability_config8examples25example_multiple_services
FNDA:0,_RNvNtNtCs2meEIT43k6D_13nestgate_core17capability_config8examples29example_primal_self_knowledge
FNF:5
FNH:0
DA:11,0
DA:17,0
DA:18,0
DA:20,0
DA:21,0
DA:22,0
DA:27,0
DA:34,0
DA:36,0
DA:37,0
DA:38,0
DA:40,0
DA:41,0
DA:42,0
DA:43,0
DA:45,0
DA:46,0
DA:51,0
DA:52,0
DA:55,0
DA:56,0
DA:57,0
DA:58,0
DA:61,0
DA:63,0
DA:64,0
DA:65,0
DA:70,0
DA:79,0
DA:80,0
DA:81,0
DA:82,0
DA:83,0
DA:84,0
DA:86,0
DA:87,0
DA:88,0
DA:89,0
DA:90,0
DA:92,0
DA:93,0
DA:98,0
DA:103,0
DA:105,0
DA:106,0
DA:107,0
DA:108,0
DA:109,0
DA:110,0
DA:111,0
DA:112,0
DA:113,0
DA:114,0
DA:115,0
DA:116,0
DA:117,0
DA:118,0
DA:119,0
DA:120,0
DA:121,0
DA:122,0
DA:126,0
DA:127,0
BRF:0
BRH:0
LF:63
LH:0
end_of_record
SF:/home/eastgate/Development/ecoPrimals/nestgate/code/crates/nestgate-core/src/capability_resolver.rs
FN:242,_RNCNCNCNCNvXs2_NtCs2meEIT43k6D_13nestgate_core19capability_resolverNtBd_23InMemoryRegistryAdapterNtBd_18CapabilityResolver22resolve_capability_all0000Bf_
FN:239,_RNCNCNCNvXs2_NtCs2meEIT43k6D_13nestgate_core19capability_resolverNtBb_23InMemoryRegistryAdapterNtBb_18CapabilityResolver22resolve_capability_all000Bd_
FN:133,_RNCNCNvXs0_NtCs2meEIT43k6D_13nestgate_core19capability_resolverNtB9_22PrimalDiscoveryAdapterNtB9_18CapabilityResolver22resolve_capability_all00Bb_
FN:238,_RNCNCNvXs2_NtCs2meEIT43k6D_13nestgate_core19capability_resolverNtB9_23InMemoryRegistryAdapterNtB9_18CapabilityResolver22resolve_capability_all00Bb_
FN:271,_RNCNCNvXs2_NtCs2meEIT43k6D_13nestgate_core19capability_resolverNtB9_23InMemoryRegistryAdapterNtB9_18CapabilityResolver14has_capability00Bb_
FN:189,_RNCNCNvXs2_NtCs2meEIT43k6D_13nestgate_core19capability_resolverNtB9_23InMemoryRegistryAdapterNtB9_18CapabilityResolver18resolve_capability00Bb_
FN:202,_RNCNCNvXs2_NtCs2meEIT43k6D_13nestgate_core19capability_resolverNtB9_23InMemoryRegistryAdapterNtB9_18CapabilityResolver18resolve_capability0s0_0Bb_
FN:197,_RNCNCNvXs2_NtCs2meEIT43k6D_13nestgate_core19capability_resolverNtB9_23InMemoryRegistryAdapterNtB9_18CapabilityResolver18resolve_capability0s_0Bb_
FN:362,_RNCNCNvXs6_NtCs2meEIT43k6D_13nestgate_core19capability_resolverNtB9_19EnvironmentResolverNtB9_18CapabilityResolver18resolve_capability00Bb_
FN:396,_RNCNCNvXs6_NtCs2meEIT43k6D_13nestgate_core19capability_resolverNtB9_19EnvironmentResolverNtB9_18CapabilityResolver18resolve_capability0s0_0Bb_
FN:376,_RNCNCNvXs6_NtCs2meEIT43k6D_13nestgate_core19capability_resolverNtB9_19EnvironmentResolverNtB9_18CapabilityResolver18resolve_capability0s_0Bb_
FN:431,_RNCNCNvXs6_NtCs2meEIT43k6D_13nestgate_core19capability_resolverNtB9_19EnvironmentResolverNtB9_18CapabilityResolver22resolve_capability_all00Bb_
FN:152,_RNCNvXs0_NtCs2meEIT43k6D_13nestgate_core19capability_resolverNtB7_22PrimalDiscoveryAdapterNtB7_18CapabilityResolver14has_capability0B9_
FN:103,_RNCNvXs0_NtCs2meEIT43k6D_13nestgate_core19capability_resolverNtB7_22PrimalDiscoveryAdapterNtB7_18CapabilityResolver18resolve_capability0B9_
FN:126,_RNCNvXs0_NtCs2meEIT43k6D_13nestgate_core19capability_resolverNtB7_22PrimalDiscoveryAdapterNtB7_18CapabilityResolver22resolve_capability_all0B9_
FN:265,_RNCNvXs2_NtCs2meEIT43k6D_13nestgate_core19capability_resolverNtB7_23InMemoryRegistryAdapterNtB7_18CapabilityResolver14has_capability0B9_
FN:179,_RNCNvXs2_NtCs2meEIT43k6D_13nestgate_core19capability_resolverNtB7_23InMemoryRegistryAdapterNtB7_18CapabilityResolver18resolve_capability0B9_
FN:228,_RNCNvXs2_NtCs2meEIT43k6D_13nestgate_core19capability_resolverNtB7_23InMemoryRegistryAdapterNtB7_18CapabilityResolver22resolve_capability_all0B9_
FN:440,_RNCNvXs6_NtCs2meEIT43k6D_13nestgate_core19capability_resolverNtB7_19EnvironmentResolverNtB7_18CapabilityResolver14has_capability0B9_
FN:360,_RNCNvXs6_NtCs2meEIT43k6D_13nestgate_core19capability_resolverNtB7_19EnvironmentResolverNtB7_18CapabilityResolver18resolve_capability0B9_
FN:427,_RNCNvXs6_NtCs2meEIT43k6D_13nestgate_core19capability_resolverNtB7_19EnvironmentResolverNtB7_18CapabilityResolver22resolve_capability_all0B9_
FN:543,_RNCNvXs9_NtCs2meEIT43k6D_13nestgate_core19capability_resolverNtB7_17CompositeResolverNtB7_18CapabilityResolver14has_capability0B9_
FN:496,_RNCNvXs9_NtCs2meEIT43k6D_13nestgate_core19capability_resolverNtB7_17CompositeResolverNtB7_18CapabilityResolver18resolve_capability0B9_
FN:518,_RNCNvXs9_NtCs2meEIT43k6D_13nestgate_core19capability_resolverNtB7_17CompositeResolverNtB7_18CapabilityResolver22resolve_capability_all0B9_
FN:39,_RNvMNtCs2meEIT43k6D_13nestgate_core19capability_resolverNtB2_15ResolvedService3url
FN:44,_RNvMNtCs2meEIT43k6D_13nestgate_core19capability_resolverNtB2_15ResolvedService8endpoint
FN:168,_RNvMs1_NtCs2meEIT43k6D_13nestgate_core19capability_resolverNtB5_23InMemoryRegistryAdapter3new
FN:279,_RNvMs3_NtCs2meEIT43k6D_13nestgate_core19capability_resolverNtB5_23InMemoryRegistryAdapter29unified_to_service_capability
FN:343,_RNvMs4_NtCs2meEIT43k6D_13nestgate_core19capability_resolverNtB5_19EnvironmentResolver3new
FN:469,_RNvMs7_NtCs2meEIT43k6D_13nestgate_core19capability_resolverNtB5_17CompositeResolver13default_chain
FN:463,_RNvMs7_NtCs2meEIT43k6D_13nestgate_core19capability_resolverNtB5_17CompositeResolver13with_resolver
FN:456,_RNvMs7_NtCs2meEIT43k6D_13nestgate_core19capability_resolverNtB5_17CompositeResolver3new
FN:90,_RNvMs_NtCs2meEIT43k6D_13nestgate_core19capability_resolverNtB4_22PrimalDiscoveryAdapter3new
FN:147,_RNvXs0_NtCs2meEIT43k6D_13nestgate_core19capability_resolverNtB5_22PrimalDiscoveryAdapterNtB5_18CapabilityResolver14has_capability
FN:98,_RNvXs0_NtCs2meEIT43k6D_13nestgate_core19capability_resolverNtB5_22PrimalDiscoveryAdapterNtB5_18CapabilityResolver18resolve_capability
FN:121,_RNvXs0_NtCs2meEIT43k6D_13nestgate_core19capability_resolverNtB5_22PrimalDiscoveryAdapterNtB5_18CapabilityResolver22resolve_capability_all
FN:260,_RNvXs2_NtCs2meEIT43k6D_13nestgate_core19capability_resolverNtB5_23InMemoryRegistryAdapterNtB5_18CapabilityResolver14has_capability
FN:174,_RNvXs2_NtCs2meEIT43k6D_13nestgate_core19capability_resolverNtB5_23InMemoryRegistryAdapterNtB5_18CapabilityResolver18resolve_capability
FN:223,_RNvXs2_NtCs2meEIT43k6D_13nestgate_core19capability_resolverNtB5_23InMemoryRegistryAdapterNtB5_18CapabilityResolver22resolve_capability_all
FN:349,_RNvXs5_NtCs2meEIT43k6D_13nestgate_core19capability_resolverNtB5_19EnvironmentResolverNtNtCs5GmCzIpY9Qj_4core7default7Default7default
FN:435,_RNvXs6_NtCs2meEIT43k6D_13nestgate_core19capability_resolverNtB5_19EnvironmentResolverNtB5_18CapabilityResolver14has_capability
FN:355,_RNvXs6_NtCs2meEIT43k6D_13nestgate_core19capability_resolverNtB5_19EnvironmentResolverNtB5_18CapabilityResolver18resolve_capability
FN:422,_RNvXs6_NtCs2meEIT43k6D_13nestgate_core19capability_resolverNtB5_19EnvironmentResolverNtB5_18CapabilityResolver22resolve_capability_all
FN:485,_RNvXs8_NtCs2meEIT43k6D_13nestgate_core19capability_resolverNtB5_17CompositeResolverNtNtCs5GmCzIpY9Qj_4core7default7Default7default
FN:538,_RNvXs9_NtCs2meEIT43k6D_13nestgate_core19capability_resolverNtB5_17CompositeResolverNtB5_18CapabilityResolver14has_capability
FN:491,_RNvXs9_NtCs2meEIT43k6D_13nestgate_core19capability_resolverNtB5_17CompositeResolverNtB5_18CapabilityResolver18resolve_capability
FN:513,_RNvXs9_NtCs2meEIT43k6D_13nestgate_core19capability_resolverNtB5_17CompositeResolverNtB5_18CapabilityResolver22resolve_capability_all
FNDA:0,_RNCNCNCNCNvXs2_NtCs2meEIT43k6D_13nestgate_core19capability_resolverNtBd_23InMemoryRegistryAdapterNtBd_18CapabilityResolver22resolve_capability_all0000Bf_
FNDA:0,_RNCNCNCNvXs2_NtCs2meEIT43k6D_13nestgate_core19capability_resolverNtBb_23InMemoryRegistryAdapterNtBb_18CapabilityResolver22resolve_capability_all000Bd_
FNDA:0,_RNCNCNvXs0_NtCs2meEIT43k6D_13nestgate_core19capability_resolverNtB9_22PrimalDiscoveryAdapterNtB9_18CapabilityResolver22resolve_capability_all00Bb_
FNDA:0,_RNCNCNvXs2_NtCs2meEIT43k6D_13nestgate_core19capability_resolverNtB9_23InMemoryRegistryAdapterNtB9_18CapabilityResolver22resolve_capability_all00Bb_
FNDA:0,_RNCNCNvXs2_NtCs2meEIT43k6D_13nestgate_core19capability_resolverNtB9_23InMemoryRegistryAdapterNtB9_18CapabilityResolver14has_capability00Bb_
FNDA:0,_RNCNCNvXs2_NtCs2meEIT43k6D_13nestgate_core19capability_resolverNtB9_23InMemoryRegistryAdapterNtB9_18CapabilityResolver18resolve_capability00Bb_
FNDA:0,_RNCNCNvXs2_NtCs2meEIT43k6D_13nestgate_core19capability_resolverNtB9_23InMemoryRegistryAdapterNtB9_18CapabilityResolver18resolve_capability0s0_0Bb_
FNDA:0,_RNCNCNvXs2_NtCs2meEIT43k6D_13nestgate_core19capability_resolverNtB9_23InMemoryRegistryAdapterNtB9_18CapabilityResolver18resolve_capability0s_0Bb_
FNDA:0,_RNCNCNvXs6_NtCs2meEIT43k6D_13nestgate_core19capability_resolverNtB9_19EnvironmentResolverNtB9_18CapabilityResolver18resolve_capability00Bb_
FNDA:0,_RNCNCNvXs6_NtCs2meEIT43k6D_13nestgate_core19capability_resolverNtB9_19EnvironmentResolverNtB9_18CapabilityResolver18resolve_capability0s0_0Bb_
FNDA:0,_RNCNCNvXs6_NtCs2meEIT43k6D_13nestgate_core19capability_resolverNtB9_19EnvironmentResolverNtB9_18CapabilityResolver18resolve_capability0s_0Bb_
FNDA:0,_RNCNCNvXs6_NtCs2meEIT43k6D_13nestgate_core19capability_resolverNtB9_19EnvironmentResolverNtB9_18CapabilityResolver22resolve_capability_all00Bb_
FNDA:0,_RNCNvXs0_NtCs2meEIT43k6D_13nestgate_core19capability_resolverNtB7_22PrimalDiscoveryAdapterNtB7_18CapabilityResolver14has_capability0B9_
FNDA:0,_RNCNvXs0_NtCs2meEIT43k6D_13nestgate_core19capability_resolverNtB7_22PrimalDiscoveryAdapterNtB7_18CapabilityResolver18resolve_capability0B9_
FNDA:0,_RNCNvXs0_NtCs2meEIT43k6D_13nestgate_core19capability_resolverNtB7_22PrimalDiscoveryAdapterNtB7_18CapabilityResolver22resolve_capability_all0B9_
FNDA:0,_RNCNvXs2_NtCs2meEIT43k6D_13nestgate_core19capability_resolverNtB7_23InMemoryRegistryAdapterNtB7_18CapabilityResolver14has_capability0B9_
FNDA:0,_RNCNvXs2_NtCs2meEIT43k6D_13nestgate_core19capability_resolverNtB7_23InMemoryRegistryAdapterNtB7_18CapabilityResolver18resolve_capability0B9_
FNDA:0,_RNCNvXs2_NtCs2meEIT43k6D_13nestgate_core19capability_resolverNtB7_23InMemoryRegistryAdapterNtB7_18CapabilityResolver22resolve_capability_all0B9_
FNDA:0,_RNCNvXs6_NtCs2meEIT43k6D_13nestgate_core19capability_resolverNtB7_19EnvironmentResolverNtB7_18CapabilityResolver14has_capability0B9_
FNDA:0,_RNCNvXs6_NtCs2meEIT43k6D_13nestgate_core19capability_resolverNtB7_19EnvironmentResolverNtB7_18CapabilityResolver18resolve_capability0B9_
FNDA:0,_RNCNvXs6_NtCs2meEIT43k6D_13nestgate_core19capability_resolverNtB7_19EnvironmentResolverNtB7_18CapabilityResolver22resolve_capability_all0B9_
FNDA:0,_RNCNvXs9_NtCs2meEIT43k6D_13nestgate_core19capability_resolverNtB7_17CompositeResolverNtB7_18CapabilityResolver14has_capability0B9_
FNDA:0,_RNCNvXs9_NtCs2meEIT43k6D_13nestgate_core19capability_resolverNtB7_17CompositeResolverNtB7_18CapabilityResolver18resolve_capability0B9_
FNDA:0,_RNCNvXs9_NtCs2meEIT43k6D_13nestgate_core19capability_resolverNtB7_17CompositeResolverNtB7_18CapabilityResolver22resolve_capability_all0B9_
FNDA:0,_RNvMNtCs2meEIT43k6D_13nestgate_core19capability_resolverNtB2_15ResolvedService3url
FNDA:0,_RNvMNtCs2meEIT43k6D_13nestgate_core19capability_resolverNtB2_15ResolvedService8endpoint
FNDA:0,_RNvMs1_NtCs2meEIT43k6D_13nestgate_core19capability_resolverNtB5_23InMemoryRegistryAdapter3new
FNDA:0,_RNvMs3_NtCs2meEIT43k6D_13nestgate_core19capability_resolverNtB5_23InMemoryRegistryAdapter29unified_to_service_capability
FNDA:0,_RNvMs4_NtCs2meEIT43k6D_13nestgate_core19capability_resolverNtB5_19EnvironmentResolver3new
FNDA:0,_RNvMs7_NtCs2meEIT43k6D_13nestgate_core19capability_resolverNtB5_17CompositeResolver13default_chain
FNDA:0,_RNvMs7_NtCs2meEIT43k6D_13nestgate_core19capability_resolverNtB5_17CompositeResolver13with_resolver
FNDA:0,_RNvMs7_NtCs2meEIT43k6D_13nestgate_core19capability_resolverNtB5_17CompositeResolver3new
FNDA:0,_RNvMs_NtCs2meEIT43k6D_13nestgate_core19capability_resolverNtB4_22PrimalDiscoveryAdapter3new
FNDA:0,_RNvXs0_NtCs2meEIT43k6D_13nestgate_core19capability_resolverNtB5_22PrimalDiscoveryAdapterNtB5_18CapabilityResolver14has_capability
FNDA:0,_RNvXs0_NtCs2meEIT43k6D_13nestgate_core19capability_resolverNtB5_22PrimalDiscoveryAdapterNtB5_18CapabilityResolver18resolve_capability
FNDA:0,_RNvXs0_NtCs2meEIT43k6D_13nestgate_core19capability_resolverNtB5_22PrimalDiscoveryAdapterNtB5_18CapabilityResolver22resolve_capability_all
FNDA:0,_RNvXs2_NtCs2meEIT43k6D_13nestgate_core19capability_resolverNtB5_23InMemoryRegistryAdapterNtB5_18CapabilityResolver14has_capability
FNDA:0,_RNvXs2_NtCs2meEIT43k6D_13nestgate_core19capability_resolverNtB5_23InMemoryRegistryAdapterNtB5_18CapabilityResolver18resolve_capability
FNDA:0,_RNvXs2_NtCs2meEIT43k6D_13nestgate_core19capability_resolverNtB5_23InMemoryRegistryAdapterNtB5_18CapabilityResolver22resolve_capability_all
FNDA:0,_RNvXs5_NtCs2meEIT43k6D_13nestgate_core19capability_resolverNtB5_19EnvironmentResolverNtNtCs5GmCzIpY9Qj_4core7default7Default7default
FNDA:0,_RNvXs6_NtCs2meEIT43k6D_13nestgate_core19capability_resolverNtB5_19EnvironmentResolverNtB5_18CapabilityResolver14has_capability
FNDA:0,_RNvXs6_NtCs2meEIT43k6D_13nestgate_core19capability_resolverNtB5_19EnvironmentResolverNtB5_18CapabilityResolver18resolve_capability
FNDA:0,_RNvXs6_NtCs2meEIT43k6D_13nestgate_core19capability_resolverNtB5_19EnvironmentResolverNtB5_18CapabilityResolver22resolve_capability_all
FNDA:0,_RNvXs8_NtCs2meEIT43k6D_13nestgate_core19capability_resolverNtB5_17CompositeResolverNtNtCs5GmCzIpY9Qj_4core7default7Default7default
FNDA:0,_RNvXs9_NtCs2meEIT43k6D_13nestgate_core19capability_resolverNtB5_17CompositeResolverNtB5_18CapabilityResolver14has_capability
FNDA:0,_RNvXs9_NtCs2meEIT43k6D_13nestgate_core19capability_resolverNtB5_17CompositeResolverNtB5_18CapabilityResolver18resolve_capability
FNDA:0,_RNvXs9_NtCs2meEIT43k6D_13nestgate_core19capability_resolverNtB5_17CompositeResolverNtB5_18CapabilityResolver22resolve_capability_all
FNF:47
FNH:0
DA:39,0
DA:40,0
DA:41,0
DA:44,0
DA:45,0
DA:46,0
DA:90,0
DA:91,0
DA:92,0
DA:93,0
DA:94,0
DA:98,0
DA:99,0
DA:100,0
DA:101,0
DA:102,0
DA:103,0
DA:104,0
DA:105,0
DA:108,0
DA:109,0
DA:110,0
DA:111,0
DA:112,0
DA:113,0
DA:114,0
DA:118,0
DA:119,0
DA:121,0
DA:122,0
DA:123,0
DA:124,0
DA:125,0
DA:126,0
DA:127,0
DA:128,0
DA:130,0
DA:131,0
DA:132,0
DA:133,0
DA:134,0
DA:135,0
DA:136,0
DA:137,0
DA:138,0
DA:139,0
DA:142,0
DA:143,0
DA:144,0
DA:145,0
DA:147,0
DA:148,0
DA:149,0
DA:150,0
DA:151,0
DA:152,0
DA:153,0
DA:154,0
DA:155,0
DA:156,0
DA:168,0
DA:169,0
DA:170,0
DA:174,0
DA:175,0
DA:176,0
DA:177,0
DA:178,0
DA:179,0
DA:181,0
DA:184,0
DA:185,0
DA:186,0
DA:187,0
DA:189,0
DA:190,0
DA:191,0
DA:194,0
DA:197,0
DA:198,0
DA:199,0
DA:202,0
DA:203,0
DA:204,0
DA:207,0
DA:208,0
DA:209,0
DA:210,0
DA:211,0
DA:212,0
DA:213,0
DA:214,0
DA:216,0
DA:217,0
DA:220,0
DA:221,0
DA:223,0
DA:224,0
DA:225,0
DA:226,0
DA:227,0
DA:228,0
DA:229,0
DA:231,0
DA:232,0
DA:233,0
DA:234,0
DA:236,0
DA:237,0
DA:238,0
DA:239,0
DA:241,0
DA:242,0
DA:243,0
DA:244,0
DA:245,0
DA:246,0
DA:247,0
DA:248,0
DA:249,0
DA:250,0
DA:251,0
DA:253,0
DA:254,0
DA:255,0
DA:256,0
DA:257,0
DA:258,0
DA:260,0
DA:261,0
DA:262,0
DA:263,0
DA:264,0
DA:265,0
DA:266,0
DA:268,0
DA:269,0
DA:270,0
DA:271,0
DA:272,0
DA:273,0
DA:274,0
DA:279,0
DA:280,0
DA:281,0
DA:282,0
DA:288,0
DA:291,0
DA:292,0
DA:293,0
DA:295,0
DA:297,0
DA:299,0
DA:302,0
DA:308,0
DA:311,0
DA:314,0
DA:317,0
DA:320,0
DA:325,0
DA:326,0
DA:327,0
DA:328,0
DA:329,0
DA:330,0
DA:332,0
DA:343,0
DA:344,0
DA:345,0
DA:349,0
DA:350,0
DA:351,0
DA:355,0
DA:356,0
DA:357,0
DA:358,0
DA:359,0
DA:360,0
DA:361,0
DA:362,0
DA:363,0
DA:364,0
DA:365,0
DA:370,0
DA:373,0
DA:374,0
DA:375,0
DA:376,0
DA:378,0
DA:379,0
DA:380,0
DA:381,0
DA:382,0
DA:384,0
DA:385,0
DA:387,0
DA:388,0
DA:389,0
DA:390,0
DA:391,0
DA:392,0
DA:393,0
DA:394,0
DA:395,0
DA:396,0
DA:397,0
DA:398,0
DA:401,0
DA:402,0
DA:403,0
DA:404,0
DA:405,0
DA:406,0
DA:407,0
DA:408,0
DA:409,0
DA:411,0
DA:412,0
DA:413,0
DA:414,0
DA:415,0
DA:416,0
DA:417,0
DA:419,0
DA:420,0
DA:422,0
DA:423,0
DA:424,0
DA:425,0
DA:426,0
DA:427,0
DA:429,0
DA:430,0
DA:431,0
DA:432,0
DA:433,0
DA:435,0
DA:436,0
DA:437,0
DA:438,0
DA:439,0
DA:440,0
DA:441,0
DA:442,0
DA:443,0
DA:444,0
DA:456,0
DA:457,0
DA:458,0
DA:459,0
DA:460,0
DA:463,0
DA:464,0
DA:465,0
DA:466,0
DA:469,0
DA:470,0
DA:471,0
DA:472,0
DA:474,0
DA:475,0
DA:476,0
DA:478,0
DA:480,0
DA:481,0
DA:485,0
DA:486,0
DA:487,0
DA:491,0
DA:492,0
DA:493,0
DA:494,0
DA:495,0
DA:496,0
DA:497,0
DA:498,0
DA:499,0
DA:500,0
DA:503,0
DA:504,0
DA:505,0
DA:506,0
DA:507,0
DA:508,0
DA:509,0
DA:510,0
DA:511,0
DA:513,0
DA:514,0
DA:515,0
DA:516,0
DA:517,0
DA:518,0
DA:519,0
DA:521,0
DA:522,0
DA:523,0
DA:524,0
DA:527,0
DA:528,0
DA:529,0
DA:530,0
DA:531,0
DA:533,0
DA:535,0
DA:536,0
DA:538,0
DA:539,0
DA:540,0
DA:541,0
DA:542,0
DA:543,0
DA:544,0
DA:545,0
DA:546,0
DA:547,0
DA:549,0
DA:550,0
DA:551,0
BRF:0
BRH:0
LF:346
LH:0
end_of_record
SF:/home/eastgate/Development/ecoPrimals/nestgate/code/crates/nestgate-core/src/cert/mod.rs
FN:43,_RNvXNtCs2meEIT43k6D_13nestgate_core4certNtB2_17CertificateConfigNtNtCs5GmCzIpY9Qj_4core7default7Default7default
FNDA:0,_RNvXNtCs2meEIT43k6D_13nestgate_core4certNtB2_17CertificateConfigNtNtCs5GmCzIpY9Qj_4core7default7Default7default
FNF:1
FNH:0
DA:43,0
DA:44,0
DA:45,0
BRF:0
BRH:0
LF:3
LH:0
end_of_record
SF:/home/eastgate/Development/ecoPrimals/nestgate/code/crates/nestgate-core/src/config/canonical_primary/builders.rs
FN:43,_RNvMNtNtNtCs2meEIT43k6D_13nestgate_core6config17canonical_primary8buildersINtB2_22CanonicalConfigBuilderKpKpKpKpE11with_systemB8_
FN:50,_RNvMNtNtNtCs2meEIT43k6D_13nestgate_core6config17canonical_primary8buildersINtB2_22CanonicalConfigBuilderKpKpKpKpE12with_networkB8_
FN:57,_RNvMNtNtNtCs2meEIT43k6D_13nestgate_core6config17canonical_primary8buildersINtB2_22CanonicalConfigBuilderKpKpKpKpE12with_storageB8_
FN:64,_RNvMNtNtNtCs2meEIT43k6D_13nestgate_core6config17canonical_primary8buildersINtB2_22CanonicalConfigBuilderKpKpKpKpE13with_securityB8_
FN:27,_RNvMNtNtNtCs2meEIT43k6D_13nestgate_core6config17canonical_primary8buildersINtB2_22CanonicalConfigBuilderKpKpKpKpE3newB8_
FN:35,_RNvMNtNtNtCs2meEIT43k6D_13nestgate_core6config17canonical_primary8buildersINtB2_22CanonicalConfigBuilderKpKpKpKpE5buildB8_
FN:79,_RNvXININtNtNtCs2meEIT43k6D_13nestgate_core6config17canonical_primary8builderss_0KpKpKpKpEINtB5_22CanonicalConfigBuilderKpKpKpKpENtNtCs5GmCzIpY9Qj_4core7default7Default7defaultBb_
FNDA:0,_RNvMNtNtNtCs2meEIT43k6D_13nestgate_core6config17canonical_primary8buildersINtB2_22CanonicalConfigBuilderKpKpKpKpE11with_systemB8_
FNDA:0,_RNvMNtNtNtCs2meEIT43k6D_13nestgate_core6config17canonical_primary8buildersINtB2_22CanonicalConfigBuilderKpKpKpKpE12with_networkB8_
FNDA:0,_RNvMNtNtNtCs2meEIT43k6D_13nestgate_core6config17canonical_primary8buildersINtB2_22CanonicalConfigBuilderKpKpKpKpE12with_storageB8_
FNDA:0,_RNvMNtNtNtCs2meEIT43k6D_13nestgate_core6config17canonical_primary8buildersINtB2_22CanonicalConfigBuilderKpKpKpKpE13with_securityB8_
FNDA:0,_RNvMNtNtNtCs2meEIT43k6D_13nestgate_core6config17canonical_primary8buildersINtB2_22CanonicalConfigBuilderKpKpKpKpE3newB8_
FNDA:0,_RNvMNtNtNtCs2meEIT43k6D_13nestgate_core6config17canonical_primary8buildersINtB2_22CanonicalConfigBuilderKpKpKpKpE5buildB8_
FNDA:0,_RNvXININtNtNtCs2meEIT43k6D_13nestgate_core6config17canonical_primary8builderss_0KpKpKpKpEINtB5_22CanonicalConfigBuilderKpKpKpKpENtNtCs5GmCzIpY9Qj_4core7default7Default7defaultBb_
FNF:7
FNH:0
DA:27,0
DA:28,0
DA:29,0
DA:30,0
DA:31,0
DA:35,0
DA:36,0
DA:37,0
DA:38,0
DA:39,0
DA:43,0
DA:44,0
DA:45,0
DA:46,0
DA:50,0
DA:51,0
DA:52,0
DA:53,0
DA:57,0
DA:58,0
DA:59,0
DA:60,0
DA:64,0
DA:65,0
DA:66,0
DA:67,0
DA:79,0
DA:80,0
DA:81,0
BRF:0
BRH:0
LF:29
LH:0
end_of_record
SF:/home/eastgate/Development/ecoPrimals/nestgate/code/crates/nestgate-core/src/config/canonical_primary/connection_pool.rs
FN:47,_RNvXNtNtNtCs2meEIT43k6D_13nestgate_core6config17canonical_primary15connection_poolNtB2_20ConnectionPoolConfigNtNtCs5GmCzIpY9Qj_4core7default7Default7default
FN:120,_RNvXs0_NtNtNtCs2meEIT43k6D_13nestgate_core6config17canonical_primary15connection_poolNtB5_20PoolMonitoringConfigNtNtCs5GmCzIpY9Qj_4core7default7Default7default
FN:170,_RNvXs1_NtNtNtCs2meEIT43k6D_13nestgate_core6config17canonical_primary15connection_poolNtB5_14PoolThresholdsNtNtCs5GmCzIpY9Qj_4core7default7Default7default
FN:202,_RNvXs2_NtNtNtCs2meEIT43k6D_13nestgate_core6config17canonical_primary15connection_poolNtB5_26ConnectionValidationConfigNtNtCs5GmCzIpY9Qj_4core7default7Default7default
FN:239,_RNvXs3_NtNtNtCs2meEIT43k6D_13nestgate_core6config17canonical_primary15connection_poolNtB5_25ConnectionLifecycleConfigNtNtCs5GmCzIpY9Qj_4core7default7Default7default
FN:263,_RNvXs4_NtNtNtCs2meEIT43k6D_13nestgate_core6config17canonical_primary15connection_poolNtB5_23ConnectionStateTrackingNtNtCs5GmCzIpY9Qj_4core7default7Default7default
FN:303,_RNvXs5_NtNtNtCs2meEIT43k6D_13nestgate_core6config17canonical_primary15connection_poolNtB5_29ConnectionLoadBalancingConfigNtNtCs5GmCzIpY9Qj_4core7default7Default7default
FN:344,_RNvXs6_NtNtNtCs2meEIT43k6D_13nestgate_core6config17canonical_primary15connection_poolNtB5_23LoadBalancerHealthCheckNtNtCs5GmCzIpY9Qj_4core7default7Default7default
FN:91,_RNvXs_NtNtNtCs2meEIT43k6D_13nestgate_core6config17canonical_primary15connection_poolNtB4_21ConnectionRetryConfigNtNtCs5GmCzIpY9Qj_4core7default7Default7default
FNDA:0,_RNvXNtNtNtCs2meEIT43k6D_13nestgate_core6config17canonical_primary15connection_poolNtB2_20ConnectionPoolConfigNtNtCs5GmCzIpY9Qj_4core7default7Default7default
FNDA:0,_RNvXs0_NtNtNtCs2meEIT43k6D_13nestgate_core6config17canonical_primary15connection_poolNtB5_20PoolMonitoringConfigNtNtCs5GmCzIpY9Qj_4core7default7Default7default
FNDA:0,_RNvXs1_NtNtNtCs2meEIT43k6D_13nestgate_core6config17canonical_primary15connection_poolNtB5_14PoolThresholdsNtNtCs5GmCzIpY9Qj_4core7default7Default7default
FNDA:0,_RNvXs2_NtNtNtCs2meEIT43k6D_13nestgate_core6config17canonical_primary15connection_poolNtB5_26ConnectionValidationConfigNtNtCs5GmCzIpY9Qj_4core7default7Default7default
FNDA:0,_RNvXs3_NtNtNtCs2meEIT43k6D_13nestgate_core6config17canonical_primary15connection_poolNtB5_25ConnectionLifecycleConfigNtNtCs5GmCzIpY9Qj_4core7default7Default7default
FNDA:0,_RNvXs4_NtNtNtCs2meEIT43k6D_13nestgate_core6config17canonical_primary15connection_poolNtB5_23ConnectionStateTrackingNtNtCs5GmCzIpY9Qj_4core7default7Default7default
FNDA:0,_RNvXs5_NtNtNtCs2meEIT43k6D_13nestgate_core6config17canonical_primary15connection_poolNtB5_29ConnectionLoadBalancingConfigNtNtCs5GmCzIpY9Qj_4core7default7Default7default
FNDA:0,_RNvXs6_NtNtNtCs2meEIT43k6D_13nestgate_core6config17canonical_primary15connection_poolNtB5_23LoadBalancerHealthCheckNtNtCs5GmCzIpY9Qj_4core7default7Default7default
FNDA:0,_RNvXs_NtNtNtCs2meEIT43k6D_13nestgate_core6config17canonical_primary15connection_poolNtB4_21ConnectionRetryConfigNtNtCs5GmCzIpY9Qj_4core7default7Default7default
FNF:9
FNH:0
DA:47,0
DA:48,0
DA:49,0
DA:50,0
DA:51,0
DA:52,0
DA:53,0
DA:54,0
DA:55,0
DA:56,0
DA:57,0
DA:58,0
DA:59,0
DA:60,0
DA:61,0
DA:62,0
DA:63,0
DA:64,0
DA:91,0
DA:92,0
DA:93,0
DA:94,0
DA:95,0
DA:96,0
DA:97,0
DA:98,0
DA:99,0
DA:100,0
DA:101,0
DA:120,0
DA:121,0
DA:122,0
DA:123,0
DA:124,0
DA:125,0
DA:126,0
DA:127,0
DA:128,0
DA:129,0
DA:130,0
DA:131,0
DA:170,0
DA:171,0
DA:172,0
DA:173,0
DA:174,0
DA:175,0
DA:176,0
DA:177,0
DA:202,0
DA:203,0
DA:204,0
DA:205,0
DA:206,0
DA:207,0
DA:208,0
DA:209,0
DA:210,0
DA:211,0
DA:212,0
DA:239,0
DA:240,0
DA:241,0
DA:242,0
DA:243,0
DA:244,0
DA:263,0
DA:264,0
DA:265,0
DA:266,0
DA:267,0
DA:268,0
DA:269,0
DA:270,0
DA:303,0
DA:304,0
DA:305,0
DA:306,0
DA:307,0
DA:308,0
DA:309,0
DA:344,0
DA:345,0
DA:346,0
DA:347,0
DA:348,0
DA:349,0
DA:350,0
DA:351,0
DA:352,0
BRF:0
BRH:0
LF:90
LH:0
end_of_record
SF:/home/eastgate/Development/ecoPrimals/nestgate/code/crates/nestgate-core/src/config/canonical_primary/domains/automation/mod.rs
FN:401,_RNvMNtNtNtNtCs2meEIT43k6D_13nestgate_core6config17canonical_primary7domains10automationNtB2_16AutomationConfig10production
FN:361,_RNvMNtNtNtNtCs2meEIT43k6D_13nestgate_core6config17canonical_primary7domains10automationNtB2_16AutomationConfig11development
FN:479,_RNvMs1_NtNtNtNtCs2meEIT43k6D_13nestgate_core6config17canonical_primary7domains10automationNtB5_14AnalysisConfig10production
FN:462,_RNvMs1_NtNtNtNtCs2meEIT43k6D_13nestgate_core6config17canonical_primary7domains10automationNtB5_14AnalysisConfig11development
FN:523,_RNvMs3_NtNtNtNtCs2meEIT43k6D_13nestgate_core6config17canonical_primary7domains10automationNtB5_16PredictionConfig10production
FN:507,_RNvMs3_NtNtNtNtCs2meEIT43k6D_13nestgate_core6config17canonical_primary7domains10automationNtB5_16PredictionConfig11development
FN:566,_RNvMs5_NtNtNtNtCs2meEIT43k6D_13nestgate_core6config17canonical_primary7domains10automationNtB5_18MlPredictionConfig10production
FN:550,_RNvMs5_NtNtNtNtCs2meEIT43k6D_13nestgate_core6config17canonical_primary7domains10automationNtB5_18MlPredictionConfig11development
FN:610,_RNvMs7_NtNtNtNtCs2meEIT43k6D_13nestgate_core6config17canonical_primary7domains10automationNtB5_18AiAutomationConfig10production
FN:593,_RNvMs7_NtNtNtNtCs2meEIT43k6D_13nestgate_core6config17canonical_primary7domains10automationNtB5_18AiAutomationConfig11development
FN:655,_RNvMs9_NtNtNtNtCs2meEIT43k6D_13nestgate_core6config17canonical_primary7domains10automationNtB5_15LifecycleConfig10production
FN:638,_RNvMs9_NtNtNtNtCs2meEIT43k6D_13nestgate_core6config17canonical_primary7domains10automationNtB5_15LifecycleConfig11development
FN:704,_RNvMsb_NtNtNtNtCs2meEIT43k6D_13nestgate_core6config17canonical_primary7domains10automationNtB5_18OptimizationConfig10production
FN:687,_RNvMsb_NtNtNtNtCs2meEIT43k6D_13nestgate_core6config17canonical_primary7domains10automationNtB5_18OptimizationConfig11development
FN:748,_RNvMsd_NtNtNtNtCs2meEIT43k6D_13nestgate_core6config17canonical_primary7domains10automationNtB5_15WorkflowsConfig10production
FN:732,_RNvMsd_NtNtNtNtCs2meEIT43k6D_13nestgate_core6config17canonical_primary7domains10automationNtB5_15WorkflowsConfig11development
FN:791,_RNvMsf_NtNtNtNtCs2meEIT43k6D_13nestgate_core6config17canonical_primary7domains10automationNtB5_16SchedulingConfig10production
FN:775,_RNvMsf_NtNtNtNtCs2meEIT43k6D_13nestgate_core6config17canonical_primary7domains10automationNtB5_16SchedulingConfig11development
FN:837,_RNvMsh_NtNtNtNtCs2meEIT43k6D_13nestgate_core6config17canonical_primary7domains10automationNtB5_14TriggersConfig10production
FN:821,_RNvMsh_NtNtNtNtCs2meEIT43k6D_13nestgate_core6config17canonical_primary7domains10automationNtB5_14TriggersConfig11development
FN:881,_RNvMsj_NtNtNtNtCs2meEIT43k6D_13nestgate_core6config17canonical_primary7domains10automationNtB5_13ActionsConfig10production
FN:864,_RNvMsj_NtNtNtNtCs2meEIT43k6D_13nestgate_core6config17canonical_primary7domains10automationNtB5_13ActionsConfig11development
FN:451,_RNvXs0_NtNtNtNtCs2meEIT43k6D_13nestgate_core6config17canonical_primary7domains10automationNtB5_14AnalysisConfigNtNtCs5GmCzIpY9Qj_4core7default7Default7default
FN:496,_RNvXs2_NtNtNtNtCs2meEIT43k6D_13nestgate_core6config17canonical_primary7domains10automationNtB5_16PredictionConfigNtNtCs5GmCzIpY9Qj_4core7default7Default7default
FN:539,_RNvXs4_NtNtNtNtCs2meEIT43k6D_13nestgate_core6config17canonical_primary7domains10automationNtB5_18MlPredictionConfigNtNtCs5GmCzIpY9Qj_4core7default7Default7default
FN:582,_RNvXs6_NtNtNtNtCs2meEIT43k6D_13nestgate_core6config17canonical_primary7domains10automationNtB5_18AiAutomationConfigNtNtCs5GmCzIpY9Qj_4core7default7Default7default
FN:627,_RNvXs8_NtNtNtNtCs2meEIT43k6D_13nestgate_core6config17canonical_primary7domains10automationNtB5_15LifecycleConfigNtNtCs5GmCzIpY9Qj_4core7default7Default7default
FN:442,_RNvXs_NtNtNtNtCs2meEIT43k6D_13nestgate_core6config17canonical_primary7domains10automationNtB4_16AutomationConfigNtNtCs5GmCzIpY9Qj_4core7default7Default7default
FN:676,_RNvXsa_NtNtNtNtCs2meEIT43k6D_13nestgate_core6config17canonical_primary7domains10automationNtB5_18OptimizationConfigNtNtCs5GmCzIpY9Qj_4core7default7Default7default
FN:721,_RNvXsc_NtNtNtNtCs2meEIT43k6D_13nestgate_core6config17canonical_primary7domains10automationNtB5_15WorkflowsConfigNtNtCs5GmCzIpY9Qj_4core7default7Default7default
FN:764,_RNvXse_NtNtNtNtCs2meEIT43k6D_13nestgate_core6config17canonical_primary7domains10automationNtB5_16SchedulingConfigNtNtCs5GmCzIpY9Qj_4core7default7Default7default
FN:810,_RNvXsg_NtNtNtNtCs2meEIT43k6D_13nestgate_core6config17canonical_primary7domains10automationNtB5_14TriggersConfigNtNtCs5GmCzIpY9Qj_4core7default7Default7default
FN:853,_RNvXsi_NtNtNtNtCs2meEIT43k6D_13nestgate_core6config17canonical_primary7domains10automationNtB5_13ActionsConfigNtNtCs5GmCzIpY9Qj_4core7default7Default7default
FNDA:0,_RNvMNtNtNtNtCs2meEIT43k6D_13nestgate_core6config17canonical_primary7domains10automationNtB2_16AutomationConfig10production
FNDA:0,_RNvMNtNtNtNtCs2meEIT43k6D_13nestgate_core6config17canonical_primary7domains10automationNtB2_16AutomationConfig11development
FNDA:0,_RNvMs1_NtNtNtNtCs2meEIT43k6D_13nestgate_core6config17canonical_primary7domains10automationNtB5_14AnalysisConfig10production
FNDA:0,_RNvMs1_NtNtNtNtCs2meEIT43k6D_13nestgate_core6config17canonical_primary7domains10automationNtB5_14AnalysisConfig11development
FNDA:0,_RNvMs3_NtNtNtNtCs2meEIT43k6D_13nestgate_core6config17canonical_primary7domains10automationNtB5_16PredictionConfig10production
FNDA:0,_RNvMs3_NtNtNtNtCs2meEIT43k6D_13nestgate_core6config17canonical_primary7domains10automationNtB5_16PredictionConfig11development
FNDA:0,_RNvMs5_NtNtNtNtCs2meEIT43k6D_13nestgate_core6config17canonical_primary7domains10automationNtB5_18MlPredictionConfig10production
FNDA:0,_RNvMs5_NtNtNtNtCs2meEIT43k6D_13nestgate_core6config17canonical_primary7domains10automationNtB5_18MlPredictionConfig11development
FNDA:0,_RNvMs7_NtNtNtNtCs2meEIT43k6D_13nestgate_core6config17canonical_primary7domains10automationNtB5_18AiAutomationConfig10production
FNDA:0,_RNvMs7_NtNtNtNtCs2meEIT43k6D_13nestgate_core6config17canonical_primary7domains10automationNtB5_18AiAutomationConfig11development
FNDA:0,_RNvMs9_NtNtNtNtCs2meEIT43k6D_13nestgate_core6config17canonical_primary7domains10automationNtB5_15LifecycleConfig10production
FNDA:0,_RNvMs9_NtNtNtNtCs2meEIT43k6D_13nestgate_core6config17canonical_primary7domains10automationNtB5_15LifecycleConfig11development
FNDA:0,_RNvMsb_NtNtNtNtCs2meEIT43k6D_13nestgate_core6config17canonical_primary7domains10automationNtB5_18OptimizationConfig10production
FNDA:0,_RNvMsb_NtNtNtNtCs2meEIT43k6D_13nestgate_core6config17canonical_primary7domains10automationNtB5_18OptimizationConfig11development
FNDA:0,_RNvMsd_NtNtNtNtCs2meEIT43k6D_13nestgate_core6config17canonical_primary7domains10automationNtB5_15WorkflowsConfig10production
FNDA:0,_RNvMsd_NtNtNtNtCs2meEIT43k6D_13nestgate_core6config17canonical_primary7domains10automationNtB5_15WorkflowsConfig11development
FNDA:0,_RNvMsf_NtNtNtNtCs2meEIT43k6D_13nestgate_core6config17canonical_primary7domains10automationNtB5_16SchedulingConfig10production
FNDA:0,_RNvMsf_NtNtNtNtCs2meEIT43k6D_13nestgate_core6config17canonical_primary7domains10automationNtB5_16SchedulingConfig11development
FNDA:0,_RNvMsh_NtNtNtNtCs2meEIT43k6D_13nestgate_core6config17canonical_primary7domains10automationNtB5_14TriggersConfig10production
FNDA:0,_RNvMsh_NtNtNtNtCs2meEIT43k6D_13nestgate_core6config17canonical_primary7domains10automationNtB5_14TriggersConfig11development
FNDA:0,_RNvMsj_NtNtNtNtCs2meEIT43k6D_13nestgate_core6config17canonical_primary7domains10automationNtB5_13ActionsConfig10production
FNDA:0,_RNvMsj_NtNtNtNtCs2meEIT43k6D_13nestgate_core6config17canonical_primary7domains10automationNtB5_13ActionsConfig11development
FNDA:0,_RNvXs0_NtNtNtNtCs2meEIT43k6D_13nestgate_core6config17canonical_primary7domains10automationNtB5_14AnalysisConfigNtNtCs5GmCzIpY9Qj_4core7default7Default7default
FNDA:0,_RNvXs2_NtNtNtNtCs2meEIT43k6D_13nestgate_core6config17canonical_primary7domains10automationNtB5_16PredictionConfigNtNtCs5GmCzIpY9Qj_4core7default7Default7default
FNDA:0,_RNvXs4_NtNtNtNtCs2meEIT43k6D_13nestgate_core6config17canonical_primary7domains10automationNtB5_18MlPredictionConfigNtNtCs5GmCzIpY9Qj_4core7default7Default7default
FNDA:0,_RNvXs6_NtNtNtNtCs2meEIT43k6D_13nestgate_core6config17canonical_primary7domains10automationNtB5_18AiAutomationConfigNtNtCs5GmCzIpY9Qj_4core7default7Default7default
FNDA:0,_RNvXs8_NtNtNtNtCs2meEIT43k6D_13nestgate_core6config17canonical_primary7domains10automationNtB5_15LifecycleConfigNtNtCs5GmCzIpY9Qj_4core7default7Default7default
FNDA:0,_RNvXs_NtNtNtNtCs2meEIT43k6D_13nestgate_core6config17canonical_primary7domains10automationNtB4_16AutomationConfigNtNtCs5GmCzIpY9Qj_4core7default7Default7default
FNDA:0,_RNvXsa_NtNtNtNtCs2meEIT43k6D_13nestgate_core6config17canonical_primary7domains10automationNtB5_18OptimizationConfigNtNtCs5GmCzIpY9Qj_4core7default7Default7default
FNDA:0,_RNvXsc_NtNtNtNtCs2meEIT43k6D_13nestgate_core6config17canonical_primary7domains10automationNtB5_15WorkflowsConfigNtNtCs5GmCzIpY9Qj_4core7default7Default7default
FNDA:0,_RNvXse_NtNtNtNtCs2meEIT43k6D_13nestgate_core6config17canonical_primary7domains10automationNtB5_16SchedulingConfigNtNtCs5GmCzIpY9Qj_4core7default7Default7default
FNDA:0,_RNvXsg_NtNtNtNtCs2meEIT43k6D_13nestgate_core6config17canonical_primary7domains10automationNtB5_14TriggersConfigNtNtCs5GmCzIpY9Qj_4core7default7Default7default
FNDA:0,_RNvXsi_NtNtNtNtCs2meEIT43k6D_13nestgate_core6config17canonical_primary7domains10automationNtB5_13ActionsConfigNtNtCs5GmCzIpY9Qj_4core7default7Default7default
FNF:33
FNH:0
DA:361,0
DA:362,0
DA:363,0
DA:364,0
DA:365,0
DA:366,0
DA:367,0
DA:368,0
DA:369,0
DA:370,0
DA:371,0
DA:372,0
DA:373,0
DA:374,0
DA:375,0
DA:376,0
DA:377,0
DA:378,0
DA:379,0
DA:380,0
DA:381,0
DA:382,0
DA:383,0
DA:384,0
DA:385,0
DA:386,0
DA:387,0
DA:388,0
DA:389,0
DA:390,0
DA:391,0
DA:392,0
DA:393,0
DA:394,0
DA:395,0
DA:396,0
DA:397,0
DA:401,0
DA:402,0
DA:403,0
DA:404,0
DA:405,0
DA:406,0
DA:407,0
DA:408,0
DA:409,0
DA:410,0
DA:411,0
DA:412,0
DA:413,0
DA:414,0
DA:415,0
DA:416,0
DA:417,0
DA:418,0
DA:419,0
DA:420,0
DA:421,0
DA:422,0
DA:423,0
DA:424,0
DA:425,0
DA:426,0
DA:427,0
DA:428,0
DA:429,0
DA:430,0
DA:431,0
DA:432,0
DA:433,0
DA:434,0
DA:435,0
DA:436,0
DA:437,0
DA:442,0
DA:443,0
DA:444,0
DA:451,0
DA:452,0
DA:453,0
DA:462,0
DA:463,0
DA:464,0
DA:465,0
DA:466,0
DA:467,0
DA:468,0
DA:469,0
DA:470,0
DA:471,0
DA:472,0
DA:479,0
DA:480,0
DA:481,0
DA:482,0
DA:483,0
DA:484,0
DA:485,0
DA:486,0
DA:487,0
DA:488,0
DA:489,0
DA:496,0
DA:497,0
DA:498,0
DA:507,0
DA:508,0
DA:509,0
DA:510,0
DA:511,0
DA:512,0
DA:513,0
DA:514,0
DA:515,0
DA:516,0
DA:523,0
DA:524,0
DA:525,0
DA:526,0
DA:527,0
DA:528,0
DA:529,0
DA:530,0
DA:531,0
DA:532,0
DA:539,0
DA:540,0
DA:541,0
DA:550,0
DA:551,0
DA:552,0
DA:553,0
DA:554,0
DA:555,0
DA:556,0
DA:557,0
DA:558,0
DA:559,0
DA:566,0
DA:567,0
DA:568,0
DA:569,0
DA:570,0
DA:571,0
DA:572,0
DA:573,0
DA:574,0
DA:575,0
DA:582,0
DA:583,0
DA:584,0
DA:593,0
DA:594,0
DA:595,0
DA:596,0
DA:597,0
DA:598,0
DA:599,0
DA:600,0
DA:601,0
DA:602,0
DA:603,0
DA:610,0
DA:611,0
DA:612,0
DA:613,0
DA:614,0
DA:615,0
DA:616,0
DA:617,0
DA:618,0
DA:619,0
DA:620,0
DA:627,0
DA:628,0
DA:629,0
DA:638,0
DA:639,0
DA:640,0
DA:641,0
DA:642,0
DA:643,0
DA:644,0
DA:645,0
DA:646,0
DA:647,0
DA:648,0
DA:655,0
DA:656,0
DA:657,0
DA:658,0
DA:659,0
DA:660,0
DA:661,0
DA:662,0
DA:663,0
DA:664,0
DA:665,0
DA:666,0
DA:667,0
DA:668,0
DA:669,0
DA:676,0
DA:677,0
DA:678,0
DA:687,0
DA:688,0
DA:689,0
DA:690,0
DA:691,0
DA:692,0
DA:693,0
DA:694,0
DA:695,0
DA:696,0
DA:697,0
DA:704,0
DA:705,0
DA:706,0
DA:707,0
DA:708,0
DA:709,0
DA:710,0
DA:711,0
DA:712,0
DA:713,0
DA:714,0
DA:721,0
DA:722,0
DA:723,0
DA:732,0
DA:733,0
DA:734,0
DA:735,0
DA:736,0
DA:737,0
DA:738,0
DA:739,0
DA:740,0
DA:741,0
DA:748,0
DA:749,0
DA:750,0
DA:751,0
DA:752,0
DA:753,0
DA:754,0
DA:755,0
DA:756,0
DA:757,0
DA:764,0
DA:765,0
DA:766,0
DA:775,0
DA:776,0
DA:777,0
DA:778,0
DA:779,0
DA:780,0
DA:781,0
DA:782,0
DA:783,0
DA:784,0
DA:791,0
DA:792,0
DA:793,0
DA:794,0
DA:795,0
DA:796,0
DA:797,0
DA:798,0
DA:799,0
DA:800,0
DA:801,0
DA:802,0
DA:803,0
DA:810,0
DA:811,0
DA:812,0
DA:821,0
DA:822,0
DA:823,0
DA:824,0
DA:825,0
DA:826,0
DA:827,0
DA:828,0
DA:829,0
DA:830,0
DA:837,0
DA:838,0
DA:839,0
DA:840,0
DA:841,0
DA:842,0
DA:843,0
DA:844,0
DA:845,0
DA:846,0
DA:853,0
DA:854,0
DA:855,0
DA:864,0
DA:865,0
DA:866,0
DA:867,0
DA:868,0
DA:869,0
DA:870,0
DA:871,0
DA:872,0
DA:873,0
DA:874,0
DA:881,0
DA:882,0
DA:883,0
DA:884,0
DA:885,0
DA:886,0
DA:887,0
DA:888,0
DA:889,0
DA:890,0
DA:891,0
DA:892,0
DA:893,0
DA:894,0
DA:895,0
DA:896,0
DA:897,0
DA:898,0
BRF:0
BRH:0
LF:331
LH:0
end_of_record
SF:/home/eastgate/Development/ecoPrimals/nestgate/code/crates/nestgate-core/src/config/canonical_primary/domains/consolidated_domains.rs
FN:359,_RNvXNtNtNtNtCs2meEIT43k6D_13nestgate_core6config17canonical_primary7domains20consolidated_domainsNtB2_15ApiServerConfigNtNtCs5GmCzIpY9Qj_4core7default7Default7default
FN:764,_RNvXs0_NtNtNtNtCs2meEIT43k6D_13nestgate_core6config17canonical_primary7domains20consolidated_domainsNtB5_15ZfsDomainConfigNtB5_22DomainConfigValidation15optional_fields
FN:760,_RNvXs0_NtNtNtNtCs2meEIT43k6D_13nestgate_core6config17canonical_primary7domains20consolidated_domainsNtB5_15ZfsDomainConfigNtB5_22DomainConfigValidation15required_fields
FN:756,_RNvXs0_NtNtNtNtCs2meEIT43k6D_13nestgate_core6config17canonical_primary7domains20consolidated_domainsNtB5_15ZfsDomainConfigNtB5_22DomainConfigValidation24validate_for_environment
FN:752,_RNvXs0_NtNtNtNtCs2meEIT43k6D_13nestgate_core6config17canonical_primary7domains20consolidated_domainsNtB5_15ZfsDomainConfigNtB5_22DomainConfigValidation8validate
FN:783,_RNvXs1_NtNtNtNtCs2meEIT43k6D_13nestgate_core6config17canonical_primary7domains20consolidated_domainsNtB5_15ApiDomainConfigNtB5_22DomainConfigValidation15optional_fields
FN:779,_RNvXs1_NtNtNtNtCs2meEIT43k6D_13nestgate_core6config17canonical_primary7domains20consolidated_domainsNtB5_15ApiDomainConfigNtB5_22DomainConfigValidation15required_fields
FN:775,_RNvXs1_NtNtNtNtCs2meEIT43k6D_13nestgate_core6config17canonical_primary7domains20consolidated_domainsNtB5_15ApiDomainConfigNtB5_22DomainConfigValidation24validate_for_environment
FN:771,_RNvXs1_NtNtNtNtCs2meEIT43k6D_13nestgate_core6config17canonical_primary7domains20consolidated_domainsNtB5_15ApiDomainConfigNtB5_22DomainConfigValidation8validate
FN:805,_RNvXs23_NtNtNtNtCs2meEIT43k6D_13nestgate_core6config17canonical_primary7domains20consolidated_domainsNtB6_15McpDomainConfigNtB6_22DomainConfigValidation15optional_fields
FN:801,_RNvXs23_NtNtNtNtCs2meEIT43k6D_13nestgate_core6config17canonical_primary7domains20consolidated_domainsNtB6_15McpDomainConfigNtB6_22DomainConfigValidation15required_fields
FN:797,_RNvXs23_NtNtNtNtCs2meEIT43k6D_13nestgate_core6config17canonical_primary7domains20consolidated_domainsNtB6_15McpDomainConfigNtB6_22DomainConfigValidation24validate_for_environment
FN:793,_RNvXs23_NtNtNtNtCs2meEIT43k6D_13nestgate_core6config17canonical_primary7domains20consolidated_domainsNtB6_15McpDomainConfigNtB6_22DomainConfigValidation8validate
FN:805,_RNvXs24_NtNtNtNtCs2meEIT43k6D_13nestgate_core6config17canonical_primary7domains20consolidated_domainsNtB6_27NetworkServicesDomainConfigNtB6_22DomainConfigValidation15optional_fields
FN:801,_RNvXs24_NtNtNtNtCs2meEIT43k6D_13nestgate_core6config17canonical_primary7domains20consolidated_domainsNtB6_27NetworkServicesDomainConfigNtB6_22DomainConfigValidation15required_fields
FN:797,_RNvXs24_NtNtNtNtCs2meEIT43k6D_13nestgate_core6config17canonical_primary7domains20consolidated_domainsNtB6_27NetworkServicesDomainConfigNtB6_22DomainConfigValidation24validate_for_environment
FN:793,_RNvXs24_NtNtNtNtCs2meEIT43k6D_13nestgate_core6config17canonical_primary7domains20consolidated_domainsNtB6_27NetworkServicesDomainConfigNtB6_22DomainConfigValidation8validate
FN:805,_RNvXs25_NtNtNtNtCs2meEIT43k6D_13nestgate_core6config17canonical_primary7domains20consolidated_domainsNtB6_22AutomationDomainConfigNtB6_22DomainConfigValidation15optional_fields
FN:801,_RNvXs25_NtNtNtNtCs2meEIT43k6D_13nestgate_core6config17canonical_primary7domains20consolidated_domainsNtB6_22AutomationDomainConfigNtB6_22DomainConfigValidation15required_fields
FN:797,_RNvXs25_NtNtNtNtCs2meEIT43k6D_13nestgate_core6config17canonical_primary7domains20consolidated_domainsNtB6_22AutomationDomainConfigNtB6_22DomainConfigValidation24validate_for_environment
FN:793,_RNvXs25_NtNtNtNtCs2meEIT43k6D_13nestgate_core6config17canonical_primary7domains20consolidated_domainsNtB6_22AutomationDomainConfigNtB6_22DomainConfigValidation8validate
FN:805,_RNvXs26_NtNtNtNtCs2meEIT43k6D_13nestgate_core6config17canonical_primary7domains20consolidated_domainsNtB6_21FsMonitorDomainConfigNtB6_22DomainConfigValidation15optional_fields
FN:801,_RNvXs26_NtNtNtNtCs2meEIT43k6D_13nestgate_core6config17canonical_primary7domains20consolidated_domainsNtB6_21FsMonitorDomainConfigNtB6_22DomainConfigValidation15required_fields
FN:797,_RNvXs26_NtNtNtNtCs2meEIT43k6D_13nestgate_core6config17canonical_primary7domains20consolidated_domainsNtB6_21FsMonitorDomainConfigNtB6_22DomainConfigValidation24validate_for_environment
FN:793,_RNvXs26_NtNtNtNtCs2meEIT43k6D_13nestgate_core6config17canonical_primary7domains20consolidated_domainsNtB6_21FsMonitorDomainConfigNtB6_22DomainConfigValidation8validate
FN:805,_RNvXs27_NtNtNtNtCs2meEIT43k6D_13nestgate_core6config17canonical_primary7domains20consolidated_domainsNtB6_21InstallerDomainConfigNtB6_22DomainConfigValidation15optional_fields
FN:801,_RNvXs27_NtNtNtNtCs2meEIT43k6D_13nestgate_core6config17canonical_primary7domains20consolidated_domainsNtB6_21InstallerDomainConfigNtB6_22DomainConfigValidation15required_fields
FN:797,_RNvXs27_NtNtNtNtCs2meEIT43k6D_13nestgate_core6config17canonical_primary7domains20consolidated_domainsNtB6_21InstallerDomainConfigNtB6_22DomainConfigValidation24validate_for_environment
FN:793,_RNvXs27_NtNtNtNtCs2meEIT43k6D_13nestgate_core6config17canonical_primary7domains20consolidated_domainsNtB6_21InstallerDomainConfigNtB6_22DomainConfigValidation8validate
FN:805,_RNvXs28_NtNtNtNtCs2meEIT43k6D_13nestgate_core6config17canonical_primary7domains20consolidated_domainsNtB6_23PerformanceDomainConfigNtB6_22DomainConfigValidation15optional_fields
FN:801,_RNvXs28_NtNtNtNtCs2meEIT43k6D_13nestgate_core6config17canonical_primary7domains20consolidated_domainsNtB6_23PerformanceDomainConfigNtB6_22DomainConfigValidation15required_fields
FN:797,_RNvXs28_NtNtNtNtCs2meEIT43k6D_13nestgate_core6config17canonical_primary7domains20consolidated_domainsNtB6_23PerformanceDomainConfigNtB6_22DomainConfigValidation24validate_for_environment
FN:793,_RNvXs28_NtNtNtNtCs2meEIT43k6D_13nestgate_core6config17canonical_primary7domains20consolidated_domainsNtB6_23PerformanceDomainConfigNtB6_22DomainConfigValidation8validate
FN:805,_RNvXs29_NtNtNtNtCs2meEIT43k6D_13nestgate_core6config17canonical_primary7domains20consolidated_domainsNtB6_18BinaryDomainConfigNtB6_22DomainConfigValidation15optional_fields
FN:801,_RNvXs29_NtNtNtNtCs2meEIT43k6D_13nestgate_core6config17canonical_primary7domains20consolidated_domainsNtB6_18BinaryDomainConfigNtB6_22DomainConfigValidation15required_fields
FN:797,_RNvXs29_NtNtNtNtCs2meEIT43k6D_13nestgate_core6config17canonical_primary7domains20consolidated_domainsNtB6_18BinaryDomainConfigNtB6_22DomainConfigValidation24validate_for_environment
FN:793,_RNvXs29_NtNtNtNtCs2meEIT43k6D_13nestgate_core6config17canonical_primary7domains20consolidated_domainsNtB6_18BinaryDomainConfigNtB6_22DomainConfigValidation8validate
FN:824,_RNvXs2_NtNtNtNtCs2meEIT43k6D_13nestgate_core6config17canonical_primary7domains20consolidated_domainsNtB5_14ZfsPoolsConfigNtNtCs5GmCzIpY9Qj_4core7default7Default7default
FN:836,_RNvXs3_NtNtNtNtCs2meEIT43k6D_13nestgate_core6config17canonical_primary7domains20consolidated_domainsNtB5_18ZfsSnapshotsConfigNtNtCs5GmCzIpY9Qj_4core7default7Default7default
FN:848,_RNvXs4_NtNtNtNtCs2meEIT43k6D_13nestgate_core6config17canonical_primary7domains20consolidated_domainsNtB5_17McpProtocolConfigNtNtCs5GmCzIpY9Qj_4core7default7Default7default
FN:873,_RNvXs5_NtNtNtNtCs2meEIT43k6D_13nestgate_core6config17canonical_primary7domains20consolidated_domainsNtB5_16McpMessageFormatNtNtCs5GmCzIpY9Qj_4core7default7Default7default
FN:891,_RNvXs6_NtNtNtNtCs2meEIT43k6D_13nestgate_core6config17canonical_primary7domains20consolidated_domainsNtB5_16McpTimeoutConfigNtNtCs5GmCzIpY9Qj_4core7default7Default7default
FN:443,_RNvXs_NtNtNtNtCs2meEIT43k6D_13nestgate_core6config17canonical_primary7domains20consolidated_domainsNtB4_25ConsolidatedDomainConfigsNtB4_22DomainConfigValidation15optional_fields
FN:434,_RNvXs_NtNtNtNtCs2meEIT43k6D_13nestgate_core6config17canonical_primary7domains20consolidated_domainsNtB4_25ConsolidatedDomainConfigsNtB4_22DomainConfigValidation15required_fields
FN:407,_RNvXs_NtNtNtNtCs2meEIT43k6D_13nestgate_core6config17canonical_primary7domains20consolidated_domainsNtB4_25ConsolidatedDomainConfigsNtB4_22DomainConfigValidation24validate_for_environment
FN:389,_RNvXs_NtNtNtNtCs2meEIT43k6D_13nestgate_core6config17canonical_primary7domains20consolidated_domainsNtB4_25ConsolidatedDomainConfigsNtB4_22DomainConfigValidation8validate
FNDA:0,_RNvXNtNtNtNtCs2meEIT43k6D_13nestgate_core6config17canonical_primary7domains20consolidated_domainsNtB2_15ApiServerConfigNtNtCs5GmCzIpY9Qj_4core7default7Default7default
FNDA:0,_RNvXs0_NtNtNtNtCs2meEIT43k6D_13nestgate_core6config17canonical_primary7domains20consolidated_domainsNtB5_15ZfsDomainConfigNtB5_22DomainConfigValidation15optional_fields
FNDA:0,_RNvXs0_NtNtNtNtCs2meEIT43k6D_13nestgate_core6config17canonical_primary7domains20consolidated_domainsNtB5_15ZfsDomainConfigNtB5_22DomainConfigValidation15required_fields
FNDA:0,_RNvXs0_NtNtNtNtCs2meEIT43k6D_13nestgate_core6config17canonical_primary7domains20consolidated_domainsNtB5_15ZfsDomainConfigNtB5_22DomainConfigValidation24validate_for_environment
FNDA:0,_RNvXs0_NtNtNtNtCs2meEIT43k6D_13nestgate_core6config17canonical_primary7domains20consolidated_domainsNtB5_15ZfsDomainConfigNtB5_22DomainConfigValidation8validate
FNDA:0,_RNvXs1_NtNtNtNtCs2meEIT43k6D_13nestgate_core6config17canonical_primary7domains20consolidated_domainsNtB5_15ApiDomainConfigNtB5_22DomainConfigValidation15optional_fields
FNDA:0,_RNvXs1_NtNtNtNtCs2meEIT43k6D_13nestgate_core6config17canonical_primary7domains20consolidated_domainsNtB5_15ApiDomainConfigNtB5_22DomainConfigValidation15required_fields
FNDA:0,_RNvXs1_NtNtNtNtCs2meEIT43k6D_13nestgate_core6config17canonical_primary7domains20consolidated_domainsNtB5_15ApiDomainConfigNtB5_22DomainConfigValidation24validate_for_environment
FNDA:0,_RNvXs1_NtNtNtNtCs2meEIT43k6D_13nestgate_core6config17canonical_primary7domains20consolidated_domainsNtB5_15ApiDomainConfigNtB5_22DomainConfigValidation8validate
FNDA:0,_RNvXs23_NtNtNtNtCs2meEIT43k6D_13nestgate_core6config17canonical_primary7domains20consolidated_domainsNtB6_15McpDomainConfigNtB6_22DomainConfigValidation15optional_fields
FNDA:0,_RNvXs23_NtNtNtNtCs2meEIT43k6D_13nestgate_core6config17canonical_primary7domains20consolidated_domainsNtB6_15McpDomainConfigNtB6_22DomainConfigValidation15required_fields
FNDA:0,_RNvXs23_NtNtNtNtCs2meEIT43k6D_13nestgate_core6config17canonical_primary7domains20consolidated_domainsNtB6_15McpDomainConfigNtB6_22DomainConfigValidation24validate_for_environment
FNDA:0,_RNvXs23_NtNtNtNtCs2meEIT43k6D_13nestgate_core6config17canonical_primary7domains20consolidated_domainsNtB6_15McpDomainConfigNtB6_22DomainConfigValidation8validate
FNDA:0,_RNvXs24_NtNtNtNtCs2meEIT43k6D_13nestgate_core6config17canonical_primary7domains20consolidated_domainsNtB6_27NetworkServicesDomainConfigNtB6_22DomainConfigValidation15optional_fields
FNDA:0,_RNvXs24_NtNtNtNtCs2meEIT43k6D_13nestgate_core6config17canonical_primary7domains20consolidated_domainsNtB6_27NetworkServicesDomainConfigNtB6_22DomainConfigValidation15required_fields
FNDA:0,_RNvXs24_NtNtNtNtCs2meEIT43k6D_13nestgate_core6config17canonical_primary7domains20consolidated_domainsNtB6_27NetworkServicesDomainConfigNtB6_22DomainConfigValidation24validate_for_environment
FNDA:0,_RNvXs24_NtNtNtNtCs2meEIT43k6D_13nestgate_core6config17canonical_primary7domains20consolidated_domainsNtB6_27NetworkServicesDomainConfigNtB6_22DomainConfigValidation8validate
FNDA:0,_RNvXs25_NtNtNtNtCs2meEIT43k6D_13nestgate_core6config17canonical_primary7domains20consolidated_domainsNtB6_22AutomationDomainConfigNtB6_22DomainConfigValidation15optional_fields
FNDA:0,_RNvXs25_NtNtNtNtCs2meEIT43k6D_13nestgate_core6config17canonical_primary7domains20consolidated_domainsNtB6_22AutomationDomainConfigNtB6_22DomainConfigValidation15required_fields
FNDA:0,_RNvXs25_NtNtNtNtCs2meEIT43k6D_13nestgate_core6config17canonical_primary7domains20consolidated_domainsNtB6_22AutomationDomainConfigNtB6_22DomainConfigValidation24validate_for_environment
FNDA:0,_RNvXs25_NtNtNtNtCs2meEIT43k6D_13nestgate_core6config17canonical_primary7domains20consolidated_domainsNtB6_22AutomationDomainConfigNtB6_22DomainConfigValidation8validate
FNDA:0,_RNvXs26_NtNtNtNtCs2meEIT43k6D_13nestgate_core6config17canonical_primary7domains20consolidated_domainsNtB6_21FsMonitorDomainConfigNtB6_22DomainConfigValidation15optional_fields
FNDA:0,_RNvXs26_NtNtNtNtCs2meEIT43k6D_13nestgate_core6config17canonical_primary7domains20consolidated_domainsNtB6_21FsMonitorDomainConfigNtB6_22DomainConfigValidation15required_fields
FNDA:0,_RNvXs26_NtNtNtNtCs2meEIT43k6D_13nestgate_core6config17canonical_primary7domains20consolidated_domainsNtB6_21FsMonitorDomainConfigNtB6_22DomainConfigValidation24validate_for_environment
FNDA:0,_RNvXs26_NtNtNtNtCs2meEIT43k6D_13nestgate_core6config17canonical_primary7domains20consolidated_domainsNtB6_21FsMonitorDomainConfigNtB6_22DomainConfigValidation8validate
FNDA:0,_RNvXs27_NtNtNtNtCs2meEIT43k6D_13nestgate_core6config17canonical_primary7domains20consolidated_domainsNtB6_21InstallerDomainConfigNtB6_22DomainConfigValidation15optional_fields
FNDA:0,_RNvXs27_NtNtNtNtCs2meEIT43k6D_13nestgate_core6config17canonical_primary7domains20consolidated_domainsNtB6_21InstallerDomainConfigNtB6_22DomainConfigValidation15required_fields
FNDA:0,_RNvXs27_NtNtNtNtCs2meEIT43k6D_13nestgate_core6config17canonical_primary7domains20consolidated_domainsNtB6_21InstallerDomainConfigNtB6_22DomainConfigValidation24validate_for_environment
FNDA:0,_RNvXs27_NtNtNtNtCs2meEIT43k6D_13nestgate_core6config17canonical_primary7domains20consolidated_domainsNtB6_21InstallerDomainConfigNtB6_22DomainConfigValidation8validate
FNDA:0,_RNvXs28_NtNtNtNtCs2meEIT43k6D_13nestgate_core6config17canonical_primary7domains20consolidated_domainsNtB6_23PerformanceDomainConfigNtB6_22DomainConfigValidation15optional_fields
FNDA:0,_RNvXs28_NtNtNtNtCs2meEIT43k6D_13nestgate_core6config17canonical_primary7domains20consolidated_domainsNtB6_23PerformanceDomainConfigNtB6_22DomainConfigValidation15required_fields
FNDA:0,_RNvXs28_NtNtNtNtCs2meEIT43k6D_13nestgate_core6config17canonical_primary7domains20consolidated_domainsNtB6_23PerformanceDomainConfigNtB6_22DomainConfigValidation24validate_for_environment
FNDA:0,_RNvXs28_NtNtNtNtCs2meEIT43k6D_13nestgate_core6config17canonical_primary7domains20consolidated_domainsNtB6_23PerformanceDomainConfigNtB6_22DomainConfigValidation8validate
FNDA:0,_RNvXs29_NtNtNtNtCs2meEIT43k6D_13nestgate_core6config17canonical_primary7domains20consolidated_domainsNtB6_18BinaryDomainConfigNtB6_22DomainConfigValidation15optional_fields
FNDA:0,_RNvXs29_NtNtNtNtCs2meEIT43k6D_13nestgate_core6config17canonical_primary7domains20consolidated_domainsNtB6_18BinaryDomainConfigNtB6_22DomainConfigValidation15required_fields
FNDA:0,_RNvXs29_NtNtNtNtCs2meEIT43k6D_13nestgate_core6config17canonical_primary7domains20consolidated_domainsNtB6_18BinaryDomainConfigNtB6_22DomainConfigValidation24validate_for_environment
FNDA:0,_RNvXs29_NtNtNtNtCs2meEIT43k6D_13nestgate_core6config17canonical_primary7domains20consolidated_domainsNtB6_18BinaryDomainConfigNtB6_22DomainConfigValidation8validate
FNDA:0,_RNvXs2_NtNtNtNtCs2meEIT43k6D_13nestgate_core6config17canonical_primary7domains20consolidated_domainsNtB5_14ZfsPoolsConfigNtNtCs5GmCzIpY9Qj_4core7default7Default7default
FNDA:0,_RNvXs3_NtNtNtNtCs2meEIT43k6D_13nestgate_core6config17canonical_primary7domains20consolidated_domainsNtB5_18ZfsSnapshotsConfigNtNtCs5GmCzIpY9Qj_4core7default7Default7default
FNDA:0,_RNvXs4_NtNtNtNtCs2meEIT43k6D_13nestgate_core6config17canonical_primary7domains20consolidated_domainsNtB5_17McpProtocolConfigNtNtCs5GmCzIpY9Qj_4core7default7Default7default
FNDA:0,_RNvXs5_NtNtNtNtCs2meEIT43k6D_13nestgate_core6config17canonical_primary7domains20consolidated_domainsNtB5_16McpMessageFormatNtNtCs5GmCzIpY9Qj_4core7default7Default7default
FNDA:0,_RNvXs6_NtNtNtNtCs2meEIT43k6D_13nestgate_core6config17canonical_primary7domains20consolidated_domainsNtB5_16McpTimeoutConfigNtNtCs5GmCzIpY9Qj_4core7default7Default7default
FNDA:0,_RNvXs_NtNtNtNtCs2meEIT43k6D_13nestgate_core6config17canonical_primary7domains20consolidated_domainsNtB4_25ConsolidatedDomainConfigsNtB4_22DomainConfigValidation15optional_fields
FNDA:0,_RNvXs_NtNtNtNtCs2meEIT43k6D_13nestgate_core6config17canonical_primary7domains20consolidated_domainsNtB4_25ConsolidatedDomainConfigsNtB4_22DomainConfigValidation15required_fields
FNDA:0,_RNvXs_NtNtNtNtCs2meEIT43k6D_13nestgate_core6config17canonical_primary7domains20consolidated_domainsNtB4_25ConsolidatedDomainConfigsNtB4_22DomainConfigValidation24validate_for_environment
FNDA:0,_RNvXs_NtNtNtNtCs2meEIT43k6D_13nestgate_core6config17canonical_primary7domains20consolidated_domainsNtB4_25ConsolidatedDomainConfigsNtB4_22DomainConfigValidation8validate
FNF:22
FNH:0
DA:359,0
DA:360,0
DA:361,0
DA:362,0
DA:363,0
DA:364,0
DA:365,0
DA:366,0
DA:367,0
DA:368,0
DA:389,0
DA:390,0
DA:393,0
DA:394,0
DA:395,0
DA:396,0
DA:397,0
DA:398,0
DA:399,0
DA:400,0
DA:401,0
DA:403,0
DA:404,0
DA:407,0
DA:409,0
DA:410,0
DA:412,0
DA:413,0
DA:414,0
DA:415,0
DA:416,0
DA:417,0
DA:418,0
DA:419,0
DA:420,0
DA:422,0
DA:423,0
DA:424,0
DA:425,0
DA:426,0
DA:427,0
DA:430,0
DA:431,0
DA:434,0
DA:435,0
DA:436,0
DA:437,0
DA:438,0
DA:440,0
DA:443,0
DA:444,0
DA:445,0
DA:446,0
DA:447,0
DA:449,0
DA:752,0
DA:753,0
DA:754,0
DA:756,0
DA:757,0
DA:758,0
DA:760,0
DA:761,0
DA:762,0
DA:764,0
DA:765,0
DA:766,0
DA:771,0
DA:772,0
DA:773,0
DA:775,0
DA:776,0
DA:777,0
DA:779,0
DA:780,0
DA:781,0
DA:783,0
DA:784,0
DA:785,0
DA:793,0
DA:794,0
DA:795,0
DA:797,0
DA:798,0
DA:799,0
DA:801,0
DA:802,0
DA:803,0
DA:805,0
DA:806,0
DA:807,0
DA:824,0
DA:825,0
DA:826,0
DA:827,0
DA:828,0
DA:829,0
DA:830,0
DA:831,0
DA:836,0
DA:837,0
DA:838,0
DA:839,0
DA:840,0
DA:841,0
DA:842,0
DA:843,0
DA:848,0
DA:849,0
DA:850,0
DA:851,0
DA:852,0
DA:853,0
DA:854,0
DA:855,0
DA:856,0
DA:873,0
DA:874,0
DA:875,0
DA:891,0
DA:892,0
DA:893,0
DA:894,0
DA:895,0
DA:896,0
DA:897,0
BRF:0
BRH:0
LF:126
LH:0
end_of_record
SF:/home/eastgate/Development/ecoPrimals/nestgate/code/crates/nestgate-core/src/config/canonical_primary/domains/handler_canonical/api.rs
FN:134,_RNvMs3_NtNtNtNtNtCs2meEIT43k6D_13nestgate_core6config17canonical_primary7domains17handler_canonical3apiNtB5_16ApiHandlerConfig16high_performance
FN:122,_RNvMs3_NtNtNtNtNtCs2meEIT43k6D_13nestgate_core6config17canonical_primary7domains17handler_canonical3apiNtB5_16ApiHandlerConfig20production_optimized
FN:128,_RNvMs3_NtNtNtNtNtCs2meEIT43k6D_13nestgate_core6config17canonical_primary7domains17handler_canonical3apiNtB5_16ApiHandlerConfig21development_optimized
FN:140,_RNvMs3_NtNtNtNtNtCs2meEIT43k6D_13nestgate_core6config17canonical_primary7domains17handler_canonical3apiNtB5_16ApiHandlerConfig5merge
FN:144,_RNvMs3_NtNtNtNtNtCs2meEIT43k6D_13nestgate_core6config17canonical_primary7domains17handler_canonical3apiNtB5_16ApiHandlerConfig8validate
FN:70,_RNvXNtNtNtNtNtCs2meEIT43k6D_13nestgate_core6config17canonical_primary7domains17handler_canonical3apiNtB2_20RequestHandlerConfigNtNtCs5GmCzIpY9Qj_4core7default7Default7default
FN:91,_RNvXs0_NtNtNtNtNtCs2meEIT43k6D_13nestgate_core6config17canonical_primary7domains17handler_canonical3apiNtB5_18RouteHandlerConfigNtNtCs5GmCzIpY9Qj_4core7default7Default7default
FN:101,_RNvXs1_NtNtNtNtNtCs2meEIT43k6D_13nestgate_core6config17canonical_primary7domains17handler_canonical3apiNtB5_17AuthHandlerConfigNtNtCs5GmCzIpY9Qj_4core7default7Default7default
FN:111,_RNvXs2_NtNtNtNtNtCs2meEIT43k6D_13nestgate_core6config17canonical_primary7domains17handler_canonical3apiNtB5_22RateLimitHandlerConfigNtNtCs5GmCzIpY9Qj_4core7default7Default7default
FN:81,_RNvXs_NtNtNtNtNtCs2meEIT43k6D_13nestgate_core6config17canonical_primary7domains17handler_canonical3apiNtB4_21ResponseHandlerConfigNtNtCs5GmCzIpY9Qj_4core7default7Default7default
FNDA:0,_RNvMs3_NtNtNtNtNtCs2meEIT43k6D_13nestgate_core6config17canonical_primary7domains17handler_canonical3apiNtB5_16ApiHandlerConfig16high_performance
FNDA:0,_RNvMs3_NtNtNtNtNtCs2meEIT43k6D_13nestgate_core6config17canonical_primary7domains17handler_canonical3apiNtB5_16ApiHandlerConfig20production_optimized
FNDA:0,_RNvMs3_NtNtNtNtNtCs2meEIT43k6D_13nestgate_core6config17canonical_primary7domains17handler_canonical3apiNtB5_16ApiHandlerConfig21development_optimized
FNDA:0,_RNvMs3_NtNtNtNtNtCs2meEIT43k6D_13nestgate_core6config17canonical_primary7domains17handler_canonical3apiNtB5_16ApiHandlerConfig5merge
FNDA:0,_RNvMs3_NtNtNtNtNtCs2meEIT43k6D_13nestgate_core6config17canonical_primary7domains17handler_canonical3apiNtB5_16ApiHandlerConfig8validate
FNDA:0,_RNvXNtNtNtNtNtCs2meEIT43k6D_13nestgate_core6config17canonical_primary7domains17handler_canonical3apiNtB2_20RequestHandlerConfigNtNtCs5GmCzIpY9Qj_4core7default7Default7default
FNDA:0,_RNvXs0_NtNtNtNtNtCs2meEIT43k6D_13nestgate_core6config17canonical_primary7domains17handler_canonical3apiNtB5_18RouteHandlerConfigNtNtCs5GmCzIpY9Qj_4core7default7Default7default
FNDA:0,_RNvXs1_NtNtNtNtNtCs2meEIT43k6D_13nestgate_core6config17canonical_primary7domains17handler_canonical3apiNtB5_17AuthHandlerConfigNtNtCs5GmCzIpY9Qj_4core7default7Default7default
FNDA:0,_RNvXs2_NtNtNtNtNtCs2meEIT43k6D_13nestgate_core6config17canonical_primary7domains17handler_canonical3apiNtB5_22RateLimitHandlerConfigNtNtCs5GmCzIpY9Qj_4core7default7Default7default
FNDA:0,_RNvXs_NtNtNtNtNtCs2meEIT43k6D_13nestgate_core6config17canonical_primary7domains17handler_canonical3apiNtB4_21ResponseHandlerConfigNtNtCs5GmCzIpY9Qj_4core7default7Default7default
FNF:10
FNH:0
DA:70,0
DA:71,0
DA:72,0
DA:73,0
DA:74,0
DA:75,0
DA:76,0
DA:81,0
DA:82,0
DA:83,0
DA:84,0
DA:85,0
DA:86,0
DA:91,0
DA:92,0
DA:93,0
DA:94,0
DA:95,0
DA:96,0
DA:101,0
DA:102,0
DA:103,0
DA:104,0
DA:105,0
DA:106,0
DA:111,0
DA:112,0
DA:113,0
DA:114,0
DA:115,0
DA:116,0
DA:122,0
DA:123,0
DA:124,0
DA:128,0
DA:129,0
DA:130,0
DA:134,0
DA:135,0
DA:136,0
DA:140,0
DA:141,0
DA:142,0
DA:144,0
DA:145,0
DA:146,0
BRF:0
BRH:0
LF:46
LH:0
end_of_record
SF:/home/eastgate/Development/ecoPrimals/nestgate/code/crates/nestgate-core/src/config/canonical_primary/domains/handler_canonical/environment.rs
FN:85,_RNvMs0_NtNtNtNtNtCs2meEIT43k6D_13nestgate_core6config17canonical_primary7domains17handler_canonical11environmentNtB5_24HandlerEnvironmentConfig16high_performance
FN:73,_RNvMs0_NtNtNtNtNtCs2meEIT43k6D_13nestgate_core6config17canonical_primary7domains17handler_canonical11environmentNtB5_24HandlerEnvironmentConfig20production_optimized
FN:79,_RNvMs0_NtNtNtNtNtCs2meEIT43k6D_13nestgate_core6config17canonical_primary7domains17handler_canonical11environmentNtB5_24HandlerEnvironmentConfig21development_optimized
FN:91,_RNvMs0_NtNtNtNtNtCs2meEIT43k6D_13nestgate_core6config17canonical_primary7domains17handler_canonical11environmentNtB5_24HandlerEnvironmentConfig5merge
FN:95,_RNvMs0_NtNtNtNtNtCs2meEIT43k6D_13nestgate_core6config17canonical_primary7domains17handler_canonical11environmentNtB5_24HandlerEnvironmentConfig8validate
FN:48,_RNvXNtNtNtNtNtCs2meEIT43k6D_13nestgate_core6config17canonical_primary7domains17handler_canonical11environmentNtB2_24HandlerEnvironmentConfigNtNtCs5GmCzIpY9Qj_4core7default7Default7default
FN:60,_RNvXs_NtNtNtNtNtCs2meEIT43k6D_13nestgate_core6config17canonical_primary7domains17handler_canonical11environmentNtB4_18HandlerDebugConfigNtNtCs5GmCzIpY9Qj_4core7default7Default7default
FNDA:0,_RNvMs0_NtNtNtNtNtCs2meEIT43k6D_13nestgate_core6config17canonical_primary7domains17handler_canonical11environmentNtB5_24HandlerEnvironmentConfig16high_performance
FNDA:0,_RNvMs0_NtNtNtNtNtCs2meEIT43k6D_13nestgate_core6config17canonical_primary7domains17handler_canonical11environmentNtB5_24HandlerEnvironmentConfig20production_optimized
FNDA:0,_RNvMs0_NtNtNtNtNtCs2meEIT43k6D_13nestgate_core6config17canonical_primary7domains17handler_canonical11environmentNtB5_24HandlerEnvironmentConfig21development_optimized
FNDA:0,_RNvMs0_NtNtNtNtNtCs2meEIT43k6D_13nestgate_core6config17canonical_primary7domains17handler_canonical11environmentNtB5_24HandlerEnvironmentConfig5merge
FNDA:0,_RNvMs0_NtNtNtNtNtCs2meEIT43k6D_13nestgate_core6config17canonical_primary7domains17handler_canonical11environmentNtB5_24HandlerEnvironmentConfig8validate
FNDA:0,_RNvXNtNtNtNtNtCs2meEIT43k6D_13nestgate_core6config17canonical_primary7domains17handler_canonical11environmentNtB2_24HandlerEnvironmentConfigNtNtCs5GmCzIpY9Qj_4core7default7Default7default
FNDA:0,_RNvXs_NtNtNtNtNtCs2meEIT43k6D_13nestgate_core6config17canonical_primary7domains17handler_canonical11environmentNtB4_18HandlerDebugConfigNtNtCs5GmCzIpY9Qj_4core7default7Default7default
FNF:7
FNH:0
DA:48,0
DA:49,0
DA:50,0
DA:51,0
DA:52,0
DA:53,0
DA:54,0
DA:55,0
DA:60,0
DA:61,0
DA:62,0
DA:63,0
DA:64,0
DA:65,0
DA:66,0
DA:67,0
DA:73,0
DA:74,0
DA:75,0
DA:79,0
DA:80,0
DA:81,0
DA:85,0
DA:86,0
DA:87,0
DA:91,0
DA:92,0
DA:93,0
DA:95,0
DA:96,0
DA:97,0
BRF:0
BRH:0
LF:31
LH:0
end_of_record
SF:/home/eastgate/Development/ecoPrimals/nestgate/code/crates/nestgate-core/src/config/canonical_primary/domains/handler_canonical/error.rs
FN:73,_RNvMs_NtNtNtNtNtCs2meEIT43k6D_13nestgate_core6config17canonical_primary7domains17handler_canonical5errorNtB4_18ErrorHandlerConfig16high_performance
FN:61,_RNvMs_NtNtNtNtNtCs2meEIT43k6D_13nestgate_core6config17canonical_primary7domains17handler_canonical5errorNtB4_18ErrorHandlerConfig20production_optimized
FN:67,_RNvMs_NtNtNtNtNtCs2meEIT43k6D_13nestgate_core6config17canonical_primary7domains17handler_canonical5errorNtB4_18ErrorHandlerConfig21development_optimized
FN:79,_RNvMs_NtNtNtNtNtCs2meEIT43k6D_13nestgate_core6config17canonical_primary7domains17handler_canonical5errorNtB4_18ErrorHandlerConfig5merge
FN:83,_RNvMs_NtNtNtNtNtCs2meEIT43k6D_13nestgate_core6config17canonical_primary7domains17handler_canonical5errorNtB4_18ErrorHandlerConfig8validate
FN:48,_RNvXNtNtNtNtNtCs2meEIT43k6D_13nestgate_core6config17canonical_primary7domains17handler_canonical5errorNtB2_18ErrorHandlerConfigNtNtCs5GmCzIpY9Qj_4core7default7Default7default
FNDA:0,_RNvMs_NtNtNtNtNtCs2meEIT43k6D_13nestgate_core6config17canonical_primary7domains17handler_canonical5errorNtB4_18ErrorHandlerConfig16high_performance
FNDA:0,_RNvMs_NtNtNtNtNtCs2meEIT43k6D_13nestgate_core6config17canonical_primary7domains17handler_canonical5errorNtB4_18ErrorHandlerConfig20production_optimized
FNDA:0,_RNvMs_NtNtNtNtNtCs2meEIT43k6D_13nestgate_core6config17canonical_primary7domains17handler_canonical5errorNtB4_18ErrorHandlerConfig21development_optimized
FNDA:0,_RNvMs_NtNtNtNtNtCs2meEIT43k6D_13nestgate_core6config17canonical_primary7domains17handler_canonical5errorNtB4_18ErrorHandlerConfig5merge
FNDA:0,_RNvMs_NtNtNtNtNtCs2meEIT43k6D_13nestgate_core6config17canonical_primary7domains17handler_canonical5errorNtB4_18ErrorHandlerConfig8validate
FNDA:0,_RNvXNtNtNtNtNtCs2meEIT43k6D_13nestgate_core6config17canonical_primary7domains17handler_canonical5errorNtB2_18ErrorHandlerConfigNtNtCs5GmCzIpY9Qj_4core7default7Default7default
FNF:6
FNH:0
DA:48,0
DA:49,0
DA:50,0
DA:51,0
DA:52,0
DA:53,0
DA:54,0
DA:55,0
DA:61,0
DA:62,0
DA:63,0
DA:67,0
DA:68,0
DA:69,0
DA:73,0
DA:74,0
DA:75,0
DA:79,0
DA:80,0
DA:81,0
DA:83,0
DA:84,0
DA:85,0
BRF:0
BRH:0
LF:23
LH:0
end_of_record
SF:/home/eastgate/Development/ecoPrimals/nestgate/code/crates/nestgate-core/src/config/canonical_primary/domains/handler_canonical/event.rs
FN:73,_RNvMs_NtNtNtNtNtCs2meEIT43k6D_13nestgate_core6config17canonical_primary7domains17handler_canonical5eventNtB4_18EventHandlerConfig16high_performance
FN:61,_RNvMs_NtNtNtNtNtCs2meEIT43k6D_13nestgate_core6config17canonical_primary7domains17handler_canonical5eventNtB4_18EventHandlerConfig20production_optimized
FN:67,_RNvMs_NtNtNtNtNtCs2meEIT43k6D_13nestgate_core6config17canonical_primary7domains17handler_canonical5eventNtB4_18EventHandlerConfig21development_optimized
FN:79,_RNvMs_NtNtNtNtNtCs2meEIT43k6D_13nestgate_core6config17canonical_primary7domains17handler_canonical5eventNtB4_18EventHandlerConfig5merge
FN:83,_RNvMs_NtNtNtNtNtCs2meEIT43k6D_13nestgate_core6config17canonical_primary7domains17handler_canonical5eventNtB4_18EventHandlerConfig8validate
FN:48,_RNvXNtNtNtNtNtCs2meEIT43k6D_13nestgate_core6config17canonical_primary7domains17handler_canonical5eventNtB2_18EventHandlerConfigNtNtCs5GmCzIpY9Qj_4core7default7Default7default
FNDA:0,_RNvMs_NtNtNtNtNtCs2meEIT43k6D_13nestgate_core6config17canonical_primary7domains17handler_canonical5eventNtB4_18EventHandlerConfig16high_performance
FNDA:0,_RNvMs_NtNtNtNtNtCs2meEIT43k6D_13nestgate_core6config17canonical_primary7domains17handler_canonical5eventNtB4_18EventHandlerConfig20production_optimized
FNDA:0,_RNvMs_NtNtNtNtNtCs2meEIT43k6D_13nestgate_core6config17canonical_primary7domains17handler_canonical5eventNtB4_18EventHandlerConfig21development_optimized
FNDA:0,_RNvMs_NtNtNtNtNtCs2meEIT43k6D_13nestgate_core6config17canonical_primary7domains17handler_canonical5eventNtB4_18EventHandlerConfig5merge
FNDA:0,_RNvMs_NtNtNtNtNtCs2meEIT43k6D_13nestgate_core6config17canonical_primary7domains17handler_canonical5eventNtB4_18EventHandlerConfig8validate
FNDA:0,_RNvXNtNtNtNtNtCs2meEIT43k6D_13nestgate_core6config17canonical_primary7domains17handler_canonical5eventNtB2_18EventHandlerConfigNtNtCs5GmCzIpY9Qj_4core7default7Default7default
FNF:6
FNH:0
DA:48,0
DA:49,0
DA:50,0
DA:51,0
DA:52,0
DA:53,0
DA:54,0
DA:55,0
DA:61,0
DA:62,0
DA:63,0
DA:67,0
DA:68,0
DA:69,0
DA:73,0
DA:74,0
DA:75,0
DA:79,0
DA:80,0
DA:81,0
DA:83,0
DA:84,0
DA:85,0
BRF:0
BRH:0
LF:23
LH:0
end_of_record
SF:/home/eastgate/Development/ecoPrimals/nestgate/code/crates/nestgate-core/src/config/canonical_primary/domains/handler_canonical/lifecycle.rs
FN:73,_RNvMs_NtNtNtNtNtCs2meEIT43k6D_13nestgate_core6config17canonical_primary7domains17handler_canonical9lifecycleNtB4_22LifecycleHandlerConfig16high_performance
FN:61,_RNvMs_NtNtNtNtNtCs2meEIT43k6D_13nestgate_core6config17canonical_primary7domains17handler_canonical9lifecycleNtB4_22LifecycleHandlerConfig20production_optimized
FN:67,_RNvMs_NtNtNtNtNtCs2meEIT43k6D_13nestgate_core6config17canonical_primary7domains17handler_canonical9lifecycleNtB4_22LifecycleHandlerConfig21development_optimized
FN:79,_RNvMs_NtNtNtNtNtCs2meEIT43k6D_13nestgate_core6config17canonical_primary7domains17handler_canonical9lifecycleNtB4_22LifecycleHandlerConfig5merge
FN:83,_RNvMs_NtNtNtNtNtCs2meEIT43k6D_13nestgate_core6config17canonical_primary7domains17handler_canonical9lifecycleNtB4_22LifecycleHandlerConfig8validate
FN:48,_RNvXNtNtNtNtNtCs2meEIT43k6D_13nestgate_core6config17canonical_primary7domains17handler_canonical9lifecycleNtB2_22LifecycleHandlerConfigNtNtCs5GmCzIpY9Qj_4core7default7Default7default
FNDA:0,_RNvMs_NtNtNtNtNtCs2meEIT43k6D_13nestgate_core6config17canonical_primary7domains17handler_canonical9lifecycleNtB4_22LifecycleHandlerConfig16high_performance
FNDA:0,_RNvMs_NtNtNtNtNtCs2meEIT43k6D_13nestgate_core6config17canonical_primary7domains17handler_canonical9lifecycleNtB4_22LifecycleHandlerConfig20production_optimized
FNDA:0,_RNvMs_NtNtNtNtNtCs2meEIT43k6D_13nestgate_core6config17canonical_primary7domains17handler_canonical9lifecycleNtB4_22LifecycleHandlerConfig21development_optimized
FNDA:0,_RNvMs_NtNtNtNtNtCs2meEIT43k6D_13nestgate_core6config17canonical_primary7domains17handler_canonical9lifecycleNtB4_22LifecycleHandlerConfig5merge
FNDA:0,_RNvMs_NtNtNtNtNtCs2meEIT43k6D_13nestgate_core6config17canonical_primary7domains17handler_canonical9lifecycleNtB4_22LifecycleHandlerConfig8validate
FNDA:0,_RNvXNtNtNtNtNtCs2meEIT43k6D_13nestgate_core6config17canonical_primary7domains17handler_canonical9lifecycleNtB2_22LifecycleHandlerConfigNtNtCs5GmCzIpY9Qj_4core7default7Default7default
FNF:6
FNH:0
DA:48,0
DA:49,0
DA:50,0
DA:51,0
DA:52,0
DA:53,0
DA:54,0
DA:55,0
DA:61,0
DA:62,0
DA:63,0
DA:67,0
DA:68,0
DA:69,0
DA:73,0
DA:74,0
DA:75,0
DA:79,0
DA:80,0
DA:81,0
DA:83,0
DA:84,0
DA:85,0
BRF:0
BRH:0
LF:23
LH:0
end_of_record
SF:/home/eastgate/Development/ecoPrimals/nestgate/code/crates/nestgate-core/src/config/canonical_primary/domains/handler_canonical/middleware.rs
FN:73,_RNvMs_NtNtNtNtNtCs2meEIT43k6D_13nestgate_core6config17canonical_primary7domains17handler_canonical10middlewareNtB4_23MiddlewareHandlerConfig16high_performance
FN:61,_RNvMs_NtNtNtNtNtCs2meEIT43k6D_13nestgate_core6config17canonical_primary7domains17handler_canonical10middlewareNtB4_23MiddlewareHandlerConfig20production_optimized
FN:67,_RNvMs_NtNtNtNtNtCs2meEIT43k6D_13nestgate_core6config17canonical_primary7domains17handler_canonical10middlewareNtB4_23MiddlewareHandlerConfig21development_optimized
FN:79,_RNvMs_NtNtNtNtNtCs2meEIT43k6D_13nestgate_core6config17canonical_primary7domains17handler_canonical10middlewareNtB4_23MiddlewareHandlerConfig5merge
FN:83,_RNvMs_NtNtNtNtNtCs2meEIT43k6D_13nestgate_core6config17canonical_primary7domains17handler_canonical10middlewareNtB4_23MiddlewareHandlerConfig8validate
FN:48,_RNvXNtNtNtNtNtCs2meEIT43k6D_13nestgate_core6config17canonical_primary7domains17handler_canonical10middlewareNtB2_23MiddlewareHandlerConfigNtNtCs5GmCzIpY9Qj_4core7default7Default7default
FNDA:0,_RNvMs_NtNtNtNtNtCs2meEIT43k6D_13nestgate_core6config17canonical_primary7domains17handler_canonical10middlewareNtB4_23MiddlewareHandlerConfig16high_performance
FNDA:0,_RNvMs_NtNtNtNtNtCs2meEIT43k6D_13nestgate_core6config17canonical_primary7domains17handler_canonical10middlewareNtB4_23MiddlewareHandlerConfig20production_optimized
FNDA:0,_RNvMs_NtNtNtNtNtCs2meEIT43k6D_13nestgate_core6config17canonical_primary7domains17handler_canonical10middlewareNtB4_23MiddlewareHandlerConfig21development_optimized
FNDA:0,_RNvMs_NtNtNtNtNtCs2meEIT43k6D_13nestgate_core6config17canonical_primary7domains17handler_canonical10middlewareNtB4_23MiddlewareHandlerConfig5merge
FNDA:0,_RNvMs_NtNtNtNtNtCs2meEIT43k6D_13nestgate_core6config17canonical_primary7domains17handler_canonical10middlewareNtB4_23MiddlewareHandlerConfig8validate
FNDA:0,_RNvXNtNtNtNtNtCs2meEIT43k6D_13nestgate_core6config17canonical_primary7domains17handler_canonical10middlewareNtB2_23MiddlewareHandlerConfigNtNtCs5GmCzIpY9Qj_4core7default7Default7default
FNF:6
FNH:0
DA:48,0
DA:49,0
DA:50,0
DA:51,0
DA:52,0
DA:53,0
DA:54,0
DA:55,0
DA:61,0
DA:62,0
DA:63,0
DA:67,0
DA:68,0
DA:69,0
DA:73,0
DA:74,0
DA:75,0
DA:79,0
DA:80,0
DA:81,0
DA:83,0
DA:84,0
DA:85,0
BRF:0
BRH:0
LF:23
LH:0
end_of_record
SF:/home/eastgate/Development/ecoPrimals/nestgate/code/crates/nestgate-core/src/config/canonical_primary/domains/handler_canonical/monitoring.rs
FN:73,_RNvMs_NtNtNtNtNtCs2meEIT43k6D_13nestgate_core6config17canonical_primary7domains17handler_canonical10monitoringNtB4_23MonitoringHandlerConfig16high_performance
FN:61,_RNvMs_NtNtNtNtNtCs2meEIT43k6D_13nestgate_core6config17canonical_primary7domains17handler_canonical10monitoringNtB4_23MonitoringHandlerConfig20production_optimized
FN:67,_RNvMs_NtNtNtNtNtCs2meEIT43k6D_13nestgate_core6config17canonical_primary7domains17handler_canonical10monitoringNtB4_23MonitoringHandlerConfig21development_optimized
FN:79,_RNvMs_NtNtNtNtNtCs2meEIT43k6D_13nestgate_core6config17canonical_primary7domains17handler_canonical10monitoringNtB4_23MonitoringHandlerConfig5merge
FN:83,_RNvMs_NtNtNtNtNtCs2meEIT43k6D_13nestgate_core6config17canonical_primary7domains17handler_canonical10monitoringNtB4_23MonitoringHandlerConfig8validate
FN:48,_RNvXNtNtNtNtNtCs2meEIT43k6D_13nestgate_core6config17canonical_primary7domains17handler_canonical10monitoringNtB2_23MonitoringHandlerConfigNtNtCs5GmCzIpY9Qj_4core7default7Default7default
FNDA:0,_RNvMs_NtNtNtNtNtCs2meEIT43k6D_13nestgate_core6config17canonical_primary7domains17handler_canonical10monitoringNtB4_23MonitoringHandlerConfig16high_performance
FNDA:0,_RNvMs_NtNtNtNtNtCs2meEIT43k6D_13nestgate_core6config17canonical_primary7domains17handler_canonical10monitoringNtB4_23MonitoringHandlerConfig20production_optimized
FNDA:0,_RNvMs_NtNtNtNtNtCs2meEIT43k6D_13nestgate_core6config17canonical_primary7domains17handler_canonical10monitoringNtB4_23MonitoringHandlerConfig21development_optimized
FNDA:0,_RNvMs_NtNtNtNtNtCs2meEIT43k6D_13nestgate_core6config17canonical_primary7domains17handler_canonical10monitoringNtB4_23MonitoringHandlerConfig5merge
FNDA:0,_RNvMs_NtNtNtNtNtCs2meEIT43k6D_13nestgate_core6config17canonical_primary7domains17handler_canonical10monitoringNtB4_23MonitoringHandlerConfig8validate
FNDA:0,_RNvXNtNtNtNtNtCs2meEIT43k6D_13nestgate_core6config17canonical_primary7domains17handler_canonical10monitoringNtB2_23MonitoringHandlerConfigNtNtCs5GmCzIpY9Qj_4core7default7Default7default
FNF:6
FNH:0
DA:48,0
DA:49,0
DA:50,0
DA:51,0
DA:52,0
DA:53,0
DA:54,0
DA:55,0
DA:61,0
DA:62,0
DA:63,0
DA:67,0
DA:68,0
DA:69,0
DA:73,0
DA:74,0
DA:75,0
DA:79,0
DA:80,0
DA:81,0
DA:83,0
DA:84,0
DA:85,0
BRF:0
BRH:0
LF:23
LH:0
end_of_record
SF:/home/eastgate/Development/ecoPrimals/nestgate/code/crates/nestgate-core/src/config/canonical_primary/domains/handler_canonical/performance.rs
FN:73,_RNvMs_NtNtNtNtNtCs2meEIT43k6D_13nestgate_core6config17canonical_primary7domains17handler_canonical11performanceNtB4_24PerformanceHandlerConfig16high_performance
FN:61,_RNvMs_NtNtNtNtNtCs2meEIT43k6D_13nestgate_core6config17canonical_primary7domains17handler_canonical11performanceNtB4_24PerformanceHandlerConfig20production_optimized
FN:67,_RNvMs_NtNtNtNtNtCs2meEIT43k6D_13nestgate_core6config17canonical_primary7domains17handler_canonical11performanceNtB4_24PerformanceHandlerConfig21development_optimized
FN:79,_RNvMs_NtNtNtNtNtCs2meEIT43k6D_13nestgate_core6config17canonical_primary7domains17handler_canonical11performanceNtB4_24PerformanceHandlerConfig5merge
FN:83,_RNvMs_NtNtNtNtNtCs2meEIT43k6D_13nestgate_core6config17canonical_primary7domains17handler_canonical11performanceNtB4_24PerformanceHandlerConfig8validate
FN:48,_RNvXNtNtNtNtNtCs2meEIT43k6D_13nestgate_core6config17canonical_primary7domains17handler_canonical11performanceNtB2_24PerformanceHandlerConfigNtNtCs5GmCzIpY9Qj_4core7default7Default7default
FNDA:0,_RNvMs_NtNtNtNtNtCs2meEIT43k6D_13nestgate_core6config17canonical_primary7domains17handler_canonical11performanceNtB4_24PerformanceHandlerConfig16high_performance
FNDA:0,_RNvMs_NtNtNtNtNtCs2meEIT43k6D_13nestgate_core6config17canonical_primary7domains17handler_canonical11performanceNtB4_24PerformanceHandlerConfig20production_optimized
FNDA:0,_RNvMs_NtNtNtNtNtCs2meEIT43k6D_13nestgate_core6config17canonical_primary7domains17handler_canonical11performanceNtB4_24PerformanceHandlerConfig21development_optimized
FNDA:0,_RNvMs_NtNtNtNtNtCs2meEIT43k6D_13nestgate_core6config17canonical_primary7domains17handler_canonical11performanceNtB4_24PerformanceHandlerConfig5merge
FNDA:0,_RNvMs_NtNtNtNtNtCs2meEIT43k6D_13nestgate_core6config17canonical_primary7domains17handler_canonical11performanceNtB4_24PerformanceHandlerConfig8validate
FNDA:0,_RNvXNtNtNtNtNtCs2meEIT43k6D_13nestgate_core6config17canonical_primary7domains17handler_canonical11performanceNtB2_24PerformanceHandlerConfigNtNtCs5GmCzIpY9Qj_4core7default7Default7default
FNF:6
FNH:0
DA:48,0
DA:49,0
DA:50,0
DA:51,0
DA:52,0
DA:53,0
DA:54,0
DA:55,0
DA:61,0
DA:62,0
DA:63,0
DA:67,0
DA:68,0
DA:69,0
DA:73,0
DA:74,0
DA:75,0
DA:79,0
DA:80,0
DA:81,0
DA:83,0
DA:84,0
DA:85,0
BRF:0
BRH:0
LF:23
LH:0
end_of_record
SF:/home/eastgate/Development/ecoPrimals/nestgate/code/crates/nestgate-core/src/config/canonical_primary/domains/handler_canonical/security.rs
FN:73,_RNvMs_NtNtNtNtNtCs2meEIT43k6D_13nestgate_core6config17canonical_primary7domains17handler_canonical8securityNtB4_21SecurityHandlerConfig16high_performance
FN:61,_RNvMs_NtNtNtNtNtCs2meEIT43k6D_13nestgate_core6config17canonical_primary7domains17handler_canonical8securityNtB4_21SecurityHandlerConfig20production_optimized
FN:67,_RNvMs_NtNtNtNtNtCs2meEIT43k6D_13nestgate_core6config17canonical_primary7domains17handler_canonical8securityNtB4_21SecurityHandlerConfig21development_optimized
FN:79,_RNvMs_NtNtNtNtNtCs2meEIT43k6D_13nestgate_core6config17canonical_primary7domains17handler_canonical8securityNtB4_21SecurityHandlerConfig5merge
FN:83,_RNvMs_NtNtNtNtNtCs2meEIT43k6D_13nestgate_core6config17canonical_primary7domains17handler_canonical8securityNtB4_21SecurityHandlerConfig8validate
FN:48,_RNvXNtNtNtNtNtCs2meEIT43k6D_13nestgate_core6config17canonical_primary7domains17handler_canonical8securityNtB2_21SecurityHandlerConfigNtNtCs5GmCzIpY9Qj_4core7default7Default7default
FNDA:0,_RNvMs_NtNtNtNtNtCs2meEIT43k6D_13nestgate_core6config17canonical_primary7domains17handler_canonical8securityNtB4_21SecurityHandlerConfig16high_performance
FNDA:0,_RNvMs_NtNtNtNtNtCs2meEIT43k6D_13nestgate_core6config17canonical_primary7domains17handler_canonical8securityNtB4_21SecurityHandlerConfig20production_optimized
FNDA:0,_RNvMs_NtNtNtNtNtCs2meEIT43k6D_13nestgate_core6config17canonical_primary7domains17handler_canonical8securityNtB4_21SecurityHandlerConfig21development_optimized
FNDA:0,_RNvMs_NtNtNtNtNtCs2meEIT43k6D_13nestgate_core6config17canonical_primary7domains17handler_canonical8securityNtB4_21SecurityHandlerConfig5merge
FNDA:0,_RNvMs_NtNtNtNtNtCs2meEIT43k6D_13nestgate_core6config17canonical_primary7domains17handler_canonical8securityNtB4_21SecurityHandlerConfig8validate
FNDA:0,_RNvXNtNtNtNtNtCs2meEIT43k6D_13nestgate_core6config17canonical_primary7domains17handler_canonical8securityNtB2_21SecurityHandlerConfigNtNtCs5GmCzIpY9Qj_4core7default7Default7default
FNF:6
FNH:0
DA:48,0
DA:49,0
DA:50,0
DA:51,0
DA:52,0
DA:53,0
DA:54,0
DA:55,0
DA:61,0
DA:62,0
DA:63,0
DA:67,0
DA:68,0
DA:69,0
DA:73,0
DA:74,0
DA:75,0
DA:79,0
DA:80,0
DA:81,0
DA:83,0
DA:84,0
DA:85,0
BRF:0
BRH:0
LF:23
LH:0
end_of_record
SF:/home/eastgate/Development/ecoPrimals/nestgate/code/crates/nestgate-core/src/config/canonical_primary/domains/handler_canonical/validation.rs
FN:73,_RNvMs_NtNtNtNtNtCs2meEIT43k6D_13nestgate_core6config17canonical_primary7domains17handler_canonical10validationNtB4_23ValidationHandlerConfig16high_performance
FN:61,_RNvMs_NtNtNtNtNtCs2meEIT43k6D_13nestgate_core6config17canonical_primary7domains17handler_canonical10validationNtB4_23ValidationHandlerConfig20production_optimized
FN:67,_RNvMs_NtNtNtNtNtCs2meEIT43k6D_13nestgate_core6config17canonical_primary7domains17handler_canonical10validationNtB4_23ValidationHandlerConfig21development_optimized
FN:79,_RNvMs_NtNtNtNtNtCs2meEIT43k6D_13nestgate_core6config17canonical_primary7domains17handler_canonical10validationNtB4_23ValidationHandlerConfig5merge
FN:83,_RNvMs_NtNtNtNtNtCs2meEIT43k6D_13nestgate_core6config17canonical_primary7domains17handler_canonical10validationNtB4_23ValidationHandlerConfig8validate
FN:48,_RNvXNtNtNtNtNtCs2meEIT43k6D_13nestgate_core6config17canonical_primary7domains17handler_canonical10validationNtB2_23ValidationHandlerConfigNtNtCs5GmCzIpY9Qj_4core7default7Default7default
FNDA:0,_RNvMs_NtNtNtNtNtCs2meEIT43k6D_13nestgate_core6config17canonical_primary7domains17handler_canonical10validationNtB4_23ValidationHandlerConfig16high_performance
FNDA:0,_RNvMs_NtNtNtNtNtCs2meEIT43k6D_13nestgate_core6config17canonical_primary7domains17handler_canonical10validationNtB4_23ValidationHandlerConfig20production_optimized
FNDA:0,_RNvMs_NtNtNtNtNtCs2meEIT43k6D_13nestgate_core6config17canonical_primary7domains17handler_canonical10validationNtB4_23ValidationHandlerConfig21development_optimized
FNDA:0,_RNvMs_NtNtNtNtNtCs2meEIT43k6D_13nestgate_core6config17canonical_primary7domains17handler_canonical10validationNtB4_23ValidationHandlerConfig5merge
FNDA:0,_RNvMs_NtNtNtNtNtCs2meEIT43k6D_13nestgate_core6config17canonical_primary7domains17handler_canonical10validationNtB4_23ValidationHandlerConfig8validate
FNDA:0,_RNvXNtNtNtNtNtCs2meEIT43k6D_13nestgate_core6config17canonical_primary7domains17handler_canonical10validationNtB2_23ValidationHandlerConfigNtNtCs5GmCzIpY9Qj_4core7default7Default7default
FNF:6
FNH:0
DA:48,0
DA:49,0
DA:50,0
DA:51,0
DA:52,0
DA:53,0
DA:54,0
DA:55,0
DA:61,0
DA:62,0
DA:63,0
DA:67,0
DA:68,0
DA:69,0
DA:73,0
DA:74,0
DA:75,0
DA:79,0
DA:80,0
DA:81,0
DA:83,0
DA:84,0
DA:85,0
BRF:0
BRH:0
LF:23
LH:0
end_of_record
SF:/home/eastgate/Development/ecoPrimals/nestgate/code/crates/nestgate-core/src/config/canonical_primary/domains/handler_canonical/zfs.rs
FN:73,_RNvMs_NtNtNtNtNtCs2meEIT43k6D_13nestgate_core6config17canonical_primary7domains17handler_canonical3zfsNtB4_16ZfsHandlerConfig16high_performance
FN:61,_RNvMs_NtNtNtNtNtCs2meEIT43k6D_13nestgate_core6config17canonical_primary7domains17handler_canonical3zfsNtB4_16ZfsHandlerConfig20production_optimized
FN:67,_RNvMs_NtNtNtNtNtCs2meEIT43k6D_13nestgate_core6config17canonical_primary7domains17handler_canonical3zfsNtB4_16ZfsHandlerConfig21development_optimized
FN:79,_RNvMs_NtNtNtNtNtCs2meEIT43k6D_13nestgate_core6config17canonical_primary7domains17handler_canonical3zfsNtB4_16ZfsHandlerConfig5merge
FN:83,_RNvMs_NtNtNtNtNtCs2meEIT43k6D_13nestgate_core6config17canonical_primary7domains17handler_canonical3zfsNtB4_16ZfsHandlerConfig8validate
FN:48,_RNvXNtNtNtNtNtCs2meEIT43k6D_13nestgate_core6config17canonical_primary7domains17handler_canonical3zfsNtB2_16ZfsHandlerConfigNtNtCs5GmCzIpY9Qj_4core7default7Default7default
FNDA:0,_RNvMs_NtNtNtNtNtCs2meEIT43k6D_13nestgate_core6config17canonical_primary7domains17handler_canonical3zfsNtB4_16ZfsHandlerConfig16high_performance
FNDA:0,_RNvMs_NtNtNtNtNtCs2meEIT43k6D_13nestgate_core6config17canonical_primary7domains17handler_canonical3zfsNtB4_16ZfsHandlerConfig20production_optimized
FNDA:0,_RNvMs_NtNtNtNtNtCs2meEIT43k6D_13nestgate_core6config17canonical_primary7domains17handler_canonical3zfsNtB4_16ZfsHandlerConfig21development_optimized
FNDA:0,_RNvMs_NtNtNtNtNtCs2meEIT43k6D_13nestgate_core6config17canonical_primary7domains17handler_canonical3zfsNtB4_16ZfsHandlerConfig5merge
FNDA:0,_RNvMs_NtNtNtNtNtCs2meEIT43k6D_13nestgate_core6config17canonical_primary7domains17handler_canonical3zfsNtB4_16ZfsHandlerConfig8validate
FNDA:0,_RNvXNtNtNtNtNtCs2meEIT43k6D_13nestgate_core6config17canonical_primary7domains17handler_canonical3zfsNtB2_16ZfsHandlerConfigNtNtCs5GmCzIpY9Qj_4core7default7Default7default
FNF:6
FNH:0
DA:48,0
DA:49,0
DA:50,0
DA:51,0
DA:52,0
DA:53,0
DA:54,0
DA:55,0
DA:61,0
DA:62,0
DA:63,0
DA:67,0
DA:68,0
DA:69,0
DA:73,0
DA:74,0
DA:75,0
DA:79,0
DA:80,0
DA:81,0
DA:83,0
DA:84,0
DA:85,0
BRF:0
BRH:0
LF:23
LH:0
end_of_record
SF:/home/eastgate/Development/ecoPrimals/nestgate/code/crates/nestgate-core/src/config/canonical_primary/domains/network/api.rs
FN:259,_RNCNvMNtNtNtNtNtCs2meEIT43k6D_13nestgate_core6config17canonical_primary7domains7network3apiNtB4_9ApiConfig19production_hardened0Be_
FN:220,_RNCNvMNtNtNtNtNtCs2meEIT43k6D_13nestgate_core6config17canonical_primary7domains7network3apiNtB4_9ApiConfig21development_optimized0Be_
FN:253,_RNvMNtNtNtNtNtCs2meEIT43k6D_13nestgate_core6config17canonical_primary7domains7network3apiNtB2_9ApiConfig19production_hardened
FN:213,_RNvMNtNtNtNtNtCs2meEIT43k6D_13nestgate_core6config17canonical_primary7domains7network3apiNtB2_9ApiConfig21development_optimized
FN:317,_RNvMNtNtNtNtNtCs2meEIT43k6D_13nestgate_core6config17canonical_primary7domains7network3apiNtB2_9ApiConfig5merge
FN:295,_RNvMNtNtNtNtNtCs2meEIT43k6D_13nestgate_core6config17canonical_primary7domains7network3apiNtB2_9ApiConfig8validate
FN:355,_RNvMs0_NtNtNtNtNtCs2meEIT43k6D_13nestgate_core6config17canonical_primary7domains7network3apiNtB5_9TlsConfig10production
FN:391,_RNvMs2_NtNtNtNtNtCs2meEIT43k6D_13nestgate_core6config17canonical_primary7domains7network3apiNtB5_18RateLimitingConfig10production
FN:378,_RNvMs2_NtNtNtNtNtCs2meEIT43k6D_13nestgate_core6config17canonical_primary7domains7network3apiNtB5_18RateLimitingConfig11development
FN:429,_RNvMs4_NtNtNtNtNtCs2meEIT43k6D_13nestgate_core6config17canonical_primary7domains7network3apiNtB5_17ApiSecurityConfig10production
FN:413,_RNvMs4_NtNtNtNtNtCs2meEIT43k6D_13nestgate_core6config17canonical_primary7domains7network3apiNtB5_17ApiSecurityConfig11development
FN:475,_RNvMs6_NtNtNtNtNtCs2meEIT43k6D_13nestgate_core6config17canonical_primary7domains7network3apiNtB5_20ApiPerformanceConfig10production
FN:454,_RNvMs6_NtNtNtNtNtCs2meEIT43k6D_13nestgate_core6config17canonical_primary7domains7network3apiNtB5_20ApiPerformanceConfig11development
FN:523,_RNvMs8_NtNtNtNtNtCs2meEIT43k6D_13nestgate_core6config17canonical_primary7domains7network3apiNtB5_19ApiMonitoringConfig10production
FN:505,_RNvMs8_NtNtNtNtNtCs2meEIT43k6D_13nestgate_core6config17canonical_primary7domains7network3apiNtB5_19ApiMonitoringConfig11development
FN:555,_RNvMsa_NtNtNtNtNtCs2meEIT43k6D_13nestgate_core6config17canonical_primary7domains7network3apiNtB5_14ApiAlertConfig10production
FN:367,_RNvXs1_NtNtNtNtNtCs2meEIT43k6D_13nestgate_core6config17canonical_primary7domains7network3apiNtB5_18RateLimitingConfigNtNtCs5GmCzIpY9Qj_4core7default7Default7default
FN:402,_RNvXs3_NtNtNtNtNtCs2meEIT43k6D_13nestgate_core6config17canonical_primary7domains7network3apiNtB5_17ApiSecurityConfigNtNtCs5GmCzIpY9Qj_4core7default7Default7default
FN:443,_RNvXs5_NtNtNtNtNtCs2meEIT43k6D_13nestgate_core6config17canonical_primary7domains7network3apiNtB5_20ApiPerformanceConfigNtNtCs5GmCzIpY9Qj_4core7default7Default7default
FN:494,_RNvXs7_NtNtNtNtNtCs2meEIT43k6D_13nestgate_core6config17canonical_primary7domains7network3apiNtB5_19ApiMonitoringConfigNtNtCs5GmCzIpY9Qj_4core7default7Default7default
FN:539,_RNvXs9_NtNtNtNtNtCs2meEIT43k6D_13nestgate_core6config17canonical_primary7domains7network3apiNtB5_14ApiAlertConfigNtNtCs5GmCzIpY9Qj_4core7default7Default7default
FN:339,_RNvXs_NtNtNtNtNtCs2meEIT43k6D_13nestgate_core6config17canonical_primary7domains7network3apiNtB4_9TlsConfigNtNtCs5GmCzIpY9Qj_4core7default7Default7default
FN:567,_RNvXsb_NtNtNtNtNtCs2meEIT43k6D_13nestgate_core6config17canonical_primary7domains7network3apiNtB5_9ApiConfigNtNtCs5GmCzIpY9Qj_4core7default7Default7default
FNDA:0,_RNCNvMNtNtNtNtNtCs2meEIT43k6D_13nestgate_core6config17canonical_primary7domains7network3apiNtB4_9ApiConfig19production_hardened0Be_
FNDA:0,_RNCNvMNtNtNtNtNtCs2meEIT43k6D_13nestgate_core6config17canonical_primary7domains7network3apiNtB4_9ApiConfig21development_optimized0Be_
FNDA:0,_RNvMNtNtNtNtNtCs2meEIT43k6D_13nestgate_core6config17canonical_primary7domains7network3apiNtB2_9ApiConfig19production_hardened
FNDA:0,_RNvMNtNtNtNtNtCs2meEIT43k6D_13nestgate_core6config17canonical_primary7domains7network3apiNtB2_9ApiConfig21development_optimized
FNDA:0,_RNvMNtNtNtNtNtCs2meEIT43k6D_13nestgate_core6config17canonical_primary7domains7network3apiNtB2_9ApiConfig5merge
FNDA:0,_RNvMNtNtNtNtNtCs2meEIT43k6D_13nestgate_core6config17canonical_primary7domains7network3apiNtB2_9ApiConfig8validate
FNDA:0,_RNvMs0_NtNtNtNtNtCs2meEIT43k6D_13nestgate_core6config17canonical_primary7domains7network3apiNtB5_9TlsConfig10production
FNDA:0,_RNvMs2_NtNtNtNtNtCs2meEIT43k6D_13nestgate_core6config17canonical_primary7domains7network3apiNtB5_18RateLimitingConfig10production
FNDA:0,_RNvMs2_NtNtNtNtNtCs2meEIT43k6D_13nestgate_core6config17canonical_primary7domains7network3apiNtB5_18RateLimitingConfig11development
FNDA:0,_RNvMs4_NtNtNtNtNtCs2meEIT43k6D_13nestgate_core6config17canonical_primary7domains7network3apiNtB5_17ApiSecurityConfig10production
FNDA:0,_RNvMs4_NtNtNtNtNtCs2meEIT43k6D_13nestgate_core6config17canonical_primary7domains7network3apiNtB5_17ApiSecurityConfig11development
FNDA:0,_RNvMs6_NtNtNtNtNtCs2meEIT43k6D_13nestgate_core6config17canonical_primary7domains7network3apiNtB5_20ApiPerformanceConfig10production
FNDA:0,_RNvMs6_NtNtNtNtNtCs2meEIT43k6D_13nestgate_core6config17canonical_primary7domains7network3apiNtB5_20ApiPerformanceConfig11development
FNDA:0,_RNvMs8_NtNtNtNtNtCs2meEIT43k6D_13nestgate_core6config17canonical_primary7domains7network3apiNtB5_19ApiMonitoringConfig10production
FNDA:0,_RNvMs8_NtNtNtNtNtCs2meEIT43k6D_13nestgate_core6config17canonical_primary7domains7network3apiNtB5_19ApiMonitoringConfig11development
FNDA:0,_RNvMsa_NtNtNtNtNtCs2meEIT43k6D_13nestgate_core6config17canonical_primary7domains7network3apiNtB5_14ApiAlertConfig10production
FNDA:0,_RNvXs1_NtNtNtNtNtCs2meEIT43k6D_13nestgate_core6config17canonical_primary7domains7network3apiNtB5_18RateLimitingConfigNtNtCs5GmCzIpY9Qj_4core7default7Default7default
FNDA:0,_RNvXs3_NtNtNtNtNtCs2meEIT43k6D_13nestgate_core6config17canonical_primary7domains7network3apiNtB5_17ApiSecurityConfigNtNtCs5GmCzIpY9Qj_4core7default7Default7default
FNDA:0,_RNvXs5_NtNtNtNtNtCs2meEIT43k6D_13nestgate_core6config17canonical_primary7domains7network3apiNtB5_20ApiPerformanceConfigNtNtCs5GmCzIpY9Qj_4core7default7Default7default
FNDA:0,_RNvXs7_NtNtNtNtNtCs2meEIT43k6D_13nestgate_core6config17canonical_primary7domains7network3apiNtB5_19ApiMonitoringConfigNtNtCs5GmCzIpY9Qj_4core7default7Default7default
FNDA:0,_RNvXs9_NtNtNtNtNtCs2meEIT43k6D_13nestgate_core6config17canonical_primary7domains7network3apiNtB5_14ApiAlertConfigNtNtCs5GmCzIpY9Qj_4core7default7Default7default
FNDA:0,_RNvXs_NtNtNtNtNtCs2meEIT43k6D_13nestgate_core6config17canonical_primary7domains7network3apiNtB4_9TlsConfigNtNtCs5GmCzIpY9Qj_4core7default7Default7default
FNDA:0,_RNvXsb_NtNtNtNtNtCs2meEIT43k6D_13nestgate_core6config17canonical_primary7domains7network3apiNtB5_9ApiConfigNtNtCs5GmCzIpY9Qj_4core7default7Default7default
FNF:23
FNH:0
DA:213,0
DA:214,0
DA:217,0
DA:218,0
DA:219,0
DA:220,0
DA:221,0
DA:223,0
DA:224,0
DA:230,0
DA:231,0
DA:234,0
DA:235,0
DA:238,0
DA:241,0
DA:244,0
DA:246,0
DA:253,0
DA:257,0
DA:258,0
DA:259,0
DA:262,0
DA:263,0
DA:269,0
DA:270,0
DA:273,0
DA:274,0
DA:277,0
DA:280,0
DA:283,0
DA:285,0
DA:295,0
DA:296,0
DA:297,0
DA:298,0
DA:299,0
DA:300,0
DA:301,0
DA:302,0
DA:303,0
DA:304,0
DA:305,0
DA:306,0
DA:307,0
DA:308,0
DA:309,0
DA:310,0
DA:317,0
DA:318,0
DA:319,0
DA:320,0
DA:321,0
DA:322,0
DA:323,0
DA:324,0
DA:325,0
DA:326,0
DA:327,0
DA:328,0
DA:329,0
DA:330,0
DA:331,0
DA:332,0
DA:333,0
DA:334,0
DA:339,0
DA:340,0
DA:341,0
DA:342,0
DA:343,0
DA:344,0
DA:345,0
DA:346,0
DA:355,0
DA:356,0
DA:357,0
DA:358,0
DA:359,0
DA:360,0
DA:361,0
DA:362,0
DA:367,0
DA:368,0
DA:369,0
DA:378,0
DA:379,0
DA:380,0
DA:381,0
DA:382,0
DA:383,0
DA:384,0
DA:391,0
DA:392,0
DA:393,0
DA:394,0
DA:395,0
DA:396,0
DA:397,0
DA:402,0
DA:403,0
DA:404,0
DA:413,0
DA:414,0
DA:415,0
DA:416,0
DA:417,0
DA:418,0
DA:419,0
DA:420,0
DA:421,0
DA:422,0
DA:429,0
DA:430,0
DA:431,0
DA:432,0
DA:433,0
DA:434,0
DA:435,0
DA:436,0
DA:437,0
DA:438,0
DA:443,0
DA:444,0
DA:445,0
DA:454,0
DA:459,0
DA:460,0
DA:461,0
DA:462,0
DA:463,0
DA:464,0
DA:465,0
DA:466,0
DA:467,0
DA:468,0
DA:475,0
DA:480,0
DA:481,0
DA:482,0
DA:483,0
DA:484,0
DA:485,0
DA:486,0
DA:487,0
DA:488,0
DA:489,0
DA:494,0
DA:495,0
DA:496,0
DA:505,0
DA:506,0
DA:507,0
DA:508,0
DA:509,0
DA:510,0
DA:511,0
DA:512,0
DA:513,0
DA:514,0
DA:515,0
DA:516,0
DA:523,0
DA:524,0
DA:525,0
DA:526,0
DA:527,0
DA:528,0
DA:529,0
DA:530,0
DA:531,0
DA:532,0
DA:533,0
DA:534,0
DA:539,0
DA:540,0
DA:541,0
DA:542,0
DA:543,0
DA:544,0
DA:545,0
DA:546,0
DA:555,0
DA:556,0
DA:557,0
DA:558,0
DA:559,0
DA:560,0
DA:561,0
DA:562,0
DA:567,0
DA:568,0
DA:569,0
BRF:0
BRH:0
LF:194
LH:0
end_of_record
SF:/home/eastgate/Development/ecoPrimals/nestgate/code/crates/nestgate-core/src/config/canonical_primary/domains/network/discovery.rs
FN:38,_RNvMNtNtNtNtNtCs2meEIT43k6D_13nestgate_core6config17canonical_primary7domains7network9discoveryNtB2_22NetworkDiscoveryConfig19production_hardened
FN:26,_RNvMNtNtNtNtNtCs2meEIT43k6D_13nestgate_core6config17canonical_primary7domains7network9discoveryNtB2_22NetworkDiscoveryConfig21development_optimized
FN:61,_RNvMNtNtNtNtNtCs2meEIT43k6D_13nestgate_core6config17canonical_primary7domains7network9discoveryNtB2_22NetworkDiscoveryConfig5merge
FN:53,_RNvMNtNtNtNtNtCs2meEIT43k6D_13nestgate_core6config17canonical_primary7domains7network9discoveryNtB2_22NetworkDiscoveryConfig8validate
FNDA:0,_RNvMNtNtNtNtNtCs2meEIT43k6D_13nestgate_core6config17canonical_primary7domains7network9discoveryNtB2_22NetworkDiscoveryConfig19production_hardened
FNDA:0,_RNvMNtNtNtNtNtCs2meEIT43k6D_13nestgate_core6config17canonical_primary7domains7network9discoveryNtB2_22NetworkDiscoveryConfig21development_optimized
FNDA:0,_RNvMNtNtNtNtNtCs2meEIT43k6D_13nestgate_core6config17canonical_primary7domains7network9discoveryNtB2_22NetworkDiscoveryConfig5merge
FNDA:0,_RNvMNtNtNtNtNtCs2meEIT43k6D_13nestgate_core6config17canonical_primary7domains7network9discoveryNtB2_22NetworkDiscoveryConfig8validate
FNF:4
FNH:0
DA:26,0
DA:27,0
DA:28,0
DA:29,0
DA:30,0
DA:31,0
DA:32,0
DA:38,0
DA:39,0
DA:40,0
DA:41,0
DA:42,0
DA:43,0
DA:44,0
DA:53,0
DA:54,0
DA:55,0
DA:61,0
DA:62,0
DA:63,0
DA:64,0
DA:65,0
DA:66,0
BRF:0
BRH:0
LF:23
LH:0
end_of_record
SF:/home/eastgate/Development/ecoPrimals/nestgate/code/crates/nestgate-core/src/config/canonical_primary/domains/network/environment.rs
FN:41,_RNvMNtNtNtNtNtCs2meEIT43k6D_13nestgate_core6config17canonical_primary7domains7network11environmentNtB2_24NetworkEnvironmentConfig19production_hardened
FN:26,_RNvMNtNtNtNtNtCs2meEIT43k6D_13nestgate_core6config17canonical_primary7domains7network11environmentNtB2_24NetworkEnvironmentConfig21development_optimized
FN:68,_RNvMNtNtNtNtNtCs2meEIT43k6D_13nestgate_core6config17canonical_primary7domains7network11environmentNtB2_24NetworkEnvironmentConfig5merge
FN:60,_RNvMNtNtNtNtNtCs2meEIT43k6D_13nestgate_core6config17canonical_primary7domains7network11environmentNtB2_24NetworkEnvironmentConfig8validate
FNDA:0,_RNvMNtNtNtNtNtCs2meEIT43k6D_13nestgate_core6config17canonical_primary7domains7network11environmentNtB2_24NetworkEnvironmentConfig19production_hardened
FNDA:0,_RNvMNtNtNtNtNtCs2meEIT43k6D_13nestgate_core6config17canonical_primary7domains7network11environmentNtB2_24NetworkEnvironmentConfig21development_optimized
FNDA:0,_RNvMNtNtNtNtNtCs2meEIT43k6D_13nestgate_core6config17canonical_primary7domains7network11environmentNtB2_24NetworkEnvironmentConfig5merge
FNDA:0,_RNvMNtNtNtNtNtCs2meEIT43k6D_13nestgate_core6config17canonical_primary7domains7network11environmentNtB2_24NetworkEnvironmentConfig8validate
FNF:4
FNH:0
DA:26,0
DA:27,0
DA:28,0
DA:30,0
DA:31,0
DA:32,0
DA:33,0
DA:34,0
DA:35,0
DA:41,0
DA:42,0
DA:43,0
DA:44,0
DA:46,0
DA:47,0
DA:48,0
DA:49,0
DA:50,0
DA:51,0
DA:60,0
DA:61,0
DA:62,0
DA:68,0
DA:69,0
DA:70,0
DA:71,0
DA:72,0
DA:73,0
BRF:0
BRH:0
LF:28
LH:0
end_of_record
SF:/home/eastgate/Development/ecoPrimals/nestgate/code/crates/nestgate-core/src/config/canonical_primary/domains/network/mod.rs
FN:109,_RNvMNtNtNtNtCs2meEIT43k6D_13nestgate_core6config17canonical_primary7domains7networkNtB2_22CanonicalNetworkConfig19production_hardened
FN:93,_RNvMNtNtNtNtCs2meEIT43k6D_13nestgate_core6config17canonical_primary7domains7networkNtB2_22CanonicalNetworkConfig21development_optimized
FN:146,_RNvMNtNtNtNtCs2meEIT43k6D_13nestgate_core6config17canonical_primary7domains7networkNtB2_22CanonicalNetworkConfig5merge
FN:131,_RNvMNtNtNtNtCs2meEIT43k6D_13nestgate_core6config17canonical_primary7domains7networkNtB2_22CanonicalNetworkConfig8validate
FN:162,_RNvXs_NtNtNtNtCs2meEIT43k6D_13nestgate_core6config17canonical_primary7domains7networkNtB4_22CanonicalNetworkConfigNtNtCs5GmCzIpY9Qj_4core7default7Default7default
FNDA:0,_RNvMNtNtNtNtCs2meEIT43k6D_13nestgate_core6config17canonical_primary7domains7networkNtB2_22CanonicalNetworkConfig19production_hardened
FNDA:0,_RNvMNtNtNtNtCs2meEIT43k6D_13nestgate_core6config17canonical_primary7domains7networkNtB2_22CanonicalNetworkConfig21development_optimized
FNDA:0,_RNvMNtNtNtNtCs2meEIT43k6D_13nestgate_core6config17canonical_primary7domains7networkNtB2_22CanonicalNetworkConfig5merge
FNDA:0,_RNvMNtNtNtNtCs2meEIT43k6D_13nestgate_core6config17canonical_primary7domains7networkNtB2_22CanonicalNetworkConfig8validate
FNDA:0,_RNvXs_NtNtNtNtCs2meEIT43k6D_13nestgate_core6config17canonical_primary7domains7networkNtB4_22CanonicalNetworkConfigNtNtCs5GmCzIpY9Qj_4core7default7Default7default
FNF:5
FNH:0
DA:93,0
DA:94,0
DA:95,0
DA:96,0
DA:97,0
DA:98,0
DA:99,0
DA:100,0
DA:101,0
DA:102,0
DA:103,0
DA:104,0
DA:105,0
DA:109,0
DA:110,0
DA:111,0
DA:112,0
DA:113,0
DA:114,0
DA:115,0
DA:116,0
DA:117,0
DA:118,0
DA:119,0
DA:120,0
DA:121,0
DA:131,0
DA:132,0
DA:133,0
DA:134,0
DA:135,0
DA:136,0
DA:137,0
DA:138,0
DA:139,0
DA:140,0
DA:141,0
DA:142,0
DA:146,0
DA:147,0
DA:148,0
DA:149,0
DA:150,0
DA:151,0
DA:152,0
DA:153,0
DA:154,0
DA:155,0
DA:156,0
DA:157,0
DA:162,0
DA:163,0
DA:164,0
BRF:0
BRH:0
LF:53
LH:0
end_of_record
SF:/home/eastgate/Development/ecoPrimals/nestgate/code/crates/nestgate-core/src/config/canonical_primary/domains/network/monitoring.rs
FN:37,_RNvMNtNtNtNtNtCs2meEIT43k6D_13nestgate_core6config17canonical_primary7domains7network10monitoringNtB2_23NetworkMonitoringConfig19production_hardened
FN:25,_RNvMNtNtNtNtNtCs2meEIT43k6D_13nestgate_core6config17canonical_primary7domains7network10monitoringNtB2_23NetworkMonitoringConfig21development_optimized
FN:60,_RNvMNtNtNtNtNtCs2meEIT43k6D_13nestgate_core6config17canonical_primary7domains7network10monitoringNtB2_23NetworkMonitoringConfig5merge
FN:52,_RNvMNtNtNtNtNtCs2meEIT43k6D_13nestgate_core6config17canonical_primary7domains7network10monitoringNtB2_23NetworkMonitoringConfig8validate
FNDA:0,_RNvMNtNtNtNtNtCs2meEIT43k6D_13nestgate_core6config17canonical_primary7domains7network10monitoringNtB2_23NetworkMonitoringConfig19production_hardened
FNDA:0,_RNvMNtNtNtNtNtCs2meEIT43k6D_13nestgate_core6config17canonical_primary7domains7network10monitoringNtB2_23NetworkMonitoringConfig21development_optimized
FNDA:0,_RNvMNtNtNtNtNtCs2meEIT43k6D_13nestgate_core6config17canonical_primary7domains7network10monitoringNtB2_23NetworkMonitoringConfig5merge
FNDA:0,_RNvMNtNtNtNtNtCs2meEIT43k6D_13nestgate_core6config17canonical_primary7domains7network10monitoringNtB2_23NetworkMonitoringConfig8validate
FNF:4
FNH:0
DA:25,0
DA:26,0
DA:27,0
DA:28,0
DA:29,0
DA:30,0
DA:31,0
DA:37,0
DA:38,0
DA:39,0
DA:40,0
DA:41,0
DA:42,0
DA:43,0
DA:52,0
DA:53,0
DA:54,0
DA:60,0
DA:61,0
DA:62,0
DA:63,0
DA:64,0
DA:65,0
BRF:0
BRH:0
LF:23
LH:0
end_of_record
SF:/home/eastgate/Development/ecoPrimals/nestgate/code/crates/nestgate-core/src/config/canonical_primary/domains/network/orchestration.rs
FN:42,_RNvMNtNtNtNtNtCs2meEIT43k6D_13nestgate_core6config17canonical_primary7domains7network13orchestrationNtB2_26NetworkOrchestrationConfig19production_hardened
FN:25,_RNvMNtNtNtNtNtCs2meEIT43k6D_13nestgate_core6config17canonical_primary7domains7network13orchestrationNtB2_26NetworkOrchestrationConfig21development_optimized
FN:66,_RNvMNtNtNtNtNtCs2meEIT43k6D_13nestgate_core6config17canonical_primary7domains7network13orchestrationNtB2_26NetworkOrchestrationConfig5merge
FN:58,_RNvMNtNtNtNtNtCs2meEIT43k6D_13nestgate_core6config17canonical_primary7domains7network13orchestrationNtB2_26NetworkOrchestrationConfig8validate
FNDA:0,_RNvMNtNtNtNtNtCs2meEIT43k6D_13nestgate_core6config17canonical_primary7domains7network13orchestrationNtB2_26NetworkOrchestrationConfig19production_hardened
FNDA:0,_RNvMNtNtNtNtNtCs2meEIT43k6D_13nestgate_core6config17canonical_primary7domains7network13orchestrationNtB2_26NetworkOrchestrationConfig21development_optimized
FNDA:0,_RNvMNtNtNtNtNtCs2meEIT43k6D_13nestgate_core6config17canonical_primary7domains7network13orchestrationNtB2_26NetworkOrchestrationConfig5merge
FNDA:0,_RNvMNtNtNtNtNtCs2meEIT43k6D_13nestgate_core6config17canonical_primary7domains7network13orchestrationNtB2_26NetworkOrchestrationConfig8validate
FNF:4
FNH:0
DA:25,0
DA:27,0
DA:28,0
DA:29,0
DA:30,0
DA:31,0
DA:32,0
DA:33,0
DA:34,0
DA:35,0
DA:36,0
DA:42,0
DA:44,0
DA:45,0
DA:46,0
DA:47,0
DA:48,0
DA:49,0
DA:58,0
DA:59,0
DA:60,0
DA:66,0
DA:67,0
DA:68,0
DA:69,0
DA:70,0
DA:71,0
BRF:0
BRH:0
LF:27
LH:0
end_of_record
SF:/home/eastgate/Development/ecoPrimals/nestgate/code/crates/nestgate-core/src/config/canonical_primary/domains/network/performance.rs
FN:40,_RNvMNtNtNtNtNtCs2meEIT43k6D_13nestgate_core6config17canonical_primary7domains7network11performanceNtB2_24NetworkPerformanceConfig19production_hardened
FN:27,_RNvMNtNtNtNtNtCs2meEIT43k6D_13nestgate_core6config17canonical_primary7domains7network11performanceNtB2_24NetworkPerformanceConfig21development_optimized
FN:64,_RNvMNtNtNtNtNtCs2meEIT43k6D_13nestgate_core6config17canonical_primary7domains7network11performanceNtB2_24NetworkPerformanceConfig5merge
FN:56,_RNvMNtNtNtNtNtCs2meEIT43k6D_13nestgate_core6config17canonical_primary7domains7network11performanceNtB2_24NetworkPerformanceConfig8validate
FNDA:0,_RNvMNtNtNtNtNtCs2meEIT43k6D_13nestgate_core6config17canonical_primary7domains7network11performanceNtB2_24NetworkPerformanceConfig19production_hardened
FNDA:0,_RNvMNtNtNtNtNtCs2meEIT43k6D_13nestgate_core6config17canonical_primary7domains7network11performanceNtB2_24NetworkPerformanceConfig21development_optimized
FNDA:0,_RNvMNtNtNtNtNtCs2meEIT43k6D_13nestgate_core6config17canonical_primary7domains7network11performanceNtB2_24NetworkPerformanceConfig5merge
FNDA:0,_RNvMNtNtNtNtNtCs2meEIT43k6D_13nestgate_core6config17canonical_primary7domains7network11performanceNtB2_24NetworkPerformanceConfig8validate
FNF:4
FNH:0
DA:27,0
DA:28,0
DA:29,0
DA:30,0
DA:31,0
DA:32,0
DA:33,0
DA:34,0
DA:40,0
DA:41,0
DA:42,0
DA:43,0
DA:44,0
DA:45,0
DA:46,0
DA:47,0
DA:56,0
DA:57,0
DA:58,0
DA:64,0
DA:65,0
DA:66,0
DA:67,0
DA:68,0
DA:69,0
DA:70,0
BRF:0
BRH:0
LF:26
LH:0
end_of_record
SF:/home/eastgate/Development/ecoPrimals/nestgate/code/crates/nestgate-core/src/config/canonical_primary/domains/network/protocols.rs
FN:76,_RNvMNtNtNtNtNtCs2meEIT43k6D_13nestgate_core6config17canonical_primary7domains7network9protocolsNtB2_21NetworkProtocolConfig19production_hardened
FN:53,_RNvMNtNtNtNtNtCs2meEIT43k6D_13nestgate_core6config17canonical_primary7domains7network9protocolsNtB2_21NetworkProtocolConfig21development_optimized
FN:112,_RNvMNtNtNtNtNtCs2meEIT43k6D_13nestgate_core6config17canonical_primary7domains7network9protocolsNtB2_21NetworkProtocolConfig5merge
FN:103,_RNvMNtNtNtNtNtCs2meEIT43k6D_13nestgate_core6config17canonical_primary7domains7network9protocolsNtB2_21NetworkProtocolConfig8validate
FNDA:0,_RNvMNtNtNtNtNtCs2meEIT43k6D_13nestgate_core6config17canonical_primary7domains7network9protocolsNtB2_21NetworkProtocolConfig19production_hardened
FNDA:0,_RNvMNtNtNtNtNtCs2meEIT43k6D_13nestgate_core6config17canonical_primary7domains7network9protocolsNtB2_21NetworkProtocolConfig21development_optimized
FNDA:0,_RNvMNtNtNtNtNtCs2meEIT43k6D_13nestgate_core6config17canonical_primary7domains7network9protocolsNtB2_21NetworkProtocolConfig5merge
FNDA:0,_RNvMNtNtNtNtNtCs2meEIT43k6D_13nestgate_core6config17canonical_primary7domains7network9protocolsNtB2_21NetworkProtocolConfig8validate
FNF:4
FNH:0
DA:53,0
DA:54,0
DA:55,0
DA:56,0
DA:57,0
DA:58,0
DA:59,0
DA:60,0
DA:61,0
DA:62,0
DA:63,0
DA:64,0
DA:65,0
DA:66,0
DA:67,0
DA:68,0
DA:69,0
DA:76,0
DA:77,0
DA:78,0
DA:79,0
DA:80,0
DA:81,0
DA:82,0
DA:83,0
DA:84,0
DA:85,0
DA:86,0
DA:87,0
DA:88,0
DA:89,0
DA:90,0
DA:91,0
DA:92,0
DA:103,0
DA:104,0
DA:105,0
DA:112,0
DA:113,0
DA:114,0
DA:115,0
DA:116,0
DA:117,0
DA:118,0
BRF:0
BRH:0
LF:44
LH:0
end_of_record
SF:/home/eastgate/Development/ecoPrimals/nestgate/code/crates/nestgate-core/src/config/canonical_primary/domains/network/security.rs
FN:37,_RNvMNtNtNtNtNtCs2meEIT43k6D_13nestgate_core6config17canonical_primary7domains7network8securityNtB2_21NetworkSecurityConfig19production_hardened
FN:25,_RNvMNtNtNtNtNtCs2meEIT43k6D_13nestgate_core6config17canonical_primary7domains7network8securityNtB2_21NetworkSecurityConfig21development_optimized
FN:60,_RNvMNtNtNtNtNtCs2meEIT43k6D_13nestgate_core6config17canonical_primary7domains7network8securityNtB2_21NetworkSecurityConfig5merge
FN:52,_RNvMNtNtNtNtNtCs2meEIT43k6D_13nestgate_core6config17canonical_primary7domains7network8securityNtB2_21NetworkSecurityConfig8validate
FNDA:0,_RNvMNtNtNtNtNtCs2meEIT43k6D_13nestgate_core6config17canonical_primary7domains7network8securityNtB2_21NetworkSecurityConfig19production_hardened
FNDA:0,_RNvMNtNtNtNtNtCs2meEIT43k6D_13nestgate_core6config17canonical_primary7domains7network8securityNtB2_21NetworkSecurityConfig21development_optimized
FNDA:0,_RNvMNtNtNtNtNtCs2meEIT43k6D_13nestgate_core6config17canonical_primary7domains7network8securityNtB2_21NetworkSecurityConfig5merge
FNDA:0,_RNvMNtNtNtNtNtCs2meEIT43k6D_13nestgate_core6config17canonical_primary7domains7network8securityNtB2_21NetworkSecurityConfig8validate
FNF:4
FNH:0
DA:25,0
DA:26,0
DA:27,0
DA:28,0
DA:29,0
DA:30,0
DA:31,0
DA:37,0
DA:38,0
DA:39,0
DA:40,0
DA:41,0
DA:42,0
DA:43,0
DA:52,0
DA:53,0
DA:54,0
DA:60,0
DA:61,0
DA:62,0
DA:63,0
DA:64,0
DA:65,0
BRF:0
BRH:0
LF:23
LH:0
end_of_record
SF:/home/eastgate/Development/ecoPrimals/nestgate/code/crates/nestgate-core/src/config/canonical_primary/domains/network/vlan.rs
FN:37,_RNvMNtNtNtNtNtCs2meEIT43k6D_13nestgate_core6config17canonical_primary7domains7network4vlanNtB2_17NetworkVlanConfig19production_hardened
FN:25,_RNvMNtNtNtNtNtCs2meEIT43k6D_13nestgate_core6config17canonical_primary7domains7network4vlanNtB2_17NetworkVlanConfig21development_optimized
FN:60,_RNvMNtNtNtNtNtCs2meEIT43k6D_13nestgate_core6config17canonical_primary7domains7network4vlanNtB2_17NetworkVlanConfig5merge
FN:52,_RNvMNtNtNtNtNtCs2meEIT43k6D_13nestgate_core6config17canonical_primary7domains7network4vlanNtB2_17NetworkVlanConfig8validate
FNDA:0,_RNvMNtNtNtNtNtCs2meEIT43k6D_13nestgate_core6config17canonical_primary7domains7network4vlanNtB2_17NetworkVlanConfig19production_hardened
FNDA:0,_RNvMNtNtNtNtNtCs2meEIT43k6D_13nestgate_core6config17canonical_primary7domains7network4vlanNtB2_17NetworkVlanConfig21development_optimized
FNDA:0,_RNvMNtNtNtNtNtCs2meEIT43k6D_13nestgate_core6config17canonical_primary7domains7network4vlanNtB2_17NetworkVlanConfig5merge
FNDA:0,_RNvMNtNtNtNtNtCs2meEIT43k6D_13nestgate_core6config17canonical_primary7domains7network4vlanNtB2_17NetworkVlanConfig8validate
FNF:4
FNH:0
DA:25,0
DA:26,0
DA:27,0
DA:28,0
DA:29,0
DA:30,0
DA:31,0
DA:37,0
DA:38,0
DA:39,0
DA:40,0
DA:41,0
DA:42,0
DA:43,0
DA:52,0
DA:53,0
DA:54,0
DA:60,0
DA:61,0
DA:62,0
DA:63,0
DA:64,0
DA:65,0
BRF:0
BRH:0
LF:23
LH:0
end_of_record
SF:/home/eastgate/Development/ecoPrimals/nestgate/code/crates/nestgate-core/src/config/canonical_primary/domains/performance/caching.rs
FN:64,_RNvMNtNtNtNtNtCs2meEIT43k6D_13nestgate_core6config17canonical_primary7domains11performance7cachingNtB2_22CachePerformanceConfig8validate
FNDA:0,_RNvMNtNtNtNtNtCs2meEIT43k6D_13nestgate_core6config17canonical_primary7domains11performance7cachingNtB2_22CachePerformanceConfig8validate
FNF:1
FNH:0
DA:64,0
DA:65,0
DA:66,0
BRF:0
BRH:0
LF:3
LH:0
end_of_record
SF:/home/eastgate/Development/ecoPrimals/nestgate/code/crates/nestgate-core/src/config/canonical_primary/domains/performance/concurrency.rs
FN:60,_RNvXNtNtNtNtNtCs2meEIT43k6D_13nestgate_core6config17canonical_primary7domains11performance11concurrencyNtB2_17ConcurrencyConfigNtNtCs5GmCzIpY9Qj_4core7default7Default7default
FNDA:0,_RNvXNtNtNtNtNtCs2meEIT43k6D_13nestgate_core6config17canonical_primary7domains11performance11concurrencyNtB2_17ConcurrencyConfigNtNtCs5GmCzIpY9Qj_4core7default7Default7default
FNF:1
FNH:0
DA:60,0
DA:61,0
DA:62,0
DA:63,0
DA:64,0
DA:65,0
DA:66,0
DA:67,0
BRF:0
BRH:0
LF:8
LH:0
end_of_record
SF:/home/eastgate/Development/ecoPrimals/nestgate/code/crates/nestgate-core/src/config/canonical_primary/domains/performance/core.rs
FN:102,_RNvMNtNtNtNtNtCs2meEIT43k6D_13nestgate_core6config17canonical_primary7domains11performance4coreNtB2_26CanonicalPerformanceConfig16from_environment
FN:52,_RNvMNtNtNtNtNtCs2meEIT43k6D_13nestgate_core6config17canonical_primary7domains11performance4coreNtB2_26CanonicalPerformanceConfig3new
FN:110,_RNvMNtNtNtNtNtCs2meEIT43k6D_13nestgate_core6config17canonical_primary7domains11performance4coreNtB2_26CanonicalPerformanceConfig5merge
FN:64,_RNvMNtNtNtNtNtCs2meEIT43k6D_13nestgate_core6config17canonical_primary7domains11performance4coreNtB2_26CanonicalPerformanceConfig8validate
FNDA:0,_RNvMNtNtNtNtNtCs2meEIT43k6D_13nestgate_core6config17canonical_primary7domains11performance4coreNtB2_26CanonicalPerformanceConfig16from_environment
FNDA:0,_RNvMNtNtNtNtNtCs2meEIT43k6D_13nestgate_core6config17canonical_primary7domains11performance4coreNtB2_26CanonicalPerformanceConfig3new
FNDA:0,_RNvMNtNtNtNtNtCs2meEIT43k6D_13nestgate_core6config17canonical_primary7domains11performance4coreNtB2_26CanonicalPerformanceConfig5merge
FNDA:0,_RNvMNtNtNtNtNtCs2meEIT43k6D_13nestgate_core6config17canonical_primary7domains11performance4coreNtB2_26CanonicalPerformanceConfig8validate
FNF:4
FNH:0
DA:52,0
DA:53,0
DA:54,0
DA:64,0
DA:66,0
DA:69,0
DA:72,0
DA:75,0
DA:78,0
DA:81,0
DA:82,0
DA:83,0
DA:84,0
DA:85,0
DA:86,0
DA:87,0
DA:88,0
DA:89,0
DA:91,0
DA:92,0
DA:102,0
DA:103,0
DA:104,0
DA:105,0
DA:106,0
DA:110,0
DA:113,0
DA:114,0
BRF:0
BRH:0
LF:28
LH:0
end_of_record
SF:/home/eastgate/Development/ecoPrimals/nestgate/code/crates/nestgate-core/src/config/canonical_primary/domains/performance/cpu.rs
FN:248,_RNvMs3_NtNtNtNtNtCs2meEIT43k6D_13nestgate_core6config17canonical_primary7domains11performance3cpuNtB5_20CpuPerformanceConfig8validate
FN:182,_RNvXNtNtNtNtNtCs2meEIT43k6D_13nestgate_core6config17canonical_primary7domains11performance3cpuNtB2_17CpuAffinityConfigNtNtCs5GmCzIpY9Qj_4core7default7Default7default
FN:206,_RNvXs0_NtNtNtNtNtCs2meEIT43k6D_13nestgate_core6config17canonical_primary7domains11performance3cpuNtB5_19CpuSchedulingConfigNtNtCs5GmCzIpY9Qj_4core7default7Default7default
FN:217,_RNvXs1_NtNtNtNtNtCs2meEIT43k6D_13nestgate_core6config17canonical_primary7domains11performance3cpuNtB5_10SimdConfigNtNtCs5GmCzIpY9Qj_4core7default7Default7default
FN:228,_RNvXs2_NtNtNtNtNtCs2meEIT43k6D_13nestgate_core6config17canonical_primary7domains11performance3cpuNtB5_19CpuMonitoringConfigNtNtCs5GmCzIpY9Qj_4core7default7Default7default
FN:193,_RNvXs_NtNtNtNtNtCs2meEIT43k6D_13nestgate_core6config17canonical_primary7domains11performance3cpuNtB4_16ThreadPoolConfigNtNtCs5GmCzIpY9Qj_4core7default7Default7default
FNDA:0,_RNvMs3_NtNtNtNtNtCs2meEIT43k6D_13nestgate_core6config17canonical_primary7domains11performance3cpuNtB5_20CpuPerformanceConfig8validate
FNDA:0,_RNvXNtNtNtNtNtCs2meEIT43k6D_13nestgate_core6config17canonical_primary7domains11performance3cpuNtB2_17CpuAffinityConfigNtNtCs5GmCzIpY9Qj_4core7default7Default7default
FNDA:0,_RNvXs0_NtNtNtNtNtCs2meEIT43k6D_13nestgate_core6config17canonical_primary7domains11performance3cpuNtB5_19CpuSchedulingConfigNtNtCs5GmCzIpY9Qj_4core7default7Default7default
FNDA:0,_RNvXs1_NtNtNtNtNtCs2meEIT43k6D_13nestgate_core6config17canonical_primary7domains11performance3cpuNtB5_10SimdConfigNtNtCs5GmCzIpY9Qj_4core7default7Default7default
FNDA:0,_RNvXs2_NtNtNtNtNtCs2meEIT43k6D_13nestgate_core6config17canonical_primary7domains11performance3cpuNtB5_19CpuMonitoringConfigNtNtCs5GmCzIpY9Qj_4core7default7Default7default
FNDA:0,_RNvXs_NtNtNtNtNtCs2meEIT43k6D_13nestgate_core6config17canonical_primary7domains11performance3cpuNtB4_16ThreadPoolConfigNtNtCs5GmCzIpY9Qj_4core7default7Default7default
FNF:6
FNH:0
DA:182,0
DA:183,0
DA:184,0
DA:185,0
DA:186,0
DA:187,0
DA:188,0
DA:193,0
DA:194,0
DA:195,0
DA:196,0
DA:197,0
DA:198,0
DA:199,0
DA:200,0
DA:201,0
DA:206,0
DA:207,0
DA:208,0
DA:209,0
DA:210,0
DA:211,0
DA:212,0
DA:217,0
DA:218,0
DA:219,0
DA:220,0
DA:221,0
DA:222,0
DA:223,0
DA:228,0
DA:229,0
DA:230,0
DA:231,0
DA:232,0
DA:233,0
DA:234,0
DA:248,0
DA:250,0
DA:251,0
DA:252,0
DA:253,0
DA:254,0
DA:255,0
DA:257,0
DA:258,0
DA:259,0
DA:260,0
DA:261,0
DA:262,0
DA:265,0
DA:266,0
DA:267,0
DA:268,0
DA:269,0
DA:270,0
DA:272,0
DA:273,0
BRF:0
BRH:0
LF:58
LH:0
end_of_record
SF:/home/eastgate/Development/ecoPrimals/nestgate/code/crates/nestgate-core/src/config/canonical_primary/domains/performance/io.rs
FN:89,_RNvMs0_NtNtNtNtNtCs2meEIT43k6D_13nestgate_core6config17canonical_primary7domains11performance2ioNtB5_19IoPerformanceConfig8validate
FN:63,_RNvXNtNtNtNtNtCs2meEIT43k6D_13nestgate_core6config17canonical_primary7domains11performance2ioNtB2_20IoOptimizationConfigNtNtCs5GmCzIpY9Qj_4core7default7Default7default
FN:73,_RNvXs_NtNtNtNtNtCs2meEIT43k6D_13nestgate_core6config17canonical_primary7domains11performance2ioNtB4_17IoBufferingConfigNtNtCs5GmCzIpY9Qj_4core7default7Default7default
FNDA:0,_RNvMs0_NtNtNtNtNtCs2meEIT43k6D_13nestgate_core6config17canonical_primary7domains11performance2ioNtB5_19IoPerformanceConfig8validate
FNDA:0,_RNvXNtNtNtNtNtCs2meEIT43k6D_13nestgate_core6config17canonical_primary7domains11performance2ioNtB2_20IoOptimizationConfigNtNtCs5GmCzIpY9Qj_4core7default7Default7default
FNDA:0,_RNvXs_NtNtNtNtNtCs2meEIT43k6D_13nestgate_core6config17canonical_primary7domains11performance2ioNtB4_17IoBufferingConfigNtNtCs5GmCzIpY9Qj_4core7default7Default7default
FNF:3
FNH:0
DA:63,0
DA:64,0
DA:65,0
DA:66,0
DA:67,0
DA:68,0
DA:73,0
DA:74,0
DA:75,0
DA:76,0
DA:77,0
DA:78,0
DA:89,0
DA:90,0
DA:91,0
DA:92,0
DA:93,0
DA:94,0
DA:95,0
DA:96,0
DA:97,0
DA:98,0
DA:99,0
DA:100,0
BRF:0
BRH:0
LF:24
LH:0
end_of_record
SF:/home/eastgate/Development/ecoPrimals/nestgate/code/crates/nestgate-core/src/config/canonical_primary/domains/performance/memory.rs
FN:111,_RNvMs1_NtNtNtNtNtCs2meEIT43k6D_13nestgate_core6config17canonical_primary7domains11performance6memoryNtB5_23MemoryPerformanceConfig8validate
FN:73,_RNvXNtNtNtNtNtCs2meEIT43k6D_13nestgate_core6config17canonical_primary7domains11performance6memoryNtB2_16MemoryPoolConfigNtNtCs5GmCzIpY9Qj_4core7default7Default7default
FN:95,_RNvXs0_NtNtNtNtNtCs2meEIT43k6D_13nestgate_core6config17canonical_primary7domains11performance6memoryNtB5_22MemoryMonitoringConfigNtNtCs5GmCzIpY9Qj_4core7default7Default7default
FN:84,_RNvXs_NtNtNtNtNtCs2meEIT43k6D_13nestgate_core6config17canonical_primary7domains11performance6memoryNtB4_23GarbageCollectionConfigNtNtCs5GmCzIpY9Qj_4core7default7Default7default
FNDA:0,_RNvMs1_NtNtNtNtNtCs2meEIT43k6D_13nestgate_core6config17canonical_primary7domains11performance6memoryNtB5_23MemoryPerformanceConfig8validate
FNDA:0,_RNvXNtNtNtNtNtCs2meEIT43k6D_13nestgate_core6config17canonical_primary7domains11performance6memoryNtB2_16MemoryPoolConfigNtNtCs5GmCzIpY9Qj_4core7default7Default7default
FNDA:0,_RNvXs0_NtNtNtNtNtCs2meEIT43k6D_13nestgate_core6config17canonical_primary7domains11performance6memoryNtB5_22MemoryMonitoringConfigNtNtCs5GmCzIpY9Qj_4core7default7Default7default
FNDA:0,_RNvXs_NtNtNtNtNtCs2meEIT43k6D_13nestgate_core6config17canonical_primary7domains11performance6memoryNtB4_23GarbageCollectionConfigNtNtCs5GmCzIpY9Qj_4core7default7Default7default
FNF:4
FNH:0
DA:73,0
DA:74,0
DA:75,0
DA:76,0
DA:77,0
DA:78,0
DA:79,0
DA:84,0
DA:85,0
DA:86,0
DA:87,0
DA:88,0
DA:89,0
DA:90,0
DA:95,0
DA:96,0
DA:97,0
DA:98,0
DA:99,0
DA:100,0
DA:111,0
DA:112,0
DA:113,0
DA:114,0
DA:115,0
DA:116,0
DA:117,0
DA:118,0
DA:119,0
BRF:0
BRH:0
LF:29
LH:0
end_of_record
SF:/home/eastgate/Development/ecoPrimals/nestgate/code/crates/nestgate-core/src/config/canonical_primary/domains/performance/monitoring.rs
FN:109,_RNvXNtNtNtNtNtCs2meEIT43k6D_13nestgate_core6config17canonical_primary7domains11performance10monitoringNtB2_13MetricsConfigNtNtCs5GmCzIpY9Qj_4core7default7Default7default
FN:132,_RNvXs0_NtNtNtNtNtCs2meEIT43k6D_13nestgate_core6config17canonical_primary7domains11performance10monitoringNtB5_14AlertingConfigNtNtCs5GmCzIpY9Qj_4core7default7Default7default
FN:120,_RNvXs_NtNtNtNtNtCs2meEIT43k6D_13nestgate_core6config17canonical_primary7domains11performance10monitoringNtB4_15ProfilingConfigNtNtCs5GmCzIpY9Qj_4core7default7Default7default
FNDA:0,_RNvXNtNtNtNtNtCs2meEIT43k6D_13nestgate_core6config17canonical_primary7domains11performance10monitoringNtB2_13MetricsConfigNtNtCs5GmCzIpY9Qj_4core7default7Default7default
FNDA:0,_RNvXs0_NtNtNtNtNtCs2meEIT43k6D_13nestgate_core6config17canonical_primary7domains11performance10monitoringNtB5_14AlertingConfigNtNtCs5GmCzIpY9Qj_4core7default7Default7default
FNDA:0,_RNvXs_NtNtNtNtNtCs2meEIT43k6D_13nestgate_core6config17canonical_primary7domains11performance10monitoringNtB4_15ProfilingConfigNtNtCs5GmCzIpY9Qj_4core7default7Default7default
FNF:3
FNH:0
DA:109,0
DA:110,0
DA:111,0
DA:112,0
DA:113,0
DA:114,0
DA:115,0
DA:120,0
DA:121,0
DA:122,0
DA:123,0
DA:124,0
DA:125,0
DA:126,0
DA:127,0
DA:132,0
DA:133,0
DA:134,0
DA:135,0
DA:136,0
DA:137,0
DA:138,0
DA:139,0
BRF:0
BRH:0
LF:23
LH:0
end_of_record
SF:/home/eastgate/Development/ecoPrimals/nestgate/code/crates/nestgate-core/src/config/canonical_primary/domains/performance/network.rs
FN:44,_RNvMNtNtNtNtNtCs2meEIT43k6D_13nestgate_core6config17canonical_primary7domains11performance7networkNtB2_24NetworkPerformanceConfig8validate
FNDA:0,_RNvMNtNtNtNtNtCs2meEIT43k6D_13nestgate_core6config17canonical_primary7domains11performance7networkNtB2_24NetworkPerformanceConfig8validate
FNF:1
FNH:0
DA:44,0
DA:45,0
DA:46,0
BRF:0
BRH:0
LF:3
LH:0
end_of_record
SF:/home/eastgate/Development/ecoPrimals/nestgate/code/crates/nestgate-core/src/config/canonical_primary/domains/security_canonical/authentication.rs
FN:807,_RNvMsf_NtNtNtNtNtCs2meEIT43k6D_13nestgate_core6config17canonical_primary7domains18security_canonical14authenticationNtB5_20AuthenticationConfig18compliance_focused
FN:728,_RNvMsf_NtNtNtNtNtCs2meEIT43k6D_13nestgate_core6config17canonical_primary7domains18security_canonical14authenticationNtB5_20AuthenticationConfig19production_hardened
FN:776,_RNvMsf_NtNtNtNtNtCs2meEIT43k6D_13nestgate_core6config17canonical_primary7domains18security_canonical14authenticationNtB5_20AuthenticationConfig21development_optimized
FN:814,_RNvMsf_NtNtNtNtNtCs2meEIT43k6D_13nestgate_core6config17canonical_primary7domains18security_canonical14authenticationNtB5_20AuthenticationConfig5merge
FN:820,_RNvMsf_NtNtNtNtNtCs2meEIT43k6D_13nestgate_core6config17canonical_primary7domains18security_canonical14authenticationNtB5_20AuthenticationConfig8validate
FN:506,_RNvXNtNtNtNtNtCs2meEIT43k6D_13nestgate_core6config17canonical_primary7domains18security_canonical14authenticationNtB2_20AuthenticationConfigNtNtCs5GmCzIpY9Qj_4core7default7Default7default
FN:536,_RNvXs0_NtNtNtNtNtCs2meEIT43k6D_13nestgate_core6config17canonical_primary7domains18security_canonical14authenticationNtB5_17BackupCodesConfigNtNtCs5GmCzIpY9Qj_4core7default7Default7default
FN:548,_RNvXs1_NtNtNtNtNtCs2meEIT43k6D_13nestgate_core6config17canonical_primary7domains18security_canonical14authenticationNtB5_20RememberDeviceConfigNtNtCs5GmCzIpY9Qj_4core7default7Default7default
FN:559,_RNvXs2_NtNtNtNtNtCs2meEIT43k6D_13nestgate_core6config17canonical_primary7domains18security_canonical14authenticationNtB5_13SessionConfigNtNtCs5GmCzIpY9Qj_4core7default7Default7default
FN:573,_RNvXs3_NtNtNtNtNtCs2meEIT43k6D_13nestgate_core6config17canonical_primary7domains18security_canonical14authenticationNtB5_20SessionStorageConfigNtNtCs5GmCzIpY9Qj_4core7default7Default7default
FN:584,_RNvXs4_NtNtNtNtNtCs2meEIT43k6D_13nestgate_core6config17canonical_primary7domains18security_canonical14authenticationNtB5_23SessionEncryptionConfigNtNtCs5GmCzIpY9Qj_4core7default7Default7default
FN:595,_RNvXs5_NtNtNtNtNtCs2meEIT43k6D_13nestgate_core6config17canonical_primary7domains18security_canonical14authenticationNtB5_17KeyRotationConfigNtNtCs5GmCzIpY9Qj_4core7default7Default7default
FN:606,_RNvXs6_NtNtNtNtNtCs2meEIT43k6D_13nestgate_core6config17canonical_primary7domains18security_canonical14authenticationNtB5_21SessionSecurityConfigNtNtCs5GmCzIpY9Qj_4core7default7Default7default
FN:620,_RNvXs7_NtNtNtNtNtCs2meEIT43k6D_13nestgate_core6config17canonical_primary7domains18security_canonical14authenticationNtB5_20SessionRefreshConfigNtNtCs5GmCzIpY9Qj_4core7default7Default7default
FN:631,_RNvXs8_NtNtNtNtNtCs2meEIT43k6D_13nestgate_core6config17canonical_primary7domains18security_canonical14authenticationNtB5_9JwtConfigNtNtCs5GmCzIpY9Qj_4core7default7Default7default
FN:645,_RNvXs9_NtNtNtNtNtCs2meEIT43k6D_13nestgate_core6config17canonical_primary7domains18security_canonical14authenticationNtB5_12ApiKeyConfigNtNtCs5GmCzIpY9Qj_4core7default7Default7default
FN:522,_RNvXs_NtNtNtNtNtCs2meEIT43k6D_13nestgate_core6config17canonical_primary7domains18security_canonical14authenticationNtB4_9MfaConfigNtNtCs5GmCzIpY9Qj_4core7default7Default7default
FN:658,_RNvXsa_NtNtNtNtNtCs2meEIT43k6D_13nestgate_core6config17canonical_primary7domains18security_canonical14authenticationNtB5_15RateLimitConfigNtNtCs5GmCzIpY9Qj_4core7default7Default7default
FN:669,_RNvXsb_NtNtNtNtNtCs2meEIT43k6D_13nestgate_core6config17canonical_primary7domains18security_canonical14authenticationNtB5_18RefreshTokenConfigNtNtCs5GmCzIpY9Qj_4core7default7Default7default
FN:681,_RNvXsc_NtNtNtNtNtCs2meEIT43k6D_13nestgate_core6config17canonical_primary7domains18security_canonical14authenticationNtB5_17AccessTokenConfigNtNtCs5GmCzIpY9Qj_4core7default7Default7default
FN:692,_RNvXsd_NtNtNtNtNtCs2meEIT43k6D_13nestgate_core6config17canonical_primary7domains18security_canonical14authenticationNtB5_20PasswordPolicyConfigNtNtCs5GmCzIpY9Qj_4core7default7Default7default
FN:711,_RNvXse_NtNtNtNtNtCs2meEIT43k6D_13nestgate_core6config17canonical_primary7domains18security_canonical14authenticationNtB5_20AccountLockoutConfigNtNtCs5GmCzIpY9Qj_4core7default7Default7default
FNDA:0,_RNvMsf_NtNtNtNtNtCs2meEIT43k6D_13nestgate_core6config17canonical_primary7domains18security_canonical14authenticationNtB5_20AuthenticationConfig18compliance_focused
FNDA:0,_RNvMsf_NtNtNtNtNtCs2meEIT43k6D_13nestgate_core6config17canonical_primary7domains18security_canonical14authenticationNtB5_20AuthenticationConfig19production_hardened
FNDA:0,_RNvMsf_NtNtNtNtNtCs2meEIT43k6D_13nestgate_core6config17canonical_primary7domains18security_canonical14authenticationNtB5_20AuthenticationConfig21development_optimized
FNDA:0,_RNvMsf_NtNtNtNtNtCs2meEIT43k6D_13nestgate_core6config17canonical_primary7domains18security_canonical14authenticationNtB5_20AuthenticationConfig5merge
FNDA:0,_RNvMsf_NtNtNtNtNtCs2meEIT43k6D_13nestgate_core6config17canonical_primary7domains18security_canonical14authenticationNtB5_20AuthenticationConfig8validate
FNDA:0,_RNvXNtNtNtNtNtCs2meEIT43k6D_13nestgate_core6config17canonical_primary7domains18security_canonical14authenticationNtB2_20AuthenticationConfigNtNtCs5GmCzIpY9Qj_4core7default7Default7default
FNDA:0,_RNvXs0_NtNtNtNtNtCs2meEIT43k6D_13nestgate_core6config17canonical_primary7domains18security_canonical14authenticationNtB5_17BackupCodesConfigNtNtCs5GmCzIpY9Qj_4core7default7Default7default
FNDA:0,_RNvXs1_NtNtNtNtNtCs2meEIT43k6D_13nestgate_core6config17canonical_primary7domains18security_canonical14authenticationNtB5_20RememberDeviceConfigNtNtCs5GmCzIpY9Qj_4core7default7Default7default
FNDA:0,_RNvXs2_NtNtNtNtNtCs2meEIT43k6D_13nestgate_core6config17canonical_primary7domains18security_canonical14authenticationNtB5_13SessionConfigNtNtCs5GmCzIpY9Qj_4core7default7Default7default
FNDA:0,_RNvXs3_NtNtNtNtNtCs2meEIT43k6D_13nestgate_core6config17canonical_primary7domains18security_canonical14authenticationNtB5_20SessionStorageConfigNtNtCs5GmCzIpY9Qj_4core7default7Default7default
FNDA:0,_RNvXs4_NtNtNtNtNtCs2meEIT43k6D_13nestgate_core6config17canonical_primary7domains18security_canonical14authenticationNtB5_23SessionEncryptionConfigNtNtCs5GmCzIpY9Qj_4core7default7Default7default
FNDA:0,_RNvXs5_NtNtNtNtNtCs2meEIT43k6D_13nestgate_core6config17canonical_primary7domains18security_canonical14authenticationNtB5_17KeyRotationConfigNtNtCs5GmCzIpY9Qj_4core7default7Default7default
FNDA:0,_RNvXs6_NtNtNtNtNtCs2meEIT43k6D_13nestgate_core6config17canonical_primary7domains18security_canonical14authenticationNtB5_21SessionSecurityConfigNtNtCs5GmCzIpY9Qj_4core7default7Default7default
FNDA:0,_RNvXs7_NtNtNtNtNtCs2meEIT43k6D_13nestgate_core6config17canonical_primary7domains18security_canonical14authenticationNtB5_20SessionRefreshConfigNtNtCs5GmCzIpY9Qj_4core7default7Default7default
FNDA:0,_RNvXs8_NtNtNtNtNtCs2meEIT43k6D_13nestgate_core6config17canonical_primary7domains18security_canonical14authenticationNtB5_9JwtConfigNtNtCs5GmCzIpY9Qj_4core7default7Default7default
FNDA:0,_RNvXs9_NtNtNtNtNtCs2meEIT43k6D_13nestgate_core6config17canonical_primary7domains18security_canonical14authenticationNtB5_12ApiKeyConfigNtNtCs5GmCzIpY9Qj_4core7default7Default7default
FNDA:0,_RNvXs_NtNtNtNtNtCs2meEIT43k6D_13nestgate_core6config17canonical_primary7domains18security_canonical14authenticationNtB4_9MfaConfigNtNtCs5GmCzIpY9Qj_4core7default7Default7default
FNDA:0,_RNvXsa_NtNtNtNtNtCs2meEIT43k6D_13nestgate_core6config17canonical_primary7domains18security_canonical14authenticationNtB5_15RateLimitConfigNtNtCs5GmCzIpY9Qj_4core7default7Default7default
FNDA:0,_RNvXsb_NtNtNtNtNtCs2meEIT43k6D_13nestgate_core6config17canonical_primary7domains18security_canonical14authenticationNtB5_18RefreshTokenConfigNtNtCs5GmCzIpY9Qj_4core7default7Default7default
FNDA:0,_RNvXsc_NtNtNtNtNtCs2meEIT43k6D_13nestgate_core6config17canonical_primary7domains18security_canonical14authenticationNtB5_17AccessTokenConfigNtNtCs5GmCzIpY9Qj_4core7default7Default7default
FNDA:0,_RNvXsd_NtNtNtNtNtCs2meEIT43k6D_13nestgate_core6config17canonical_primary7domains18security_canonical14authenticationNtB5_20PasswordPolicyConfigNtNtCs5GmCzIpY9Qj_4core7default7Default7default
FNDA:0,_RNvXse_NtNtNtNtNtCs2meEIT43k6D_13nestgate_core6config17canonical_primary7domains18security_canonical14authenticationNtB5_20AccountLockoutConfigNtNtCs5GmCzIpY9Qj_4core7default7Default7default
FNF:22
FNH:0
DA:506,0
DA:507,0
DA:508,0
DA:509,0
DA:510,0
DA:511,0
DA:512,0
DA:513,0
DA:514,0
DA:515,0
DA:516,0
DA:517,0
DA:522,0
DA:523,0
DA:524,0
DA:525,0
DA:526,0
DA:527,0
DA:528,0
DA:529,0
DA:530,0
DA:531,0
DA:536,0
DA:537,0
DA:538,0
DA:539,0
DA:540,0
DA:541,0
DA:542,0
DA:543,0
DA:548,0
DA:549,0
DA:550,0
DA:551,0
DA:552,0
DA:553,0
DA:554,0
DA:559,0
DA:560,0
DA:561,0
DA:562,0
DA:563,0
DA:564,0
DA:565,0
DA:566,0
DA:567,0
DA:568,0
DA:573,0
DA:574,0
DA:575,0
DA:576,0
DA:577,0
DA:578,0
DA:579,0
DA:584,0
DA:585,0
DA:586,0
DA:587,0
DA:588,0
DA:589,0
DA:590,0
DA:595,0
DA:596,0
DA:597,0
DA:598,0
DA:599,0
DA:600,0
DA:601,0
DA:606,0
DA:607,0
DA:608,0
DA:609,0
DA:610,0
DA:611,0
DA:612,0
DA:613,0
DA:614,0
DA:615,0
DA:620,0
DA:621,0
DA:622,0
DA:623,0
DA:624,0
DA:625,0
DA:626,0
DA:631,0
DA:632,0
DA:633,0
DA:634,0
DA:635,0
DA:636,0
DA:637,0
DA:638,0
DA:639,0
DA:640,0
DA:645,0
DA:646,0
DA:647,0
DA:648,0
DA:649,0
DA:650,0
DA:651,0
DA:652,0
DA:653,0
DA:658,0
DA:659,0
DA:660,0
DA:661,0
DA:662,0
DA:663,0
DA:664,0
DA:669,0
DA:670,0
DA:671,0
DA:672,0
DA:673,0
DA:674,0
DA:675,0
DA:676,0
DA:681,0
DA:682,0
DA:683,0
DA:684,0
DA:685,0
DA:686,0
DA:687,0
DA:692,0
DA:693,0
DA:694,0
DA:695,0
DA:696,0
DA:697,0
DA:698,0
DA:699,0
DA:700,0
DA:701,0
DA:702,0
DA:703,0
DA:704,0
DA:705,0
DA:706,0
DA:711,0
DA:712,0
DA:713,0
DA:714,0
DA:715,0
DA:716,0
DA:717,0
DA:718,0
DA:719,0
DA:720,0
DA:728,0
DA:729,0
DA:730,0
DA:731,0
DA:732,0
DA:733,0
DA:734,0
DA:735,0
DA:736,0
DA:737,0
DA:738,0
DA:739,0
DA:740,0
DA:741,0
DA:742,0
DA:743,0
DA:744,0
DA:745,0
DA:746,0
DA:747,0
DA:748,0
DA:749,0
DA:750,0
DA:751,0
DA:752,0
DA:753,0
DA:754,0
DA:755,0
DA:756,0
DA:757,0
DA:758,0
DA:759,0
DA:760,0
DA:761,0
DA:762,0
DA:763,0
DA:764,0
DA:765,0
DA:766,0
DA:767,0
DA:768,0
DA:769,0
DA:770,0
DA:771,0
DA:772,0
DA:776,0
DA:777,0
DA:778,0
DA:779,0
DA:780,0
DA:781,0
DA:782,0
DA:783,0
DA:784,0
DA:785,0
DA:786,0
DA:787,0
DA:788,0
DA:789,0
DA:790,0
DA:791,0
DA:792,0
DA:793,0
DA:794,0
DA:795,0
DA:796,0
DA:797,0
DA:798,0
DA:799,0
DA:800,0
DA:801,0
DA:802,0
DA:803,0
DA:807,0
DA:808,0
DA:810,0
DA:814,0
DA:816,0
DA:817,0
DA:820,0
DA:822,0
DA:823,0
DA:824,0
DA:825,0
DA:826,0
DA:829,0
DA:830,0
DA:831,0
DA:832,0
DA:833,0
DA:836,0
DA:837,0
DA:838,0
DA:839,0
DA:840,0
DA:842,0
DA:843,0
BRF:0
BRH:0
LF:248
LH:0
end_of_record
SF:/home/eastgate/Development/ecoPrimals/nestgate/code/crates/nestgate-core/src/config/canonical_primary/domains/security_canonical/authorization.rs
FN:37,_RNvMNtNtNtNtNtCs2meEIT43k6D_13nestgate_core6config17canonical_primary7domains18security_canonical13authorizationNtB2_19AccessControlConfig18compliance_focused
FN:46,_RNvMNtNtNtNtNtCs2meEIT43k6D_13nestgate_core6config17canonical_primary7domains18security_canonical13authorizationNtB2_19AccessControlConfig19production_hardened
FN:28,_RNvMNtNtNtNtNtCs2meEIT43k6D_13nestgate_core6config17canonical_primary7domains18security_canonical13authorizationNtB2_19AccessControlConfig21development_optimized
FN:55,_RNvMNtNtNtNtNtCs2meEIT43k6D_13nestgate_core6config17canonical_primary7domains18security_canonical13authorizationNtB2_19AccessControlConfig5merge
FN:121,_RNvMs0_NtNtNtNtNtCs2meEIT43k6D_13nestgate_core6config17canonical_primary7domains18security_canonical13authorizationNtB5_19AuthorizationConfig18compliance_focused
FN:111,_RNvMs0_NtNtNtNtNtCs2meEIT43k6D_13nestgate_core6config17canonical_primary7domains18security_canonical13authorizationNtB5_19AuthorizationConfig19production_hardened
FN:116,_RNvMs0_NtNtNtNtNtCs2meEIT43k6D_13nestgate_core6config17canonical_primary7domains18security_canonical13authorizationNtB5_19AuthorizationConfig21development_optimized
FN:126,_RNvMs0_NtNtNtNtNtCs2meEIT43k6D_13nestgate_core6config17canonical_primary7domains18security_canonical13authorizationNtB5_19AuthorizationConfig5merge
FN:130,_RNvMs0_NtNtNtNtNtCs2meEIT43k6D_13nestgate_core6config17canonical_primary7domains18security_canonical13authorizationNtB5_19AuthorizationConfig8validate
FN:100,_RNvXs_NtNtNtNtNtCs2meEIT43k6D_13nestgate_core6config17canonical_primary7domains18security_canonical13authorizationNtB4_19AccessControlConfigNtNtCs5GmCzIpY9Qj_4core7default7Default7default
FNDA:0,_RNvMNtNtNtNtNtCs2meEIT43k6D_13nestgate_core6config17canonical_primary7domains18security_canonical13authorizationNtB2_19AccessControlConfig18compliance_focused
FNDA:0,_RNvMNtNtNtNtNtCs2meEIT43k6D_13nestgate_core6config17canonical_primary7domains18security_canonical13authorizationNtB2_19AccessControlConfig19production_hardened
FNDA:0,_RNvMNtNtNtNtNtCs2meEIT43k6D_13nestgate_core6config17canonical_primary7domains18security_canonical13authorizationNtB2_19AccessControlConfig21development_optimized
FNDA:0,_RNvMNtNtNtNtNtCs2meEIT43k6D_13nestgate_core6config17canonical_primary7domains18security_canonical13authorizationNtB2_19AccessControlConfig5merge
FNDA:0,_RNvMs0_NtNtNtNtNtCs2meEIT43k6D_13nestgate_core6config17canonical_primary7domains18security_canonical13authorizationNtB5_19AuthorizationConfig18compliance_focused
FNDA:0,_RNvMs0_NtNtNtNtNtCs2meEIT43k6D_13nestgate_core6config17canonical_primary7domains18security_canonical13authorizationNtB5_19AuthorizationConfig19production_hardened
FNDA:0,_RNvMs0_NtNtNtNtNtCs2meEIT43k6D_13nestgate_core6config17canonical_primary7domains18security_canonical13authorizationNtB5_19AuthorizationConfig21development_optimized
FNDA:0,_RNvMs0_NtNtNtNtNtCs2meEIT43k6D_13nestgate_core6config17canonical_primary7domains18security_canonical13authorizationNtB5_19AuthorizationConfig5merge
FNDA:0,_RNvMs0_NtNtNtNtNtCs2meEIT43k6D_13nestgate_core6config17canonical_primary7domains18security_canonical13authorizationNtB5_19AuthorizationConfig8validate
FNDA:0,_RNvXs_NtNtNtNtNtCs2meEIT43k6D_13nestgate_core6config17canonical_primary7domains18security_canonical13authorizationNtB4_19AccessControlConfigNtNtCs5GmCzIpY9Qj_4core7default7Default7default
FNF:10
FNH:0
DA:28,0
DA:29,0
DA:30,0
DA:31,0
DA:32,0
DA:33,0
DA:37,0
DA:38,0
DA:39,0
DA:40,0
DA:41,0
DA:42,0
DA:46,0
DA:47,0
DA:48,0
DA:49,0
DA:50,0
DA:51,0
DA:55,0
DA:56,0
DA:57,0
DA:58,0
DA:59,0
DA:100,0
DA:101,0
DA:102,0
DA:103,0
DA:104,0
DA:105,0
DA:111,0
DA:112,0
DA:113,0
DA:116,0
DA:117,0
DA:118,0
DA:121,0
DA:122,0
DA:123,0
DA:126,0
DA:127,0
DA:128,0
DA:130,0
DA:131,0
DA:132,0
BRF:0
BRH:0
LF:44
LH:0
end_of_record
SF:/home/eastgate/Development/ecoPrimals/nestgate/code/crates/nestgate-core/src/config/canonical_primary/domains/security_canonical/encryption.rs
FN:86,_RNvMs0_NtNtNtNtNtCs2meEIT43k6D_13nestgate_core6config17canonical_primary7domains18security_canonical10encryptionNtB5_24EncryptionSecurityConfig18compliance_focused
FN:76,_RNvMs0_NtNtNtNtNtCs2meEIT43k6D_13nestgate_core6config17canonical_primary7domains18security_canonical10encryptionNtB5_24EncryptionSecurityConfig19production_hardened
FN:81,_RNvMs0_NtNtNtNtNtCs2meEIT43k6D_13nestgate_core6config17canonical_primary7domains18security_canonical10encryptionNtB5_24EncryptionSecurityConfig21development_optimized
FN:91,_RNvMs0_NtNtNtNtNtCs2meEIT43k6D_13nestgate_core6config17canonical_primary7domains18security_canonical10encryptionNtB5_24EncryptionSecurityConfig5merge
FN:95,_RNvMs0_NtNtNtNtNtCs2meEIT43k6D_13nestgate_core6config17canonical_primary7domains18security_canonical10encryptionNtB5_24EncryptionSecurityConfig8validate
FN:54,_RNvXNtNtNtNtNtCs2meEIT43k6D_13nestgate_core6config17canonical_primary7domains18security_canonical10encryptionNtB2_24EncryptionSecurityConfigNtNtCs5GmCzIpY9Qj_4core7default7Default7default
FN:65,_RNvXs_NtNtNtNtNtCs2meEIT43k6D_13nestgate_core6config17canonical_primary7domains18security_canonical10encryptionNtB4_19KeyManagementConfigNtNtCs5GmCzIpY9Qj_4core7default7Default7default
FNDA:0,_RNvMs0_NtNtNtNtNtCs2meEIT43k6D_13nestgate_core6config17canonical_primary7domains18security_canonical10encryptionNtB5_24EncryptionSecurityConfig18compliance_focused
FNDA:0,_RNvMs0_NtNtNtNtNtCs2meEIT43k6D_13nestgate_core6config17canonical_primary7domains18security_canonical10encryptionNtB5_24EncryptionSecurityConfig19production_hardened
FNDA:0,_RNvMs0_NtNtNtNtNtCs2meEIT43k6D_13nestgate_core6config17canonical_primary7domains18security_canonical10encryptionNtB5_24EncryptionSecurityConfig21development_optimized
FNDA:0,_RNvMs0_NtNtNtNtNtCs2meEIT43k6D_13nestgate_core6config17canonical_primary7domains18security_canonical10encryptionNtB5_24EncryptionSecurityConfig5merge
FNDA:0,_RNvMs0_NtNtNtNtNtCs2meEIT43k6D_13nestgate_core6config17canonical_primary7domains18security_canonical10encryptionNtB5_24EncryptionSecurityConfig8validate
FNDA:0,_RNvXNtNtNtNtNtCs2meEIT43k6D_13nestgate_core6config17canonical_primary7domains18security_canonical10encryptionNtB2_24EncryptionSecurityConfigNtNtCs5GmCzIpY9Qj_4core7default7Default7default
FNDA:0,_RNvXs_NtNtNtNtNtCs2meEIT43k6D_13nestgate_core6config17canonical_primary7domains18security_canonical10encryptionNtB4_19KeyManagementConfigNtNtCs5GmCzIpY9Qj_4core7default7Default7default
FNF:7
FNH:0
DA:54,0
DA:55,0
DA:56,0
DA:57,0
DA:58,0
DA:59,0
DA:60,0
DA:65,0
DA:66,0
DA:67,0
DA:68,0
DA:69,0
DA:70,0
DA:76,0
DA:77,0
DA:78,0
DA:81,0
DA:82,0
DA:83,0
DA:86,0
DA:87,0
DA:88,0
DA:91,0
DA:92,0
DA:93,0
DA:95,0
DA:96,0
DA:97,0
BRF:0
BRH:0
LF:28
LH:0
end_of_record
SF:/home/eastgate/Development/ecoPrimals/nestgate/code/crates/nestgate-core/src/config/canonical_primary/domains/security_canonical/environment.rs
FN:119,_RNvMs0_NtNtNtNtNtCs2meEIT43k6D_13nestgate_core6config17canonical_primary7domains18security_canonical11environmentNtB5_25SecurityEnvironmentConfig18compliance_focused
FN:109,_RNvMs0_NtNtNtNtNtCs2meEIT43k6D_13nestgate_core6config17canonical_primary7domains18security_canonical11environmentNtB5_25SecurityEnvironmentConfig19production_hardened
FN:114,_RNvMs0_NtNtNtNtNtCs2meEIT43k6D_13nestgate_core6config17canonical_primary7domains18security_canonical11environmentNtB5_25SecurityEnvironmentConfig21development_optimized
FN:124,_RNvMs0_NtNtNtNtNtCs2meEIT43k6D_13nestgate_core6config17canonical_primary7domains18security_canonical11environmentNtB5_25SecurityEnvironmentConfig5merge
FN:128,_RNvMs0_NtNtNtNtNtCs2meEIT43k6D_13nestgate_core6config17canonical_primary7domains18security_canonical11environmentNtB5_25SecurityEnvironmentConfig8validate
FN:91,_RNvMs_NtNtNtNtNtCs2meEIT43k6D_13nestgate_core6config17canonical_primary7domains18security_canonical11environmentNtB4_27EnvironmentSecuritySettings10production
FN:59,_RNvMs_NtNtNtNtNtCs2meEIT43k6D_13nestgate_core6config17canonical_primary7domains18security_canonical11environmentNtB4_27EnvironmentSecuritySettings11development
FN:75,_RNvMs_NtNtNtNtNtCs2meEIT43k6D_13nestgate_core6config17canonical_primary7domains18security_canonical11environmentNtB4_27EnvironmentSecuritySettings7staging
FN:47,_RNvXNtNtNtNtNtCs2meEIT43k6D_13nestgate_core6config17canonical_primary7domains18security_canonical11environmentNtB2_25SecurityEnvironmentConfigNtNtCs5GmCzIpY9Qj_4core7default7Default7default
FNDA:0,_RNvMs0_NtNtNtNtNtCs2meEIT43k6D_13nestgate_core6config17canonical_primary7domains18security_canonical11environmentNtB5_25SecurityEnvironmentConfig18compliance_focused
FNDA:0,_RNvMs0_NtNtNtNtNtCs2meEIT43k6D_13nestgate_core6config17canonical_primary7domains18security_canonical11environmentNtB5_25SecurityEnvironmentConfig19production_hardened
FNDA:0,_RNvMs0_NtNtNtNtNtCs2meEIT43k6D_13nestgate_core6config17canonical_primary7domains18security_canonical11environmentNtB5_25SecurityEnvironmentConfig21development_optimized
FNDA:0,_RNvMs0_NtNtNtNtNtCs2meEIT43k6D_13nestgate_core6config17canonical_primary7domains18security_canonical11environmentNtB5_25SecurityEnvironmentConfig5merge
FNDA:0,_RNvMs0_NtNtNtNtNtCs2meEIT43k6D_13nestgate_core6config17canonical_primary7domains18security_canonical11environmentNtB5_25SecurityEnvironmentConfig8validate
FNDA:0,_RNvMs_NtNtNtNtNtCs2meEIT43k6D_13nestgate_core6config17canonical_primary7domains18security_canonical11environmentNtB4_27EnvironmentSecuritySettings10production
FNDA:0,_RNvMs_NtNtNtNtNtCs2meEIT43k6D_13nestgate_core6config17canonical_primary7domains18security_canonical11environmentNtB4_27EnvironmentSecuritySettings11development
FNDA:0,_RNvMs_NtNtNtNtNtCs2meEIT43k6D_13nestgate_core6config17canonical_primary7domains18security_canonical11environmentNtB4_27EnvironmentSecuritySettings7staging
FNDA:0,_RNvXNtNtNtNtNtCs2meEIT43k6D_13nestgate_core6config17canonical_primary7domains18security_canonical11environmentNtB2_25SecurityEnvironmentConfigNtNtCs5GmCzIpY9Qj_4core7default7Default7default
FNF:9
FNH:0
DA:47,0
DA:48,0
DA:49,0
DA:50,0
DA:51,0
DA:52,0
DA:53,0
DA:59,0
DA:60,0
DA:61,0
DA:62,0
DA:63,0
DA:64,0
DA:65,0
DA:66,0
DA:67,0
DA:68,0
DA:69,0
DA:70,0
DA:71,0
DA:75,0
DA:76,0
DA:77,0
DA:78,0
DA:79,0
DA:80,0
DA:81,0
DA:82,0
DA:83,0
DA:84,0
DA:85,0
DA:86,0
DA:87,0
DA:91,0
DA:92,0
DA:93,0
DA:94,0
DA:95,0
DA:96,0
DA:97,0
DA:98,0
DA:99,0
DA:100,0
DA:101,0
DA:102,0
DA:103,0
DA:109,0
DA:110,0
DA:111,0
DA:114,0
DA:115,0
DA:116,0
DA:119,0
DA:120,0
DA:121,0
DA:124,0
DA:125,0
DA:126,0
DA:128,0
DA:129,0
DA:130,0
BRF:0
BRH:0
LF:61
LH:0
end_of_record
SF:/home/eastgate/Development/ecoPrimals/nestgate/code/crates/nestgate-core/src/config/canonical_primary/domains/security_canonical/mod.rs
FN:162,_RNvMNtNtNtNtCs2meEIT43k6D_13nestgate_core6config17canonical_primary7domains18security_canonicalNtB2_23CanonicalSecurityConfig18compliance_focused
FN:126,_RNvMNtNtNtNtCs2meEIT43k6D_13nestgate_core6config17canonical_primary7domains18security_canonicalNtB2_23CanonicalSecurityConfig19production_hardened
FN:144,_RNvMNtNtNtNtCs2meEIT43k6D_13nestgate_core6config17canonical_primary7domains18security_canonicalNtB2_23CanonicalSecurityConfig21development_optimized
FN:120,_RNvMNtNtNtNtCs2meEIT43k6D_13nestgate_core6config17canonical_primary7domains18security_canonicalNtB2_23CanonicalSecurityConfig3new
FN:180,_RNvMNtNtNtNtCs2meEIT43k6D_13nestgate_core6config17canonical_primary7domains18security_canonicalNtB2_23CanonicalSecurityConfig5merge
FN:196,_RNvMNtNtNtNtCs2meEIT43k6D_13nestgate_core6config17canonical_primary7domains18security_canonicalNtB2_23CanonicalSecurityConfig8validate
FNDA:0,_RNvMNtNtNtNtCs2meEIT43k6D_13nestgate_core6config17canonical_primary7domains18security_canonicalNtB2_23CanonicalSecurityConfig18compliance_focused
FNDA:0,_RNvMNtNtNtNtCs2meEIT43k6D_13nestgate_core6config17canonical_primary7domains18security_canonicalNtB2_23CanonicalSecurityConfig19production_hardened
FNDA:0,_RNvMNtNtNtNtCs2meEIT43k6D_13nestgate_core6config17canonical_primary7domains18security_canonicalNtB2_23CanonicalSecurityConfig21development_optimized
FNDA:0,_RNvMNtNtNtNtCs2meEIT43k6D_13nestgate_core6config17canonical_primary7domains18security_canonicalNtB2_23CanonicalSecurityConfig3new
FNDA:0,_RNvMNtNtNtNtCs2meEIT43k6D_13nestgate_core6config17canonical_primary7domains18security_canonicalNtB2_23CanonicalSecurityConfig5merge
FNDA:0,_RNvMNtNtNtNtCs2meEIT43k6D_13nestgate_core6config17canonical_primary7domains18security_canonicalNtB2_23CanonicalSecurityConfig8validate
FNF:6
FNH:0
DA:120,0
DA:121,0
DA:122,0
DA:126,0
DA:127,0
DA:128,0
DA:129,0
DA:130,0
DA:131,0
DA:132,0
DA:133,0
DA:134,0
DA:135,0
DA:136,0
DA:137,0
DA:138,0
DA:139,0
DA:140,0
DA:144,0
DA:145,0
DA:146,0
DA:147,0
DA:148,0
DA:149,0
DA:150,0
DA:151,0
DA:152,0
DA:153,0
DA:154,0
DA:155,0
DA:156,0
DA:157,0
DA:158,0
DA:162,0
DA:163,0
DA:164,0
DA:165,0
DA:166,0
DA:167,0
DA:168,0
DA:169,0
DA:170,0
DA:171,0
DA:172,0
DA:173,0
DA:174,0
DA:175,0
DA:176,0
DA:180,0
DA:181,0
DA:182,0
DA:183,0
DA:184,0
DA:185,0
DA:186,0
DA:187,0
DA:188,0
DA:189,0
DA:190,0
DA:191,0
DA:192,0
DA:193,0
DA:196,0
DA:198,0
DA:201,0
DA:204,0
DA:207,0
DA:210,0
DA:213,0
DA:215,0
DA:216,0
BRF:0
BRH:0
LF:71
LH:0
end_of_record
SF:/home/eastgate/Development/ecoPrimals/nestgate/code/crates/nestgate-core/src/config/canonical_primary/domains/security_canonical/monitoring.rs
FN:48,_RNvMNtNtNtNtNtCs2meEIT43k6D_13nestgate_core6config17canonical_primary7domains18security_canonical10monitoringNtB2_19AuditSecurityConfig18compliance_focused
FN:61,_RNvMNtNtNtNtNtCs2meEIT43k6D_13nestgate_core6config17canonical_primary7domains18security_canonical10monitoringNtB2_19AuditSecurityConfig19production_hardened
FN:35,_RNvMNtNtNtNtNtCs2meEIT43k6D_13nestgate_core6config17canonical_primary7domains18security_canonical10monitoringNtB2_19AuditSecurityConfig21development_optimized
FN:79,_RNvMNtNtNtNtNtCs2meEIT43k6D_13nestgate_core6config17canonical_primary7domains18security_canonical10monitoringNtB2_19AuditSecurityConfig5merge
FN:179,_RNvMs3_NtNtNtNtNtCs2meEIT43k6D_13nestgate_core6config17canonical_primary7domains18security_canonical10monitoringNtB5_24SecurityMonitoringConfig18compliance_focused
FN:165,_RNvMs3_NtNtNtNtNtCs2meEIT43k6D_13nestgate_core6config17canonical_primary7domains18security_canonical10monitoringNtB5_24SecurityMonitoringConfig19production_hardened
FN:172,_RNvMs3_NtNtNtNtNtCs2meEIT43k6D_13nestgate_core6config17canonical_primary7domains18security_canonical10monitoringNtB5_24SecurityMonitoringConfig21development_optimized
FN:192,_RNvMs3_NtNtNtNtNtCs2meEIT43k6D_13nestgate_core6config17canonical_primary7domains18security_canonical10monitoringNtB5_24SecurityMonitoringConfig5merge
FN:196,_RNvMs3_NtNtNtNtNtCs2meEIT43k6D_13nestgate_core6config17canonical_primary7domains18security_canonical10monitoringNtB5_24SecurityMonitoringConfig8validate
FN:130,_RNvXs0_NtNtNtNtNtCs2meEIT43k6D_13nestgate_core6config17canonical_primary7domains18security_canonical10monitoringNtB5_19AuditSecurityConfigNtNtCs5GmCzIpY9Qj_4core7default7Default7default
FN:141,_RNvXs1_NtNtNtNtNtCs2meEIT43k6D_13nestgate_core6config17canonical_primary7domains18security_canonical10monitoringNtB5_13LoggingConfigNtNtCs5GmCzIpY9Qj_4core7default7Default7default
FN:152,_RNvXs2_NtNtNtNtNtCs2meEIT43k6D_13nestgate_core6config17canonical_primary7domains18security_canonical10monitoringNtB5_14AlertingConfigNtNtCs5GmCzIpY9Qj_4core7default7Default7default
FN:118,_RNvXs_NtNtNtNtNtCs2meEIT43k6D_13nestgate_core6config17canonical_primary7domains18security_canonical10monitoringNtB4_24SecurityMonitoringConfigNtNtCs5GmCzIpY9Qj_4core7default7Default7default
FNDA:0,_RNvMNtNtNtNtNtCs2meEIT43k6D_13nestgate_core6config17canonical_primary7domains18security_canonical10monitoringNtB2_19AuditSecurityConfig18compliance_focused
FNDA:0,_RNvMNtNtNtNtNtCs2meEIT43k6D_13nestgate_core6config17canonical_primary7domains18security_canonical10monitoringNtB2_19AuditSecurityConfig19production_hardened
FNDA:0,_RNvMNtNtNtNtNtCs2meEIT43k6D_13nestgate_core6config17canonical_primary7domains18security_canonical10monitoringNtB2_19AuditSecurityConfig21development_optimized
FNDA:0,_RNvMNtNtNtNtNtCs2meEIT43k6D_13nestgate_core6config17canonical_primary7domains18security_canonical10monitoringNtB2_19AuditSecurityConfig5merge
FNDA:0,_RNvMs3_NtNtNtNtNtCs2meEIT43k6D_13nestgate_core6config17canonical_primary7domains18security_canonical10monitoringNtB5_24SecurityMonitoringConfig18compliance_focused
FNDA:0,_RNvMs3_NtNtNtNtNtCs2meEIT43k6D_13nestgate_core6config17canonical_primary7domains18security_canonical10monitoringNtB5_24SecurityMonitoringConfig19production_hardened
FNDA:0,_RNvMs3_NtNtNtNtNtCs2meEIT43k6D_13nestgate_core6config17canonical_primary7domains18security_canonical10monitoringNtB5_24SecurityMonitoringConfig21development_optimized
FNDA:0,_RNvMs3_NtNtNtNtNtCs2meEIT43k6D_13nestgate_core6config17canonical_primary7domains18security_canonical10monitoringNtB5_24SecurityMonitoringConfig5merge
FNDA:0,_RNvMs3_NtNtNtNtNtCs2meEIT43k6D_13nestgate_core6config17canonical_primary7domains18security_canonical10monitoringNtB5_24SecurityMonitoringConfig8validate
FNDA:0,_RNvXs0_NtNtNtNtNtCs2meEIT43k6D_13nestgate_core6config17canonical_primary7domains18security_canonical10monitoringNtB5_19AuditSecurityConfigNtNtCs5GmCzIpY9Qj_4core7default7Default7default
FNDA:0,_RNvXs1_NtNtNtNtNtCs2meEIT43k6D_13nestgate_core6config17canonical_primary7domains18security_canonical10monitoringNtB5_13LoggingConfigNtNtCs5GmCzIpY9Qj_4core7default7Default7default
FNDA:0,_RNvXs2_NtNtNtNtNtCs2meEIT43k6D_13nestgate_core6config17canonical_primary7domains18security_canonical10monitoringNtB5_14AlertingConfigNtNtCs5GmCzIpY9Qj_4core7default7Default7default
FNDA:0,_RNvXs_NtNtNtNtNtCs2meEIT43k6D_13nestgate_core6config17canonical_primary7domains18security_canonical10monitoringNtB4_24SecurityMonitoringConfigNtNtCs5GmCzIpY9Qj_4core7default7Default7default
FNF:13
FNH:0
DA:35,0
DA:36,0
DA:37,0
DA:38,0
DA:39,0
DA:40,0
DA:41,0
DA:48,0
DA:49,0
DA:50,0
DA:51,0
DA:52,0
DA:53,0
DA:54,0
DA:61,0
DA:62,0
DA:63,0
DA:64,0
DA:65,0
DA:66,0
DA:67,0
DA:79,0
DA:80,0
DA:81,0
DA:82,0
DA:83,0
DA:84,0
DA:118,0
DA:119,0
DA:120,0
DA:121,0
DA:122,0
DA:123,0
DA:124,0
DA:125,0
DA:130,0
DA:131,0
DA:132,0
DA:133,0
DA:134,0
DA:135,0
DA:136,0
DA:141,0
DA:142,0
DA:143,0
DA:144,0
DA:145,0
DA:146,0
DA:147,0
DA:152,0
DA:153,0
DA:154,0
DA:155,0
DA:156,0
DA:157,0
DA:165,0
DA:166,0
DA:167,0
DA:172,0
DA:173,0
DA:174,0
DA:179,0
DA:180,0
DA:181,0
DA:192,0
DA:193,0
DA:194,0
DA:196,0
DA:197,0
DA:198,0
BRF:0
BRH:0
LF:70
LH:0
end_of_record
SF:/home/eastgate/Development/ecoPrimals/nestgate/code/crates/nestgate-core/src/config/canonical_primary/domains/security_canonical/policies.rs
FN:114,_RNvMs2_NtNtNtNtNtCs2meEIT43k6D_13nestgate_core6config17canonical_primary7domains18security_canonical8policiesNtB5_22SecurityPoliciesConfig18compliance_focused
FN:100,_RNvMs2_NtNtNtNtNtCs2meEIT43k6D_13nestgate_core6config17canonical_primary7domains18security_canonical8policiesNtB5_22SecurityPoliciesConfig19production_hardened
FN:107,_RNvMs2_NtNtNtNtNtCs2meEIT43k6D_13nestgate_core6config17canonical_primary7domains18security_canonical8policiesNtB5_22SecurityPoliciesConfig21development_optimized
FN:127,_RNvMs2_NtNtNtNtNtCs2meEIT43k6D_13nestgate_core6config17canonical_primary7domains18security_canonical8policiesNtB5_22SecurityPoliciesConfig5merge
FN:131,_RNvMs2_NtNtNtNtNtCs2meEIT43k6D_13nestgate_core6config17canonical_primary7domains18security_canonical8policiesNtB5_22SecurityPoliciesConfig8validate
FN:57,_RNvXNtNtNtNtNtCs2meEIT43k6D_13nestgate_core6config17canonical_primary7domains18security_canonical8policiesNtB2_16ComplianceConfigNtNtCs5GmCzIpY9Qj_4core7default7Default7default
FN:77,_RNvXs0_NtNtNtNtNtCs2meEIT43k6D_13nestgate_core6config17canonical_primary7domains18security_canonical8policiesNtB5_21RetentionPolicyConfigNtNtCs5GmCzIpY9Qj_4core7default7Default7default
FN:87,_RNvXs1_NtNtNtNtNtCs2meEIT43k6D_13nestgate_core6config17canonical_primary7domains18security_canonical8policiesNtB5_13PrivacyConfigNtNtCs5GmCzIpY9Qj_4core7default7Default7default
FN:67,_RNvXs_NtNtNtNtNtCs2meEIT43k6D_13nestgate_core6config17canonical_primary7domains18security_canonical8policiesNtB4_20DataProtectionConfigNtNtCs5GmCzIpY9Qj_4core7default7Default7default
FNDA:0,_RNvMs2_NtNtNtNtNtCs2meEIT43k6D_13nestgate_core6config17canonical_primary7domains18security_canonical8policiesNtB5_22SecurityPoliciesConfig18compliance_focused
FNDA:0,_RNvMs2_NtNtNtNtNtCs2meEIT43k6D_13nestgate_core6config17canonical_primary7domains18security_canonical8policiesNtB5_22SecurityPoliciesConfig19production_hardened
FNDA:0,_RNvMs2_NtNtNtNtNtCs2meEIT43k6D_13nestgate_core6config17canonical_primary7domains18security_canonical8policiesNtB5_22SecurityPoliciesConfig21development_optimized
FNDA:0,_RNvMs2_NtNtNtNtNtCs2meEIT43k6D_13nestgate_core6config17canonical_primary7domains18security_canonical8policiesNtB5_22SecurityPoliciesConfig5merge
FNDA:0,_RNvMs2_NtNtNtNtNtCs2meEIT43k6D_13nestgate_core6config17canonical_primary7domains18security_canonical8policiesNtB5_22SecurityPoliciesConfig8validate
FNDA:0,_RNvXNtNtNtNtNtCs2meEIT43k6D_13nestgate_core6config17canonical_primary7domains18security_canonical8policiesNtB2_16ComplianceConfigNtNtCs5GmCzIpY9Qj_4core7default7Default7default
FNDA:0,_RNvXs0_NtNtNtNtNtCs2meEIT43k6D_13nestgate_core6config17canonical_primary7domains18security_canonical8policiesNtB5_21RetentionPolicyConfigNtNtCs5GmCzIpY9Qj_4core7default7Default7default
FNDA:0,_RNvXs1_NtNtNtNtNtCs2meEIT43k6D_13nestgate_core6config17canonical_primary7domains18security_canonical8policiesNtB5_13PrivacyConfigNtNtCs5GmCzIpY9Qj_4core7default7Default7default
FNDA:0,_RNvXs_NtNtNtNtNtCs2meEIT43k6D_13nestgate_core6config17canonical_primary7domains18security_canonical8policiesNtB4_20DataProtectionConfigNtNtCs5GmCzIpY9Qj_4core7default7Default7default
FNF:9
FNH:0
DA:57,0
DA:58,0
DA:59,0
DA:60,0
DA:61,0
DA:62,0
DA:67,0
DA:68,0
DA:69,0
DA:70,0
DA:71,0
DA:72,0
DA:77,0
DA:78,0
DA:79,0
DA:80,0
DA:81,0
DA:82,0
DA:87,0
DA:88,0
DA:89,0
DA:90,0
DA:91,0
DA:92,0
DA:100,0
DA:101,0
DA:102,0
DA:107,0
DA:108,0
DA:109,0
DA:114,0
DA:115,0
DA:116,0
DA:127,0
DA:128,0
DA:129,0
DA:131,0
DA:132,0
DA:133,0
BRF:0
BRH:0
LF:39
LH:0
end_of_record
SF:/home/eastgate/Development/ecoPrimals/nestgate/code/crates/nestgate-core/src/config/canonical_primary/domains/security_canonical/threat_protection.rs
FN:131,_RNvMs3_NtNtNtNtNtCs2meEIT43k6D_13nestgate_core6config17canonical_primary7domains18security_canonical17threat_protectionNtB5_22ThreatProtectionConfig18compliance_focused
FN:115,_RNvMs3_NtNtNtNtNtCs2meEIT43k6D_13nestgate_core6config17canonical_primary7domains18security_canonical17threat_protectionNtB5_22ThreatProtectionConfig19production_hardened
FN:123,_RNvMs3_NtNtNtNtNtCs2meEIT43k6D_13nestgate_core6config17canonical_primary7domains18security_canonical17threat_protectionNtB5_22ThreatProtectionConfig21development_optimized
FN:144,_RNvMs3_NtNtNtNtNtCs2meEIT43k6D_13nestgate_core6config17canonical_primary7domains18security_canonical17threat_protectionNtB5_22ThreatProtectionConfig5merge
FN:148,_RNvMs3_NtNtNtNtNtCs2meEIT43k6D_13nestgate_core6config17canonical_primary7domains18security_canonical17threat_protectionNtB5_22ThreatProtectionConfig8validate
FN:58,_RNvXNtNtNtNtNtCs2meEIT43k6D_13nestgate_core6config17canonical_primary7domains18security_canonical17threat_protectionNtB2_22ThreatProtectionConfigNtNtCs5GmCzIpY9Qj_4core7default7Default7default
FN:81,_RNvXs0_NtNtNtNtNtCs2meEIT43k6D_13nestgate_core6config17canonical_primary7domains18security_canonical17threat_protectionNtB5_14FirewallConfigNtNtCs5GmCzIpY9Qj_4core7default7Default7default
FN:91,_RNvXs1_NtNtNtNtNtCs2meEIT43k6D_13nestgate_core6config17canonical_primary7domains18security_canonical17threat_protectionNtB5_20DdosProtectionConfigNtNtCs5GmCzIpY9Qj_4core7default7Default7default
FN:101,_RNvXs2_NtNtNtNtNtCs2meEIT43k6D_13nestgate_core6config17canonical_primary7domains18security_canonical17threat_protectionNtB5_23MalwareProtectionConfigNtNtCs5GmCzIpY9Qj_4core7default7Default7default
FN:71,_RNvXs_NtNtNtNtNtCs2meEIT43k6D_13nestgate_core6config17canonical_primary7domains18security_canonical17threat_protectionNtB4_24IntrusionDetectionConfigNtNtCs5GmCzIpY9Qj_4core7default7Default7default
FNDA:0,_RNvMs3_NtNtNtNtNtCs2meEIT43k6D_13nestgate_core6config17canonical_primary7domains18security_canonical17threat_protectionNtB5_22ThreatProtectionConfig18compliance_focused
FNDA:0,_RNvMs3_NtNtNtNtNtCs2meEIT43k6D_13nestgate_core6config17canonical_primary7domains18security_canonical17threat_protectionNtB5_22ThreatProtectionConfig19production_hardened
FNDA:0,_RNvMs3_NtNtNtNtNtCs2meEIT43k6D_13nestgate_core6config17canonical_primary7domains18security_canonical17threat_protectionNtB5_22ThreatProtectionConfig21development_optimized
FNDA:0,_RNvMs3_NtNtNtNtNtCs2meEIT43k6D_13nestgate_core6config17canonical_primary7domains18security_canonical17threat_protectionNtB5_22ThreatProtectionConfig5merge
FNDA:0,_RNvMs3_NtNtNtNtNtCs2meEIT43k6D_13nestgate_core6config17canonical_primary7domains18security_canonical17threat_protectionNtB5_22ThreatProtectionConfig8validate
FNDA:0,_RNvXNtNtNtNtNtCs2meEIT43k6D_13nestgate_core6config17canonical_primary7domains18security_canonical17threat_protectionNtB2_22ThreatProtectionConfigNtNtCs5GmCzIpY9Qj_4core7default7Default7default
FNDA:0,_RNvXs0_NtNtNtNtNtCs2meEIT43k6D_13nestgate_core6config17canonical_primary7domains18security_canonical17threat_protectionNtB5_14FirewallConfigNtNtCs5GmCzIpY9Qj_4core7default7Default7default
FNDA:0,_RNvXs1_NtNtNtNtNtCs2meEIT43k6D_13nestgate_core6config17canonical_primary7domains18security_canonical17threat_protectionNtB5_20DdosProtectionConfigNtNtCs5GmCzIpY9Qj_4core7default7Default7default
FNDA:0,_RNvXs2_NtNtNtNtNtCs2meEIT43k6D_13nestgate_core6config17canonical_primary7domains18security_canonical17threat_protectionNtB5_23MalwareProtectionConfigNtNtCs5GmCzIpY9Qj_4core7default7Default7default
FNDA:0,_RNvXs_NtNtNtNtNtCs2meEIT43k6D_13nestgate_core6config17canonical_primary7domains18security_canonical17threat_protectionNtB4_24IntrusionDetectionConfigNtNtCs5GmCzIpY9Qj_4core7default7Default7default
FNF:10
FNH:0
DA:58,0
DA:59,0
DA:60,0
DA:61,0
DA:62,0
DA:63,0
DA:64,0
DA:65,0
DA:66,0
DA:71,0
DA:72,0
DA:73,0
DA:74,0
DA:75,0
DA:76,0
DA:81,0
DA:82,0
DA:83,0
DA:84,0
DA:85,0
DA:86,0
DA:91,0
DA:92,0
DA:93,0
DA:94,0
DA:95,0
DA:96,0
DA:101,0
DA:102,0
DA:103,0
DA:104,0
DA:105,0
DA:106,0
DA:115,0
DA:116,0
DA:117,0
DA:123,0
DA:124,0
DA:125,0
DA:131,0
DA:132,0
DA:133,0
DA:144,0
DA:145,0
DA:146,0
DA:148,0
DA:149,0
DA:150,0
BRF:0
BRH:0
LF:48
LH:0
end_of_record
SF:/home/eastgate/Development/ecoPrimals/nestgate/code/crates/nestgate-core/src/config/canonical_primary/domains/security_canonical/tls.rs
FN:45,_RNvMNtNtNtNtNtCs2meEIT43k6D_13nestgate_core6config17canonical_primary7domains18security_canonical3tlsNtB2_27CertificateManagementConfig18compliance_focused
FN:57,_RNvMNtNtNtNtNtCs2meEIT43k6D_13nestgate_core6config17canonical_primary7domains18security_canonical3tlsNtB2_27CertificateManagementConfig19production_hardened
FN:33,_RNvMNtNtNtNtNtCs2meEIT43k6D_13nestgate_core6config17canonical_primary7domains18security_canonical3tlsNtB2_27CertificateManagementConfig21development_optimized
FN:69,_RNvMNtNtNtNtNtCs2meEIT43k6D_13nestgate_core6config17canonical_primary7domains18security_canonical3tlsNtB2_27CertificateManagementConfig5merge
FN:166,_RNvMs2_NtNtNtNtNtCs2meEIT43k6D_13nestgate_core6config17canonical_primary7domains18security_canonical3tlsNtB5_17TlsSecurityConfig18compliance_focused
FN:150,_RNvMs2_NtNtNtNtNtCs2meEIT43k6D_13nestgate_core6config17canonical_primary7domains18security_canonical3tlsNtB5_17TlsSecurityConfig19production_hardened
FN:158,_RNvMs2_NtNtNtNtNtCs2meEIT43k6D_13nestgate_core6config17canonical_primary7domains18security_canonical3tlsNtB5_17TlsSecurityConfig21development_optimized
FN:174,_RNvMs2_NtNtNtNtNtCs2meEIT43k6D_13nestgate_core6config17canonical_primary7domains18security_canonical3tlsNtB5_17TlsSecurityConfig5merge
FN:179,_RNvMs2_NtNtNtNtNtCs2meEIT43k6D_13nestgate_core6config17canonical_primary7domains18security_canonical3tlsNtB5_17TlsSecurityConfig8validate
FN:126,_RNvXs0_NtNtNtNtNtCs2meEIT43k6D_13nestgate_core6config17canonical_primary7domains18security_canonical3tlsNtB5_27CertificateManagementConfigNtNtCs5GmCzIpY9Qj_4core7default7Default7default
FN:137,_RNvXs1_NtNtNtNtNtCs2meEIT43k6D_13nestgate_core6config17canonical_primary7domains18security_canonical3tlsNtB5_9SslConfigNtNtCs5GmCzIpY9Qj_4core7default7Default7default
FN:115,_RNvXs_NtNtNtNtNtCs2meEIT43k6D_13nestgate_core6config17canonical_primary7domains18security_canonical3tlsNtB4_17TlsSecurityConfigNtNtCs5GmCzIpY9Qj_4core7default7Default7default
FNDA:0,_RNvMNtNtNtNtNtCs2meEIT43k6D_13nestgate_core6config17canonical_primary7domains18security_canonical3tlsNtB2_27CertificateManagementConfig18compliance_focused
FNDA:0,_RNvMNtNtNtNtNtCs2meEIT43k6D_13nestgate_core6config17canonical_primary7domains18security_canonical3tlsNtB2_27CertificateManagementConfig19production_hardened
FNDA:0,_RNvMNtNtNtNtNtCs2meEIT43k6D_13nestgate_core6config17canonical_primary7domains18security_canonical3tlsNtB2_27CertificateManagementConfig21development_optimized
FNDA:0,_RNvMNtNtNtNtNtCs2meEIT43k6D_13nestgate_core6config17canonical_primary7domains18security_canonical3tlsNtB2_27CertificateManagementConfig5merge
FNDA:0,_RNvMs2_NtNtNtNtNtCs2meEIT43k6D_13nestgate_core6config17canonical_primary7domains18security_canonical3tlsNtB5_17TlsSecurityConfig18compliance_focused
FNDA:0,_RNvMs2_NtNtNtNtNtCs2meEIT43k6D_13nestgate_core6config17canonical_primary7domains18security_canonical3tlsNtB5_17TlsSecurityConfig19production_hardened
FNDA:0,_RNvMs2_NtNtNtNtNtCs2meEIT43k6D_13nestgate_core6config17canonical_primary7domains18security_canonical3tlsNtB5_17TlsSecurityConfig21development_optimized
FNDA:0,_RNvMs2_NtNtNtNtNtCs2meEIT43k6D_13nestgate_core6config17canonical_primary7domains18security_canonical3tlsNtB5_17TlsSecurityConfig5merge
FNDA:0,_RNvMs2_NtNtNtNtNtCs2meEIT43k6D_13nestgate_core6config17canonical_primary7domains18security_canonical3tlsNtB5_17TlsSecurityConfig8validate
FNDA:0,_RNvXs0_NtNtNtNtNtCs2meEIT43k6D_13nestgate_core6config17canonical_primary7domains18security_canonical3tlsNtB5_27CertificateManagementConfigNtNtCs5GmCzIpY9Qj_4core7default7Default7default
FNDA:0,_RNvXs1_NtNtNtNtNtCs2meEIT43k6D_13nestgate_core6config17canonical_primary7domains18security_canonical3tlsNtB5_9SslConfigNtNtCs5GmCzIpY9Qj_4core7default7Default7default
FNDA:0,_RNvXs_NtNtNtNtNtCs2meEIT43k6D_13nestgate_core6config17canonical_primary7domains18security_canonical3tlsNtB4_17TlsSecurityConfigNtNtCs5GmCzIpY9Qj_4core7default7Default7default
FNF:12
FNH:0
DA:33,0
DA:34,0
DA:35,0
DA:36,0
DA:37,0
DA:38,0
DA:39,0
DA:45,0
DA:46,0
DA:47,0
DA:48,0
DA:49,0
DA:50,0
DA:51,0
DA:57,0
DA:58,0
DA:59,0
DA:60,0
DA:61,0
DA:62,0
DA:63,0
DA:69,0
DA:70,0
DA:71,0
DA:72,0
DA:73,0
DA:74,0
DA:115,0
DA:116,0
DA:117,0
DA:118,0
DA:119,0
DA:120,0
DA:121,0
DA:126,0
DA:127,0
DA:128,0
DA:129,0
DA:130,0
DA:131,0
DA:132,0
DA:137,0
DA:138,0
DA:139,0
DA:140,0
DA:141,0
DA:142,0
DA:150,0
DA:151,0
DA:152,0
DA:158,0
DA:159,0
DA:160,0
DA:166,0
DA:167,0
DA:168,0
DA:174,0
DA:175,0
DA:176,0
DA:179,0
DA:180,0
DA:181,0
BRF:0
BRH:0
LF:62
LH:0
end_of_record
SF:/home/eastgate/Development/ecoPrimals/nestgate/code/crates/nestgate-core/src/config/canonical_primary/domains/storage_canonical/backends.rs
FN:748,_RNCNvMs8_NtNtNtNtNtCs2meEIT43k6D_13nestgate_core6config17canonical_primary7domains17storage_canonical8backendsNtB7_20StorageBackendConfig22get_available_backends0Bh_
FN:757,_RNCNvMs8_NtNtNtNtNtCs2meEIT43k6D_13nestgate_core6config17canonical_primary7domains17storage_canonical8backendsNtB7_20StorageBackendConfig11has_backend0Bh_
FN:754,_RNvMs8_NtNtNtNtNtCs2meEIT43k6D_13nestgate_core6config17canonical_primary7domains17storage_canonical8backendsNtB5_20StorageBackendConfig11has_backend
FN:689,_RNvMs8_NtNtNtNtNtCs2meEIT43k6D_13nestgate_core6config17canonical_primary7domains17storage_canonical8backendsNtB5_20StorageBackendConfig12cloud_native
FN:666,_RNvMs8_NtNtNtNtNtCs2meEIT43k6D_13nestgate_core6config17canonical_primary7domains17storage_canonical8backendsNtB5_20StorageBackendConfig16high_performance
FN:628,_RNvMs8_NtNtNtNtNtCs2meEIT43k6D_13nestgate_core6config17canonical_primary7domains17storage_canonical8backendsNtB5_20StorageBackendConfig20production_optimized
FN:651,_RNvMs8_NtNtNtNtNtCs2meEIT43k6D_13nestgate_core6config17canonical_primary7domains17storage_canonical8backendsNtB5_20StorageBackendConfig21development_optimized
FN:745,_RNvMs8_NtNtNtNtNtCs2meEIT43k6D_13nestgate_core6config17canonical_primary7domains17storage_canonical8backendsNtB5_20StorageBackendConfig22get_available_backends
FN:712,_RNvMs8_NtNtNtNtNtCs2meEIT43k6D_13nestgate_core6config17canonical_primary7domains17storage_canonical8backendsNtB5_20StorageBackendConfig5merge
FN:718,_RNvMs8_NtNtNtNtNtCs2meEIT43k6D_13nestgate_core6config17canonical_primary7domains17storage_canonical8backendsNtB5_20StorageBackendConfig8validate
FN:503,_RNvXNtNtNtNtNtCs2meEIT43k6D_13nestgate_core6config17canonical_primary7domains17storage_canonical8backendsNtB2_20StorageBackendConfigNtNtCs5GmCzIpY9Qj_4core7default7Default7default
FN:527,_RNvXs0_NtNtNtNtNtCs2meEIT43k6D_13nestgate_core6config17canonical_primary7domains17storage_canonical8backendsNtB5_21StorageFailoverConfigNtNtCs5GmCzIpY9Qj_4core7default7Default7default
FN:539,_RNvXs1_NtNtNtNtNtCs2meEIT43k6D_13nestgate_core6config17canonical_primary7domains17storage_canonical8backendsNtB5_25FailoverHealthCheckConfigNtNtCs5GmCzIpY9Qj_4core7default7Default7default
FN:550,_RNvXs2_NtNtNtNtNtCs2meEIT43k6D_13nestgate_core6config17canonical_primary7domains17storage_canonical8backendsNtB5_26StorageLoadBalancingConfigNtNtCs5GmCzIpY9Qj_4core7default7Default7default
FN:562,_RNvXs3_NtNtNtNtNtCs2meEIT43k6D_13nestgate_core6config17canonical_primary7domains17storage_canonical8backendsNtB5_23StorageConnectionConfigNtNtCs5GmCzIpY9Qj_4core7default7Default7default
FN:575,_RNvXs4_NtNtNtNtNtCs2meEIT43k6D_13nestgate_core6config17canonical_primary7domains17storage_canonical8backendsNtB5_21ConnectionRetryConfigNtNtCs5GmCzIpY9Qj_4core7default7Default7default
FN:587,_RNvXs5_NtNtNtNtNtCs2meEIT43k6D_13nestgate_core6config17canonical_primary7domains17storage_canonical8backendsNtB5_20ConnectionPoolConfigNtNtCs5GmCzIpY9Qj_4core7default7Default7default
FN:599,_RNvXs6_NtNtNtNtNtCs2meEIT43k6D_13nestgate_core6config17canonical_primary7domains17storage_canonical8backendsNtB5_19StorageLimitsConfigNtNtCs5GmCzIpY9Qj_4core7default7Default7default
FN:611,_RNvXs7_NtNtNtNtNtCs2meEIT43k6D_13nestgate_core6config17canonical_primary7domains17storage_canonical8backendsNtB5_24StorageHealthCheckConfigNtNtCs5GmCzIpY9Qj_4core7default7Default7default
FN:516,_RNvXs_NtNtNtNtNtCs2meEIT43k6D_13nestgate_core6config17canonical_primary7domains17storage_canonical8backendsNtB4_20StorageRoutingConfigNtNtCs5GmCzIpY9Qj_4core7default7Default7default
FNDA:0,_RNCNvMs8_NtNtNtNtNtCs2meEIT43k6D_13nestgate_core6config17canonical_primary7domains17storage_canonical8backendsNtB7_20StorageBackendConfig22get_available_backends0Bh_
FNDA:0,_RNCNvMs8_NtNtNtNtNtCs2meEIT43k6D_13nestgate_core6config17canonical_primary7domains17storage_canonical8backendsNtB7_20StorageBackendConfig11has_backend0Bh_
FNDA:0,_RNvMs8_NtNtNtNtNtCs2meEIT43k6D_13nestgate_core6config17canonical_primary7domains17storage_canonical8backendsNtB5_20StorageBackendConfig11has_backend
FNDA:0,_RNvMs8_NtNtNtNtNtCs2meEIT43k6D_13nestgate_core6config17canonical_primary7domains17storage_canonical8backendsNtB5_20StorageBackendConfig12cloud_native
FNDA:0,_RNvMs8_NtNtNtNtNtCs2meEIT43k6D_13nestgate_core6config17canonical_primary7domains17storage_canonical8backendsNtB5_20StorageBackendConfig16high_performance
FNDA:0,_RNvMs8_NtNtNtNtNtCs2meEIT43k6D_13nestgate_core6config17canonical_primary7domains17storage_canonical8backendsNtB5_20StorageBackendConfig20production_optimized
FNDA:0,_RNvMs8_NtNtNtNtNtCs2meEIT43k6D_13nestgate_core6config17canonical_primary7domains17storage_canonical8backendsNtB5_20StorageBackendConfig21development_optimized
FNDA:0,_RNvMs8_NtNtNtNtNtCs2meEIT43k6D_13nestgate_core6config17canonical_primary7domains17storage_canonical8backendsNtB5_20StorageBackendConfig22get_available_backends
FNDA:0,_RNvMs8_NtNtNtNtNtCs2meEIT43k6D_13nestgate_core6config17canonical_primary7domains17storage_canonical8backendsNtB5_20StorageBackendConfig5merge
FNDA:0,_RNvMs8_NtNtNtNtNtCs2meEIT43k6D_13nestgate_core6config17canonical_primary7domains17storage_canonical8backendsNtB5_20StorageBackendConfig8validate
FNDA:0,_RNvXNtNtNtNtNtCs2meEIT43k6D_13nestgate_core6config17canonical_primary7domains17storage_canonical8backendsNtB2_20StorageBackendConfigNtNtCs5GmCzIpY9Qj_4core7default7Default7default
FNDA:0,_RNvXs0_NtNtNtNtNtCs2meEIT43k6D_13nestgate_core6config17canonical_primary7domains17storage_canonical8backendsNtB5_21StorageFailoverConfigNtNtCs5GmCzIpY9Qj_4core7default7Default7default
FNDA:0,_RNvXs1_NtNtNtNtNtCs2meEIT43k6D_13nestgate_core6config17canonical_primary7domains17storage_canonical8backendsNtB5_25FailoverHealthCheckConfigNtNtCs5GmCzIpY9Qj_4core7default7Default7default
FNDA:0,_RNvXs2_NtNtNtNtNtCs2meEIT43k6D_13nestgate_core6config17canonical_primary7domains17storage_canonical8backendsNtB5_26StorageLoadBalancingConfigNtNtCs5GmCzIpY9Qj_4core7default7Default7default
FNDA:0,_RNvXs3_NtNtNtNtNtCs2meEIT43k6D_13nestgate_core6config17canonical_primary7domains17storage_canonical8backendsNtB5_23StorageConnectionConfigNtNtCs5GmCzIpY9Qj_4core7default7Default7default
FNDA:0,_RNvXs4_NtNtNtNtNtCs2meEIT43k6D_13nestgate_core6config17canonical_primary7domains17storage_canonical8backendsNtB5_21ConnectionRetryConfigNtNtCs5GmCzIpY9Qj_4core7default7Default7default
FNDA:0,_RNvXs5_NtNtNtNtNtCs2meEIT43k6D_13nestgate_core6config17canonical_primary7domains17storage_canonical8backendsNtB5_20ConnectionPoolConfigNtNtCs5GmCzIpY9Qj_4core7default7Default7default
FNDA:0,_RNvXs6_NtNtNtNtNtCs2meEIT43k6D_13nestgate_core6config17canonical_primary7domains17storage_canonical8backendsNtB5_19StorageLimitsConfigNtNtCs5GmCzIpY9Qj_4core7default7Default7default
FNDA:0,_RNvXs7_NtNtNtNtNtCs2meEIT43k6D_13nestgate_core6config17canonical_primary7domains17storage_canonical8backendsNtB5_24StorageHealthCheckConfigNtNtCs5GmCzIpY9Qj_4core7default7Default7default
FNDA:0,_RNvXs_NtNtNtNtNtCs2meEIT43k6D_13nestgate_core6config17canonical_primary7domains17storage_canonical8backendsNtB4_20StorageRoutingConfigNtNtCs5GmCzIpY9Qj_4core7default7Default7default
FNF:20
FNH:0
DA:503,0
DA:504,0
DA:505,0
DA:506,0
DA:507,0
DA:508,0
DA:509,0
DA:510,0
DA:511,0
DA:516,0
DA:517,0
DA:518,0
DA:519,0
DA:520,0
DA:521,0
DA:522,0
DA:527,0
DA:528,0
DA:529,0
DA:530,0
DA:531,0
DA:532,0
DA:533,0
DA:534,0
DA:539,0
DA:540,0
DA:541,0
DA:542,0
DA:543,0
DA:544,0
DA:545,0
DA:550,0
DA:551,0
DA:552,0
DA:553,0
DA:554,0
DA:555,0
DA:556,0
DA:557,0
DA:562,0
DA:563,0
DA:564,0
DA:565,0
DA:566,0
DA:567,0
DA:568,0
DA:569,0
DA:570,0
DA:575,0
DA:576,0
DA:577,0
DA:578,0
DA:579,0
DA:580,0
DA:581,0
DA:582,0
DA:587,0
DA:588,0
DA:589,0
DA:590,0
DA:591,0
DA:592,0
DA:593,0
DA:594,0
DA:599,0
DA:600,0
DA:601,0
DA:602,0
DA:603,0
DA:604,0
DA:605,0
DA:606,0
DA:611,0
DA:612,0
DA:613,0
DA:614,0
DA:615,0
DA:616,0
DA:617,0
DA:618,0
DA:619,0
DA:620,0
DA:628,0
DA:629,0
DA:630,0
DA:631,0
DA:632,0
DA:633,0
DA:634,0
DA:635,0
DA:636,0
DA:637,0
DA:638,0
DA:639,0
DA:640,0
DA:641,0
DA:642,0
DA:643,0
DA:644,0
DA:645,0
DA:646,0
DA:647,0
DA:651,0
DA:652,0
DA:653,0
DA:654,0
DA:655,0
DA:656,0
DA:657,0
DA:658,0
DA:659,0
DA:660,0
DA:661,0
DA:662,0
DA:666,0
DA:667,0
DA:668,0
DA:669,0
DA:670,0
DA:671,0
DA:672,0
DA:673,0
DA:674,0
DA:675,0
DA:676,0
DA:677,0
DA:678,0
DA:679,0
DA:680,0
DA:681,0
DA:682,0
DA:683,0
DA:684,0
DA:685,0
DA:689,0
DA:690,0
DA:691,0
DA:692,0
DA:693,0
DA:694,0
DA:695,0
DA:696,0
DA:697,0
DA:698,0
DA:699,0
DA:700,0
DA:701,0
DA:702,0
DA:703,0
DA:704,0
DA:705,0
DA:706,0
DA:707,0
DA:708,0
DA:712,0
DA:714,0
DA:715,0
DA:718,0
DA:720,0
DA:721,0
DA:722,0
DA:723,0
DA:725,0
DA:726,0
DA:727,0
DA:728,0
DA:731,0
DA:732,0
DA:733,0
DA:734,0
DA:735,0
DA:736,0
DA:737,0
DA:740,0
DA:741,0
DA:745,0
DA:746,0
DA:747,0
DA:748,0
DA:749,0
DA:750,0
DA:754,0
DA:755,0
DA:756,0
DA:757,0
DA:758,0
BRF:0
BRH:0
LF:188
LH:0
end_of_record
SF:/home/eastgate/Development/ecoPrimals/nestgate/code/crates/nestgate-core/src/config/canonical_primary/domains/storage_canonical/caching.rs
FN:131,_RNvMs_NtNtNtNtNtCs2meEIT43k6D_13nestgate_core6config17canonical_primary7domains17storage_canonical7cachingNtB4_20StorageCachingConfig12cloud_native
FN:123,_RNvMs_NtNtNtNtNtCs2meEIT43k6D_13nestgate_core6config17canonical_primary7domains17storage_canonical7cachingNtB4_20StorageCachingConfig16high_performance
FN:107,_RNvMs_NtNtNtNtNtCs2meEIT43k6D_13nestgate_core6config17canonical_primary7domains17storage_canonical7cachingNtB4_20StorageCachingConfig20production_optimized
FN:115,_RNvMs_NtNtNtNtNtCs2meEIT43k6D_13nestgate_core6config17canonical_primary7domains17storage_canonical7cachingNtB4_20StorageCachingConfig21development_optimized
FN:137,_RNvMs_NtNtNtNtNtCs2meEIT43k6D_13nestgate_core6config17canonical_primary7domains17storage_canonical7cachingNtB4_20StorageCachingConfig5merge
FN:146,_RNvMs_NtNtNtNtNtCs2meEIT43k6D_13nestgate_core6config17canonical_primary7domains17storage_canonical7cachingNtB4_20StorageCachingConfig8validate
FN:87,_RNvXNtNtNtNtNtCs2meEIT43k6D_13nestgate_core6config17canonical_primary7domains17storage_canonical7cachingNtB2_20StorageCachingConfigNtNtCs5GmCzIpY9Qj_4core7default7Default7default
FNDA:0,_RNvMs_NtNtNtNtNtCs2meEIT43k6D_13nestgate_core6config17canonical_primary7domains17storage_canonical7cachingNtB4_20StorageCachingConfig12cloud_native
FNDA:0,_RNvMs_NtNtNtNtNtCs2meEIT43k6D_13nestgate_core6config17canonical_primary7domains17storage_canonical7cachingNtB4_20StorageCachingConfig16high_performance
FNDA:0,_RNvMs_NtNtNtNtNtCs2meEIT43k6D_13nestgate_core6config17canonical_primary7domains17storage_canonical7cachingNtB4_20StorageCachingConfig20production_optimized
FNDA:0,_RNvMs_NtNtNtNtNtCs2meEIT43k6D_13nestgate_core6config17canonical_primary7domains17storage_canonical7cachingNtB4_20StorageCachingConfig21development_optimized
FNDA:0,_RNvMs_NtNtNtNtNtCs2meEIT43k6D_13nestgate_core6config17canonical_primary7domains17storage_canonical7cachingNtB4_20StorageCachingConfig5merge
FNDA:0,_RNvMs_NtNtNtNtNtCs2meEIT43k6D_13nestgate_core6config17canonical_primary7domains17storage_canonical7cachingNtB4_20StorageCachingConfig8validate
FNDA:0,_RNvXNtNtNtNtNtCs2meEIT43k6D_13nestgate_core6config17canonical_primary7domains17storage_canonical7cachingNtB2_20StorageCachingConfigNtNtCs5GmCzIpY9Qj_4core7default7Default7default
FNF:7
FNH:0
DA:87,0
DA:88,0
DA:89,0
DA:90,0
DA:91,0
DA:92,0
DA:93,0
DA:94,0
DA:95,0
DA:96,0
DA:97,0
DA:98,0
DA:99,0
DA:107,0
DA:108,0
DA:109,0
DA:115,0
DA:116,0
DA:117,0
DA:123,0
DA:124,0
DA:125,0
DA:131,0
DA:132,0
DA:133,0
DA:137,0
DA:138,0
DA:139,0
DA:146,0
DA:147,0
DA:148,0
BRF:0
BRH:0
LF:31
LH:0
end_of_record
SF:/home/eastgate/Development/ecoPrimals/nestgate/code/crates/nestgate-core/src/config/canonical_primary/domains/storage_canonical/encryption.rs
FN:120,_RNvMs_NtNtNtNtNtCs2meEIT43k6D_13nestgate_core6config17canonical_primary7domains17storage_canonical10encryptionNtB4_23StorageEncryptionConfig12cloud_native
FN:112,_RNvMs_NtNtNtNtNtCs2meEIT43k6D_13nestgate_core6config17canonical_primary7domains17storage_canonical10encryptionNtB4_23StorageEncryptionConfig16high_performance
FN:96,_RNvMs_NtNtNtNtNtCs2meEIT43k6D_13nestgate_core6config17canonical_primary7domains17storage_canonical10encryptionNtB4_23StorageEncryptionConfig20production_optimized
FN:104,_RNvMs_NtNtNtNtNtCs2meEIT43k6D_13nestgate_core6config17canonical_primary7domains17storage_canonical10encryptionNtB4_23StorageEncryptionConfig21development_optimized
FN:126,_RNvMs_NtNtNtNtNtCs2meEIT43k6D_13nestgate_core6config17canonical_primary7domains17storage_canonical10encryptionNtB4_23StorageEncryptionConfig5merge
FN:135,_RNvMs_NtNtNtNtNtCs2meEIT43k6D_13nestgate_core6config17canonical_primary7domains17storage_canonical10encryptionNtB4_23StorageEncryptionConfig8validate
FN:76,_RNvXNtNtNtNtNtCs2meEIT43k6D_13nestgate_core6config17canonical_primary7domains17storage_canonical10encryptionNtB2_23StorageEncryptionConfigNtNtCs5GmCzIpY9Qj_4core7default7Default7default
FNDA:0,_RNvMs_NtNtNtNtNtCs2meEIT43k6D_13nestgate_core6config17canonical_primary7domains17storage_canonical10encryptionNtB4_23StorageEncryptionConfig12cloud_native
FNDA:0,_RNvMs_NtNtNtNtNtCs2meEIT43k6D_13nestgate_core6config17canonical_primary7domains17storage_canonical10encryptionNtB4_23StorageEncryptionConfig16high_performance
FNDA:0,_RNvMs_NtNtNtNtNtCs2meEIT43k6D_13nestgate_core6config17canonical_primary7domains17storage_canonical10encryptionNtB4_23StorageEncryptionConfig20production_optimized
FNDA:0,_RNvMs_NtNtNtNtNtCs2meEIT43k6D_13nestgate_core6config17canonical_primary7domains17storage_canonical10encryptionNtB4_23StorageEncryptionConfig21development_optimized
FNDA:0,_RNvMs_NtNtNtNtNtCs2meEIT43k6D_13nestgate_core6config17canonical_primary7domains17storage_canonical10encryptionNtB4_23StorageEncryptionConfig5merge
FNDA:0,_RNvMs_NtNtNtNtNtCs2meEIT43k6D_13nestgate_core6config17canonical_primary7domains17storage_canonical10encryptionNtB4_23StorageEncryptionConfig8validate
FNDA:0,_RNvXNtNtNtNtNtCs2meEIT43k6D_13nestgate_core6config17canonical_primary7domains17storage_canonical10encryptionNtB2_23StorageEncryptionConfigNtNtCs5GmCzIpY9Qj_4core7default7Default7default
FNF:7
FNH:0
DA:76,0
DA:77,0
DA:78,0
DA:79,0
DA:80,0
DA:81,0
DA:82,0
DA:83,0
DA:84,0
DA:85,0
DA:86,0
DA:87,0
DA:88,0
DA:96,0
DA:97,0
DA:98,0
DA:104,0
DA:105,0
DA:106,0
DA:112,0
DA:113,0
DA:114,0
DA:120,0
DA:121,0
DA:122,0
DA:126,0
DA:127,0
DA:128,0
DA:135,0
DA:136,0
DA:137,0
BRF:0
BRH:0
LF:31
LH:0
end_of_record
SF:/home/eastgate/Development/ecoPrimals/nestgate/code/crates/nestgate-core/src/config/canonical_primary/domains/storage_canonical/environment.rs
FN:114,_RNvMs_NtNtNtNtNtCs2meEIT43k6D_13nestgate_core6config17canonical_primary7domains17storage_canonical11environmentNtB4_24StorageEnvironmentConfig12cloud_native
FN:108,_RNvMs_NtNtNtNtNtCs2meEIT43k6D_13nestgate_core6config17canonical_primary7domains17storage_canonical11environmentNtB4_24StorageEnvironmentConfig16high_performance
FN:96,_RNvMs_NtNtNtNtNtCs2meEIT43k6D_13nestgate_core6config17canonical_primary7domains17storage_canonical11environmentNtB4_24StorageEnvironmentConfig20production_optimized
FN:102,_RNvMs_NtNtNtNtNtCs2meEIT43k6D_13nestgate_core6config17canonical_primary7domains17storage_canonical11environmentNtB4_24StorageEnvironmentConfig21development_optimized
FN:120,_RNvMs_NtNtNtNtNtCs2meEIT43k6D_13nestgate_core6config17canonical_primary7domains17storage_canonical11environmentNtB4_24StorageEnvironmentConfig5merge
FN:129,_RNvMs_NtNtNtNtNtCs2meEIT43k6D_13nestgate_core6config17canonical_primary7domains17storage_canonical11environmentNtB4_24StorageEnvironmentConfig8validate
FN:61,_RNvXNtNtNtNtNtCs2meEIT43k6D_13nestgate_core6config17canonical_primary7domains17storage_canonical11environmentNtB2_24StorageEnvironmentConfigNtNtCs5GmCzIpY9Qj_4core7default7Default7default
FNDA:0,_RNvMs_NtNtNtNtNtCs2meEIT43k6D_13nestgate_core6config17canonical_primary7domains17storage_canonical11environmentNtB4_24StorageEnvironmentConfig12cloud_native
FNDA:0,_RNvMs_NtNtNtNtNtCs2meEIT43k6D_13nestgate_core6config17canonical_primary7domains17storage_canonical11environmentNtB4_24StorageEnvironmentConfig16high_performance
FNDA:0,_RNvMs_NtNtNtNtNtCs2meEIT43k6D_13nestgate_core6config17canonical_primary7domains17storage_canonical11environmentNtB4_24StorageEnvironmentConfig20production_optimized
FNDA:0,_RNvMs_NtNtNtNtNtCs2meEIT43k6D_13nestgate_core6config17canonical_primary7domains17storage_canonical11environmentNtB4_24StorageEnvironmentConfig21development_optimized
FNDA:0,_RNvMs_NtNtNtNtNtCs2meEIT43k6D_13nestgate_core6config17canonical_primary7domains17storage_canonical11environmentNtB4_24StorageEnvironmentConfig5merge
FNDA:0,_RNvMs_NtNtNtNtNtCs2meEIT43k6D_13nestgate_core6config17canonical_primary7domains17storage_canonical11environmentNtB4_24StorageEnvironmentConfig8validate
FNDA:0,_RNvXNtNtNtNtNtCs2meEIT43k6D_13nestgate_core6config17canonical_primary7domains17storage_canonical11environmentNtB2_24StorageEnvironmentConfigNtNtCs5GmCzIpY9Qj_4core7default7Default7default
FNF:7
FNH:0
DA:61,0
DA:62,0
DA:63,0
DA:64,0
DA:65,0
DA:66,0
DA:67,0
DA:68,0
DA:69,0
DA:70,0
DA:71,0
DA:72,0
DA:73,0
DA:74,0
DA:75,0
DA:76,0
DA:77,0
DA:78,0
DA:79,0
DA:80,0
DA:81,0
DA:82,0
DA:83,0
DA:84,0
DA:85,0
DA:86,0
DA:87,0
DA:88,0
DA:89,0
DA:90,0
DA:96,0
DA:97,0
DA:98,0
DA:102,0
DA:103,0
DA:104,0
DA:108,0
DA:109,0
DA:110,0
DA:114,0
DA:115,0
DA:116,0
DA:120,0
DA:121,0
DA:122,0
DA:129,0
DA:130,0
DA:131,0
BRF:0
BRH:0
LF:48
LH:0
end_of_record
SF:/home/eastgate/Development/ecoPrimals/nestgate/code/crates/nestgate-core/src/config/canonical_primary/domains/storage_canonical/lifecycle.rs
FN:132,_RNvMs_NtNtNtNtNtCs2meEIT43k6D_13nestgate_core6config17canonical_primary7domains17storage_canonical9lifecycleNtB4_22StorageLifecycleConfig12cloud_native
FN:124,_RNvMs_NtNtNtNtNtCs2meEIT43k6D_13nestgate_core6config17canonical_primary7domains17storage_canonical9lifecycleNtB4_22StorageLifecycleConfig16high_performance
FN:108,_RNvMs_NtNtNtNtNtCs2meEIT43k6D_13nestgate_core6config17canonical_primary7domains17storage_canonical9lifecycleNtB4_22StorageLifecycleConfig20production_optimized
FN:116,_RNvMs_NtNtNtNtNtCs2meEIT43k6D_13nestgate_core6config17canonical_primary7domains17storage_canonical9lifecycleNtB4_22StorageLifecycleConfig21development_optimized
FN:138,_RNvMs_NtNtNtNtNtCs2meEIT43k6D_13nestgate_core6config17canonical_primary7domains17storage_canonical9lifecycleNtB4_22StorageLifecycleConfig5merge
FN:147,_RNvMs_NtNtNtNtNtCs2meEIT43k6D_13nestgate_core6config17canonical_primary7domains17storage_canonical9lifecycleNtB4_22StorageLifecycleConfig8validate
FN:83,_RNvXNtNtNtNtNtCs2meEIT43k6D_13nestgate_core6config17canonical_primary7domains17storage_canonical9lifecycleNtB2_22StorageLifecycleConfigNtNtCs5GmCzIpY9Qj_4core7default7Default7default
FNDA:0,_RNvMs_NtNtNtNtNtCs2meEIT43k6D_13nestgate_core6config17canonical_primary7domains17storage_canonical9lifecycleNtB4_22StorageLifecycleConfig12cloud_native
FNDA:0,_RNvMs_NtNtNtNtNtCs2meEIT43k6D_13nestgate_core6config17canonical_primary7domains17storage_canonical9lifecycleNtB4_22StorageLifecycleConfig16high_performance
FNDA:0,_RNvMs_NtNtNtNtNtCs2meEIT43k6D_13nestgate_core6config17canonical_primary7domains17storage_canonical9lifecycleNtB4_22StorageLifecycleConfig20production_optimized
FNDA:0,_RNvMs_NtNtNtNtNtCs2meEIT43k6D_13nestgate_core6config17canonical_primary7domains17storage_canonical9lifecycleNtB4_22StorageLifecycleConfig21development_optimized
FNDA:0,_RNvMs_NtNtNtNtNtCs2meEIT43k6D_13nestgate_core6config17canonical_primary7domains17storage_canonical9lifecycleNtB4_22StorageLifecycleConfig5merge
FNDA:0,_RNvMs_NtNtNtNtNtCs2meEIT43k6D_13nestgate_core6config17canonical_primary7domains17storage_canonical9lifecycleNtB4_22StorageLifecycleConfig8validate
FNDA:0,_RNvXNtNtNtNtNtCs2meEIT43k6D_13nestgate_core6config17canonical_primary7domains17storage_canonical9lifecycleNtB2_22StorageLifecycleConfigNtNtCs5GmCzIpY9Qj_4core7default7Default7default
FNF:7
FNH:0
DA:83,0
DA:84,0
DA:85,0
DA:86,0
DA:87,0
DA:88,0
DA:89,0
DA:90,0
DA:91,0
DA:92,0
DA:93,0
DA:94,0
DA:95,0
DA:96,0
DA:97,0
DA:98,0
DA:99,0
DA:100,0
DA:108,0
DA:109,0
DA:110,0
DA:116,0
DA:117,0
DA:118,0
DA:124,0
DA:125,0
DA:126,0
DA:132,0
DA:133,0
DA:134,0
DA:138,0
DA:139,0
DA:140,0
DA:147,0
DA:148,0
DA:149,0
BRF:0
BRH:0
LF:36
LH:0
end_of_record
SF:/home/eastgate/Development/ecoPrimals/nestgate/code/crates/nestgate-core/src/config/canonical_primary/domains/storage_canonical/mod.rs
FN:296,_RNvMNtNtNtNtCs2meEIT43k6D_13nestgate_core6config17canonical_primary7domains17storage_canonicalNtB2_22CanonicalStorageConfig11has_backend
FN:220,_RNvMNtNtNtNtCs2meEIT43k6D_13nestgate_core6config17canonical_primary7domains17storage_canonicalNtB2_22CanonicalStorageConfig12cloud_native
FN:204,_RNvMNtNtNtNtCs2meEIT43k6D_13nestgate_core6config17canonical_primary7domains17storage_canonicalNtB2_22CanonicalStorageConfig16high_performance
FN:283,_RNvMNtNtNtNtCs2meEIT43k6D_13nestgate_core6config17canonical_primary7domains17storage_canonicalNtB2_22CanonicalStorageConfig18get_total_capacity
FN:172,_RNvMNtNtNtNtCs2meEIT43k6D_13nestgate_core6config17canonical_primary7domains17storage_canonicalNtB2_22CanonicalStorageConfig20production_optimized
FN:188,_RNvMNtNtNtNtCs2meEIT43k6D_13nestgate_core6config17canonical_primary7domains17storage_canonicalNtB2_22CanonicalStorageConfig21development_optimized
FN:290,_RNvMNtNtNtNtCs2meEIT43k6D_13nestgate_core6config17canonical_primary7domains17storage_canonicalNtB2_22CanonicalStorageConfig22get_available_backends
FN:166,_RNvMNtNtNtNtCs2meEIT43k6D_13nestgate_core6config17canonical_primary7domains17storage_canonicalNtB2_22CanonicalStorageConfig3new
FN:236,_RNvMNtNtNtNtCs2meEIT43k6D_13nestgate_core6config17canonical_primary7domains17storage_canonicalNtB2_22CanonicalStorageConfig5merge
FN:250,_RNvMNtNtNtNtCs2meEIT43k6D_13nestgate_core6config17canonical_primary7domains17storage_canonicalNtB2_22CanonicalStorageConfig8validate
FNDA:0,_RNvMNtNtNtNtCs2meEIT43k6D_13nestgate_core6config17canonical_primary7domains17storage_canonicalNtB2_22CanonicalStorageConfig11has_backend
FNDA:0,_RNvMNtNtNtNtCs2meEIT43k6D_13nestgate_core6config17canonical_primary7domains17storage_canonicalNtB2_22CanonicalStorageConfig12cloud_native
FNDA:0,_RNvMNtNtNtNtCs2meEIT43k6D_13nestgate_core6config17canonical_primary7domains17storage_canonicalNtB2_22CanonicalStorageConfig16high_performance
FNDA:0,_RNvMNtNtNtNtCs2meEIT43k6D_13nestgate_core6config17canonical_primary7domains17storage_canonicalNtB2_22CanonicalStorageConfig18get_total_capacity
FNDA:0,_RNvMNtNtNtNtCs2meEIT43k6D_13nestgate_core6config17canonical_primary7domains17storage_canonicalNtB2_22CanonicalStorageConfig20production_optimized
FNDA:0,_RNvMNtNtNtNtCs2meEIT43k6D_13nestgate_core6config17canonical_primary7domains17storage_canonicalNtB2_22CanonicalStorageConfig21development_optimized
FNDA:0,_RNvMNtNtNtNtCs2meEIT43k6D_13nestgate_core6config17canonical_primary7domains17storage_canonicalNtB2_22CanonicalStorageConfig22get_available_backends
FNDA:0,_RNvMNtNtNtNtCs2meEIT43k6D_13nestgate_core6config17canonical_primary7domains17storage_canonicalNtB2_22CanonicalStorageConfig3new
FNDA:0,_RNvMNtNtNtNtCs2meEIT43k6D_13nestgate_core6config17canonical_primary7domains17storage_canonicalNtB2_22CanonicalStorageConfig5merge
FNDA:0,_RNvMNtNtNtNtCs2meEIT43k6D_13nestgate_core6config17canonical_primary7domains17storage_canonicalNtB2_22CanonicalStorageConfig8validate
FNF:10
FNH:0
DA:166,0
DA:167,0
DA:168,0
DA:172,0
DA:173,0
DA:174,0
DA:175,0
DA:176,0
DA:177,0
DA:178,0
DA:179,0
DA:180,0
DA:181,0
DA:182,0
DA:183,0
DA:184,0
DA:188,0
DA:189,0
DA:190,0
DA:191,0
DA:192,0
DA:193,0
DA:194,0
DA:195,0
DA:196,0
DA:197,0
DA:198,0
DA:199,0
DA:200,0
DA:204,0
DA:205,0
DA:206,0
DA:207,0
DA:208,0
DA:209,0
DA:210,0
DA:211,0
DA:212,0
DA:213,0
DA:214,0
DA:215,0
DA:216,0
DA:220,0
DA:221,0
DA:222,0
DA:223,0
DA:224,0
DA:225,0
DA:226,0
DA:227,0
DA:228,0
DA:229,0
DA:230,0
DA:231,0
DA:232,0
DA:236,0
DA:237,0
DA:238,0
DA:239,0
DA:240,0
DA:241,0
DA:242,0
DA:243,0
DA:244,0
DA:245,0
DA:246,0
DA:247,0
DA:250,0
DA:252,0
DA:255,0
DA:258,0
DA:261,0
DA:264,0
DA:267,0
DA:270,0
DA:273,0
DA:276,0
DA:278,0
DA:279,0
DA:283,0
DA:285,0
DA:286,0
DA:290,0
DA:291,0
DA:292,0
DA:296,0
DA:297,0
DA:298,0
BRF:0
BRH:0
LF:88
LH:0
end_of_record
SF:/home/eastgate/Development/ecoPrimals/nestgate/code/crates/nestgate-core/src/config/canonical_primary/domains/storage_canonical/monitoring.rs
FN:116,_RNvMs_NtNtNtNtNtCs2meEIT43k6D_13nestgate_core6config17canonical_primary7domains17storage_canonical10monitoringNtB4_23StorageMonitoringConfig12cloud_native
FN:108,_RNvMs_NtNtNtNtNtCs2meEIT43k6D_13nestgate_core6config17canonical_primary7domains17storage_canonical10monitoringNtB4_23StorageMonitoringConfig16high_performance
FN:92,_RNvMs_NtNtNtNtNtCs2meEIT43k6D_13nestgate_core6config17canonical_primary7domains17storage_canonical10monitoringNtB4_23StorageMonitoringConfig20production_optimized
FN:100,_RNvMs_NtNtNtNtNtCs2meEIT43k6D_13nestgate_core6config17canonical_primary7domains17storage_canonical10monitoringNtB4_23StorageMonitoringConfig21development_optimized
FN:122,_RNvMs_NtNtNtNtNtCs2meEIT43k6D_13nestgate_core6config17canonical_primary7domains17storage_canonical10monitoringNtB4_23StorageMonitoringConfig5merge
FN:131,_RNvMs_NtNtNtNtNtCs2meEIT43k6D_13nestgate_core6config17canonical_primary7domains17storage_canonical10monitoringNtB4_23StorageMonitoringConfig8validate
FN:76,_RNvXNtNtNtNtNtCs2meEIT43k6D_13nestgate_core6config17canonical_primary7domains17storage_canonical10monitoringNtB2_23StorageMonitoringConfigNtNtCs5GmCzIpY9Qj_4core7default7Default7default
FNDA:0,_RNvMs_NtNtNtNtNtCs2meEIT43k6D_13nestgate_core6config17canonical_primary7domains17storage_canonical10monitoringNtB4_23StorageMonitoringConfig12cloud_native
FNDA:0,_RNvMs_NtNtNtNtNtCs2meEIT43k6D_13nestgate_core6config17canonical_primary7domains17storage_canonical10monitoringNtB4_23StorageMonitoringConfig16high_performance
FNDA:0,_RNvMs_NtNtNtNtNtCs2meEIT43k6D_13nestgate_core6config17canonical_primary7domains17storage_canonical10monitoringNtB4_23StorageMonitoringConfig20production_optimized
FNDA:0,_RNvMs_NtNtNtNtNtCs2meEIT43k6D_13nestgate_core6config17canonical_primary7domains17storage_canonical10monitoringNtB4_23StorageMonitoringConfig21development_optimized
FNDA:0,_RNvMs_NtNtNtNtNtCs2meEIT43k6D_13nestgate_core6config17canonical_primary7domains17storage_canonical10monitoringNtB4_23StorageMonitoringConfig5merge
FNDA:0,_RNvMs_NtNtNtNtNtCs2meEIT43k6D_13nestgate_core6config17canonical_primary7domains17storage_canonical10monitoringNtB4_23StorageMonitoringConfig8validate
FNDA:0,_RNvXNtNtNtNtNtCs2meEIT43k6D_13nestgate_core6config17canonical_primary7domains17storage_canonical10monitoringNtB2_23StorageMonitoringConfigNtNtCs5GmCzIpY9Qj_4core7default7Default7default
FNF:7
FNH:0
DA:76,0
DA:77,0
DA:78,0
DA:79,0
DA:80,0
DA:81,0
DA:82,0
DA:83,0
DA:84,0
DA:92,0
DA:93,0
DA:94,0
DA:100,0
DA:101,0
DA:102,0
DA:108,0
DA:109,0
DA:110,0
DA:116,0
DA:117,0
DA:118,0
DA:122,0
DA:123,0
DA:124,0
DA:131,0
DA:132,0
DA:133,0
BRF:0
BRH:0
LF:27
LH:0
end_of_record
SF:/home/eastgate/Development/ecoPrimals/nestgate/code/crates/nestgate-core/src/config/canonical_primary/domains/storage_canonical/performance.rs
FN:121,_RNvMs_NtNtNtNtNtCs2meEIT43k6D_13nestgate_core6config17canonical_primary7domains17storage_canonical11performanceNtB4_24StoragePerformanceConfig12cloud_native
FN:113,_RNvMs_NtNtNtNtNtCs2meEIT43k6D_13nestgate_core6config17canonical_primary7domains17storage_canonical11performanceNtB4_24StoragePerformanceConfig16high_performance
FN:97,_RNvMs_NtNtNtNtNtCs2meEIT43k6D_13nestgate_core6config17canonical_primary7domains17storage_canonical11performanceNtB4_24StoragePerformanceConfig20production_optimized
FN:105,_RNvMs_NtNtNtNtNtCs2meEIT43k6D_13nestgate_core6config17canonical_primary7domains17storage_canonical11performanceNtB4_24StoragePerformanceConfig21development_optimized
FN:127,_RNvMs_NtNtNtNtNtCs2meEIT43k6D_13nestgate_core6config17canonical_primary7domains17storage_canonical11performanceNtB4_24StoragePerformanceConfig5merge
FN:136,_RNvMs_NtNtNtNtNtCs2meEIT43k6D_13nestgate_core6config17canonical_primary7domains17storage_canonical11performanceNtB4_24StoragePerformanceConfig8validate
FN:78,_RNvXNtNtNtNtNtCs2meEIT43k6D_13nestgate_core6config17canonical_primary7domains17storage_canonical11performanceNtB2_24StoragePerformanceConfigNtNtCs5GmCzIpY9Qj_4core7default7Default7default
FNDA:0,_RNvMs_NtNtNtNtNtCs2meEIT43k6D_13nestgate_core6config17canonical_primary7domains17storage_canonical11performanceNtB4_24StoragePerformanceConfig12cloud_native
FNDA:0,_RNvMs_NtNtNtNtNtCs2meEIT43k6D_13nestgate_core6config17canonical_primary7domains17storage_canonical11performanceNtB4_24StoragePerformanceConfig16high_performance
FNDA:0,_RNvMs_NtNtNtNtNtCs2meEIT43k6D_13nestgate_core6config17canonical_primary7domains17storage_canonical11performanceNtB4_24StoragePerformanceConfig20production_optimized
FNDA:0,_RNvMs_NtNtNtNtNtCs2meEIT43k6D_13nestgate_core6config17canonical_primary7domains17storage_canonical11performanceNtB4_24StoragePerformanceConfig21development_optimized
FNDA:0,_RNvMs_NtNtNtNtNtCs2meEIT43k6D_13nestgate_core6config17canonical_primary7domains17storage_canonical11performanceNtB4_24StoragePerformanceConfig5merge
FNDA:0,_RNvMs_NtNtNtNtNtCs2meEIT43k6D_13nestgate_core6config17canonical_primary7domains17storage_canonical11performanceNtB4_24StoragePerformanceConfig8validate
FNDA:0,_RNvXNtNtNtNtNtCs2meEIT43k6D_13nestgate_core6config17canonical_primary7domains17storage_canonical11performanceNtB2_24StoragePerformanceConfigNtNtCs5GmCzIpY9Qj_4core7default7Default7default
FNF:7
FNH:0
DA:78,0
DA:79,0
DA:80,0
DA:81,0
DA:82,0
DA:83,0
DA:84,0
DA:85,0
DA:86,0
DA:87,0
DA:88,0
DA:89,0
DA:97,0
DA:98,0
DA:99,0
DA:105,0
DA:106,0
DA:107,0
DA:113,0
DA:114,0
DA:115,0
DA:121,0
DA:122,0
DA:123,0
DA:127,0
DA:128,0
DA:129,0
DA:136,0
DA:137,0
DA:138,0
BRF:0
BRH:0
LF:30
LH:0
end_of_record
SF:/home/eastgate/Development/ecoPrimals/nestgate/code/crates/nestgate-core/src/config/canonical_primary/domains/storage_canonical/replication.rs
FN:147,_RNvMs_NtNtNtNtNtCs2meEIT43k6D_13nestgate_core6config17canonical_primary7domains17storage_canonical11replicationNtB4_24StorageReplicationConfig12cloud_native
FN:139,_RNvMs_NtNtNtNtNtCs2meEIT43k6D_13nestgate_core6config17canonical_primary7domains17storage_canonical11replicationNtB4_24StorageReplicationConfig16high_performance
FN:123,_RNvMs_NtNtNtNtNtCs2meEIT43k6D_13nestgate_core6config17canonical_primary7domains17storage_canonical11replicationNtB4_24StorageReplicationConfig20production_optimized
FN:131,_RNvMs_NtNtNtNtNtCs2meEIT43k6D_13nestgate_core6config17canonical_primary7domains17storage_canonical11replicationNtB4_24StorageReplicationConfig21development_optimized
FN:153,_RNvMs_NtNtNtNtNtCs2meEIT43k6D_13nestgate_core6config17canonical_primary7domains17storage_canonical11replicationNtB4_24StorageReplicationConfig5merge
FN:162,_RNvMs_NtNtNtNtNtCs2meEIT43k6D_13nestgate_core6config17canonical_primary7domains17storage_canonical11replicationNtB4_24StorageReplicationConfig8validate
FN:100,_RNvXNtNtNtNtNtCs2meEIT43k6D_13nestgate_core6config17canonical_primary7domains17storage_canonical11replicationNtB2_24StorageReplicationConfigNtNtCs5GmCzIpY9Qj_4core7default7Default7default
FNDA:0,_RNvMs_NtNtNtNtNtCs2meEIT43k6D_13nestgate_core6config17canonical_primary7domains17storage_canonical11replicationNtB4_24StorageReplicationConfig12cloud_native
FNDA:0,_RNvMs_NtNtNtNtNtCs2meEIT43k6D_13nestgate_core6config17canonical_primary7domains17storage_canonical11replicationNtB4_24StorageReplicationConfig16high_performance
FNDA:0,_RNvMs_NtNtNtNtNtCs2meEIT43k6D_13nestgate_core6config17canonical_primary7domains17storage_canonical11replicationNtB4_24StorageReplicationConfig20production_optimized
FNDA:0,_RNvMs_NtNtNtNtNtCs2meEIT43k6D_13nestgate_core6config17canonical_primary7domains17storage_canonical11replicationNtB4_24StorageReplicationConfig21development_optimized
FNDA:0,_RNvMs_NtNtNtNtNtCs2meEIT43k6D_13nestgate_core6config17canonical_primary7domains17storage_canonical11replicationNtB4_24StorageReplicationConfig5merge
FNDA:0,_RNvMs_NtNtNtNtNtCs2meEIT43k6D_13nestgate_core6config17canonical_primary7domains17storage_canonical11replicationNtB4_24StorageReplicationConfig8validate
FNDA:0,_RNvXNtNtNtNtNtCs2meEIT43k6D_13nestgate_core6config17canonical_primary7domains17storage_canonical11replicationNtB2_24StorageReplicationConfigNtNtCs5GmCzIpY9Qj_4core7default7Default7default
FNF:7
FNH:0
DA:100,0
DA:101,0
DA:102,0
DA:103,0
DA:104,0
DA:105,0
DA:106,0
DA:107,0
DA:108,0
DA:109,0
DA:110,0
DA:111,0
DA:112,0
DA:113,0
DA:114,0
DA:115,0
DA:123,0
DA:124,0
DA:125,0
DA:131,0
DA:132,0
DA:133,0
DA:139,0
DA:140,0
DA:141,0
DA:147,0
DA:148,0
DA:149,0
DA:153,0
DA:154,0
DA:155,0
DA:162,0
DA:163,0
DA:164,0
BRF:0
BRH:0
LF:34
LH:0
end_of_record
SF:/home/eastgate/Development/ecoPrimals/nestgate/code/crates/nestgate-core/src/config/canonical_primary/domains/storage_canonical/zfs.rs
FN:413,_RNvMs6_NtNtNtNtNtCs2meEIT43k6D_13nestgate_core6config17canonical_primary7domains17storage_canonical3zfsNtB5_16ZfsStorageConfig12cloud_native
FN:408,_RNvMs6_NtNtNtNtNtCs2meEIT43k6D_13nestgate_core6config17canonical_primary7domains17storage_canonical3zfsNtB5_16ZfsStorageConfig16high_performance
FN:398,_RNvMs6_NtNtNtNtNtCs2meEIT43k6D_13nestgate_core6config17canonical_primary7domains17storage_canonical3zfsNtB5_16ZfsStorageConfig20production_optimized
FN:403,_RNvMs6_NtNtNtNtNtCs2meEIT43k6D_13nestgate_core6config17canonical_primary7domains17storage_canonical3zfsNtB5_16ZfsStorageConfig21development_optimized
FN:418,_RNvMs6_NtNtNtNtNtCs2meEIT43k6D_13nestgate_core6config17canonical_primary7domains17storage_canonical3zfsNtB5_16ZfsStorageConfig5merge
FN:422,_RNvMs6_NtNtNtNtNtCs2meEIT43k6D_13nestgate_core6config17canonical_primary7domains17storage_canonical3zfsNtB5_16ZfsStorageConfig8validate
FN:296,_RNvXNtNtNtNtNtCs2meEIT43k6D_13nestgate_core6config17canonical_primary7domains17storage_canonical3zfsNtB2_13ZfsPoolConfigNtNtCs5GmCzIpY9Qj_4core7default7Default7default
FN:325,_RNvXs0_NtNtNtNtNtCs2meEIT43k6D_13nestgate_core6config17canonical_primary7domains17storage_canonical3zfsNtB5_15RetentionPolicyNtNtCs5GmCzIpY9Qj_4core7default7Default7default
FN:337,_RNvXs1_NtNtNtNtNtCs2meEIT43k6D_13nestgate_core6config17canonical_primary7domains17storage_canonical3zfsNtB5_17ZfsSnapshotConfigNtNtCs5GmCzIpY9Qj_4core7default7Default7default
FN:351,_RNvXs2_NtNtNtNtNtCs2meEIT43k6D_13nestgate_core6config17canonical_primary7domains17storage_canonical3zfsNtB5_20ZfsMaintenanceConfigNtNtCs5GmCzIpY9Qj_4core7default7Default7default
FN:361,_RNvXs3_NtNtNtNtNtCs2meEIT43k6D_13nestgate_core6config17canonical_primary7domains17storage_canonical3zfsNtB5_14ArcCacheConfigNtNtCs5GmCzIpY9Qj_4core7default7Default7default
FN:372,_RNvXs4_NtNtNtNtNtCs2meEIT43k6D_13nestgate_core6config17canonical_primary7domains17storage_canonical3zfsNtB5_15AlertThresholdsNtNtCs5GmCzIpY9Qj_4core7default7Default7default
FN:383,_RNvXs5_NtNtNtNtNtCs2meEIT43k6D_13nestgate_core6config17canonical_primary7domains17storage_canonical3zfsNtB5_20ZfsPerformanceConfigNtNtCs5GmCzIpY9Qj_4core7default7Default7default
FN:311,_RNvXs_NtNtNtNtNtCs2meEIT43k6D_13nestgate_core6config17canonical_primary7domains17storage_canonical3zfsNtB4_16ZfsDatasetConfigNtNtCs5GmCzIpY9Qj_4core7default7Default7default
FNDA:0,_RNvMs6_NtNtNtNtNtCs2meEIT43k6D_13nestgate_core6config17canonical_primary7domains17storage_canonical3zfsNtB5_16ZfsStorageConfig12cloud_native
FNDA:0,_RNvMs6_NtNtNtNtNtCs2meEIT43k6D_13nestgate_core6config17canonical_primary7domains17storage_canonical3zfsNtB5_16ZfsStorageConfig16high_performance
FNDA:0,_RNvMs6_NtNtNtNtNtCs2meEIT43k6D_13nestgate_core6config17canonical_primary7domains17storage_canonical3zfsNtB5_16ZfsStorageConfig20production_optimized
FNDA:0,_RNvMs6_NtNtNtNtNtCs2meEIT43k6D_13nestgate_core6config17canonical_primary7domains17storage_canonical3zfsNtB5_16ZfsStorageConfig21development_optimized
FNDA:0,_RNvMs6_NtNtNtNtNtCs2meEIT43k6D_13nestgate_core6config17canonical_primary7domains17storage_canonical3zfsNtB5_16ZfsStorageConfig5merge
FNDA:0,_RNvMs6_NtNtNtNtNtCs2meEIT43k6D_13nestgate_core6config17canonical_primary7domains17storage_canonical3zfsNtB5_16ZfsStorageConfig8validate
FNDA:0,_RNvXNtNtNtNtNtCs2meEIT43k6D_13nestgate_core6config17canonical_primary7domains17storage_canonical3zfsNtB2_13ZfsPoolConfigNtNtCs5GmCzIpY9Qj_4core7default7Default7default
FNDA:0,_RNvXs0_NtNtNtNtNtCs2meEIT43k6D_13nestgate_core6config17canonical_primary7domains17storage_canonical3zfsNtB5_15RetentionPolicyNtNtCs5GmCzIpY9Qj_4core7default7Default7default
FNDA:0,_RNvXs1_NtNtNtNtNtCs2meEIT43k6D_13nestgate_core6config17canonical_primary7domains17storage_canonical3zfsNtB5_17ZfsSnapshotConfigNtNtCs5GmCzIpY9Qj_4core7default7Default7default
FNDA:0,_RNvXs2_NtNtNtNtNtCs2meEIT43k6D_13nestgate_core6config17canonical_primary7domains17storage_canonical3zfsNtB5_20ZfsMaintenanceConfigNtNtCs5GmCzIpY9Qj_4core7default7Default7default
FNDA:0,_RNvXs3_NtNtNtNtNtCs2meEIT43k6D_13nestgate_core6config17canonical_primary7domains17storage_canonical3zfsNtB5_14ArcCacheConfigNtNtCs5GmCzIpY9Qj_4core7default7Default7default
FNDA:0,_RNvXs4_NtNtNtNtNtCs2meEIT43k6D_13nestgate_core6config17canonical_primary7domains17storage_canonical3zfsNtB5_15AlertThresholdsNtNtCs5GmCzIpY9Qj_4core7default7Default7default
FNDA:0,_RNvXs5_NtNtNtNtNtCs2meEIT43k6D_13nestgate_core6config17canonical_primary7domains17storage_canonical3zfsNtB5_20ZfsPerformanceConfigNtNtCs5GmCzIpY9Qj_4core7default7Default7default
FNDA:0,_RNvXs_NtNtNtNtNtCs2meEIT43k6D_13nestgate_core6config17canonical_primary7domains17storage_canonical3zfsNtB4_16ZfsDatasetConfigNtNtCs5GmCzIpY9Qj_4core7default7Default7default
FNF:14
FNH:0
DA:296,0
DA:297,0
DA:298,0
DA:299,0
DA:300,0
DA:301,0
DA:302,0
DA:303,0
DA:304,0
DA:305,0
DA:306,0
DA:311,0
DA:312,0
DA:313,0
DA:314,0
DA:315,0
DA:316,0
DA:317,0
DA:318,0
DA:319,0
DA:320,0
DA:325,0
DA:326,0
DA:327,0
DA:328,0
DA:329,0
DA:330,0
DA:331,0
DA:332,0
DA:337,0
DA:338,0
DA:339,0
DA:340,0
DA:341,0
DA:342,0
DA:343,0
DA:344,0
DA:345,0
DA:346,0
DA:351,0
DA:352,0
DA:353,0
DA:354,0
DA:355,0
DA:356,0
DA:361,0
DA:362,0
DA:363,0
DA:364,0
DA:365,0
DA:366,0
DA:367,0
DA:372,0
DA:373,0
DA:374,0
DA:375,0
DA:376,0
DA:377,0
DA:378,0
DA:383,0
DA:384,0
DA:385,0
DA:386,0
DA:387,0
DA:388,0
DA:389,0
DA:390,0
DA:391,0
DA:392,0
DA:398,0
DA:399,0
DA:400,0
DA:403,0
DA:404,0
DA:405,0
DA:408,0
DA:409,0
DA:410,0
DA:413,0
DA:414,0
DA:415,0
DA:418,0
DA:419,0
DA:420,0
DA:422,0
DA:423,0
DA:424,0
BRF:0
BRH:0
LF:87
LH:0
end_of_record
SF:/home/eastgate/Development/ecoPrimals/nestgate/code/crates/nestgate-core/src/config/canonical_primary/memory.rs
FN:31,_RNvXNtNtNtCs2meEIT43k6D_13nestgate_core6config17canonical_primary6memoryNtB2_12MemoryConfigNtNtCs5GmCzIpY9Qj_4core7default7Default7default
FN:114,_RNvXs0_NtNtNtCs2meEIT43k6D_13nestgate_core6config17canonical_primary6memoryNtB5_12MemoryLimitsNtNtCs5GmCzIpY9Qj_4core7default7Default7default
FN:143,_RNvXs1_NtNtNtCs2meEIT43k6D_13nestgate_core6config17canonical_primary6memoryNtB5_23GarbageCollectionConfigNtNtCs5GmCzIpY9Qj_4core7default7Default7default
FN:171,_RNvXs2_NtNtNtCs2meEIT43k6D_13nestgate_core6config17canonical_primary6memoryNtB5_22MemoryMonitoringConfigNtNtCs5GmCzIpY9Qj_4core7default7Default7default
FN:63,_RNvXs_NtNtNtCs2meEIT43k6D_13nestgate_core6config17canonical_primary6memoryNtB4_16MemoryPoolConfigNtNtCs5GmCzIpY9Qj_4core7default7Default7default
FNDA:0,_RNvXNtNtNtCs2meEIT43k6D_13nestgate_core6config17canonical_primary6memoryNtB2_12MemoryConfigNtNtCs5GmCzIpY9Qj_4core7default7Default7default
FNDA:0,_RNvXs0_NtNtNtCs2meEIT43k6D_13nestgate_core6config17canonical_primary6memoryNtB5_12MemoryLimitsNtNtCs5GmCzIpY9Qj_4core7default7Default7default
FNDA:0,_RNvXs1_NtNtNtCs2meEIT43k6D_13nestgate_core6config17canonical_primary6memoryNtB5_23GarbageCollectionConfigNtNtCs5GmCzIpY9Qj_4core7default7Default7default
FNDA:0,_RNvXs2_NtNtNtCs2meEIT43k6D_13nestgate_core6config17canonical_primary6memoryNtB5_22MemoryMonitoringConfigNtNtCs5GmCzIpY9Qj_4core7default7Default7default
FNDA:0,_RNvXs_NtNtNtCs2meEIT43k6D_13nestgate_core6config17canonical_primary6memoryNtB4_16MemoryPoolConfigNtNtCs5GmCzIpY9Qj_4core7default7Default7default
FNF:5
FNH:0
DA:31,0
DA:32,0
DA:33,0
DA:34,0
DA:35,0
DA:36,0
DA:37,0
DA:38,0
DA:39,0
DA:40,0
DA:63,0
DA:64,0
DA:65,0
DA:66,0
DA:67,0
DA:68,0
DA:69,0
DA:70,0
DA:71,0
DA:114,0
DA:115,0
DA:116,0
DA:117,0
DA:118,0
DA:119,0
DA:120,0
DA:121,0
DA:122,0
DA:143,0
DA:144,0
DA:145,0
DA:146,0
DA:147,0
DA:148,0
DA:149,0
DA:150,0
DA:171,0
DA:172,0
DA:173,0
DA:174,0
DA:175,0
DA:176,0
DA:177,0
DA:178,0
BRF:0
BRH:0
LF:44
LH:0
end_of_record
SF:/home/eastgate/Development/ecoPrimals/nestgate/code/crates/nestgate-core/src/config/canonical_primary/migration_framework.rs
FN:664,_RNCNvMs0_NtNtNtCs2meEIT43k6D_13nestgate_core6config17canonical_primary19migration_frameworkNtB7_15MigrationReport13is_successful0Bd_
FN:669,_RNvMs0_NtNtNtCs2meEIT43k6D_13nestgate_core6config17canonical_primary19migration_frameworkNtB5_15MigrationReport11get_summary
FN:659,_RNvMs0_NtNtNtCs2meEIT43k6D_13nestgate_core6config17canonical_primary19migration_frameworkNtB5_15MigrationReport13is_successful
FN:764,_RNvMs1_NtNtNtCs2meEIT43k6D_13nestgate_core6config17canonical_primary19migration_frameworkNtB5_19SafeConfigMigration18validate_migration
FN:808,_RNvMs1_NtNtNtCs2meEIT43k6D_13nestgate_core6config17canonical_primary19migration_frameworkNtB5_19SafeConfigMigration20validatevalue_ranges
FN:802,_RNvMs1_NtNtNtCs2meEIT43k6D_13nestgate_core6config17canonical_primary19migration_frameworkNtB5_19SafeConfigMigration24validate_required_fields
FN:695,_RNvMs1_NtNtNtCs2meEIT43k6D_13nestgate_core6config17canonical_primary19migration_frameworkNtB5_19SafeConfigMigration3new
FN:741,_RNvMs1_NtNtNtCs2meEIT43k6D_13nestgate_core6config17canonical_primary19migration_frameworkNtB5_19SafeConfigMigration8rollback
FN:498,_RNvMs_NtNtNtCs2meEIT43k6D_13nestgate_core6config17canonical_primary19migration_frameworkNtB4_14ConfigMigrator11add_warning
FN:477,_RNvMs_NtNtNtCs2meEIT43k6D_13nestgate_core6config17canonical_primary19migration_frameworkNtB4_14ConfigMigrator12update_phase
FN:515,_RNvMs_NtNtNtCs2meEIT43k6D_13nestgate_core6config17canonical_primary19migration_frameworkNtB4_14ConfigMigrator13create_backup
FN:537,_RNvMs_NtNtNtCs2meEIT43k6D_13nestgate_core6config17canonical_primary19migration_frameworkNtB4_14ConfigMigrator14analyze_source
FN:597,_RNvMs_NtNtNtCs2meEIT43k6D_13nestgate_core6config17canonical_primary19migration_frameworkNtB4_14ConfigMigrator15get_backup_path
FN:508,_RNvMs_NtNtNtCs2meEIT43k6D_13nestgate_core6config17canonical_primary19migration_frameworkNtB4_14ConfigMigrator15validate_source
FN:558,_RNvMs_NtNtNtCs2meEIT43k6D_13nestgate_core6config17canonical_primary19migration_frameworkNtB4_14ConfigMigrator15validate_target
FN:590,_RNvMs_NtNtNtCs2meEIT43k6D_13nestgate_core6config17canonical_primary19migration_frameworkNtB4_14ConfigMigrator17dry_run_migration
FN:291,_RNvMs_NtNtNtCs2meEIT43k6D_13nestgate_core6config17canonical_primary19migration_frameworkNtB4_14ConfigMigrator17from_final_config
FN:551,_RNvMs_NtNtNtCs2meEIT43k6D_13nestgate_core6config17canonical_primary19migration_frameworkNtB4_14ConfigMigrator17perform_migration
FN:493,_RNvMs_NtNtNtCs2meEIT43k6D_13nestgate_core6config17canonical_primary19migration_frameworkNtB4_14ConfigMigrator18add_completed_step
FN:583,_RNvMs_NtNtNtCs2meEIT43k6D_13nestgate_core6config17canonical_primary19migration_frameworkNtB4_14ConfigMigrator18finalize_migration
FN:544,_RNvMs_NtNtNtCs2meEIT43k6D_13nestgate_core6config17canonical_primary19migration_frameworkNtB4_14ConfigMigrator18map_configurations
FN:463,_RNvMs_NtNtNtCs2meEIT43k6D_13nestgate_core6config17canonical_primary19migration_frameworkNtB4_14ConfigMigrator18migrate_api_config
FN:257,_RNvMs_NtNtNtCs2meEIT43k6D_13nestgate_core6config17canonical_primary19migration_frameworkNtB4_14ConfigMigrator19from_primary_config
FN:274,_RNvMs_NtNtNtCs2meEIT43k6D_13nestgate_core6config17canonical_primary19migration_frameworkNtB4_14ConfigMigrator19from_unified_config
FN:618,_RNvMs_NtNtNtCs2meEIT43k6D_13nestgate_core6config17canonical_primary19migration_frameworkNtB4_14ConfigMigrator19restore_from_backup
FN:372,_RNvMs_NtNtNtCs2meEIT43k6D_13nestgate_core6config17canonical_primary19migration_frameworkNtB4_14ConfigMigrator20get_migration_report
FN:442,_RNvMs_NtNtNtCs2meEIT43k6D_13nestgate_core6config17canonical_primary19migration_frameworkNtB4_14ConfigMigrator21migrate_system_config
FN:456,_RNvMs_NtNtNtCs2meEIT43k6D_13nestgate_core6config17canonical_primary19migration_frameworkNtB4_14ConfigMigrator22migrate_domain_configs
FN:470,_RNvMs_NtNtNtCs2meEIT43k6D_13nestgate_core6config17canonical_primary19migration_frameworkNtB4_14ConfigMigrator25migrate_automation_config
FN:429,_RNvMs_NtNtNtCs2meEIT43k6D_13nestgate_core6config17canonical_primary19migration_frameworkNtB4_14ConfigMigrator25migrate_from_final_config
FN:388,_RNvMs_NtNtNtCs2meEIT43k6D_13nestgate_core6config17canonical_primary19migration_frameworkNtB4_14ConfigMigrator27migrate_from_primary_config
FN:411,_RNvMs_NtNtNtCs2meEIT43k6D_13nestgate_core6config17canonical_primary19migration_frameworkNtB4_14ConfigMigrator27migrate_from_unified_config
FN:449,_RNvMs_NtNtNtCs2meEIT43k6D_13nestgate_core6config17canonical_primary19migration_frameworkNtB4_14ConfigMigrator27migrate_unified_base_config
FN:232,_RNvMs_NtNtNtCs2meEIT43k6D_13nestgate_core6config17canonical_primary19migration_frameworkNtB4_14ConfigMigrator3new
FN:305,_RNvMs_NtNtNtCs2meEIT43k6D_13nestgate_core6config17canonical_primary19migration_frameworkNtB4_14ConfigMigrator7migrate
FN:354,_RNvMs_NtNtNtCs2meEIT43k6D_13nestgate_core6config17canonical_primary19migration_frameworkNtB4_14ConfigMigrator8rollback
FN:503,_RNvMs_NtNtNtCs2meEIT43k6D_13nestgate_core6config17canonical_primary19migration_frameworkNtB4_14ConfigMigrator9add_error
FN:87,_RNvXNtNtNtCs2meEIT43k6D_13nestgate_core6config17canonical_primary19migration_frameworkNtB2_16MigrationOptionsNtNtCs5GmCzIpY9Qj_4core7default7Default7default
FN:816,_RNvXs2_NtNtNtCs2meEIT43k6D_13nestgate_core6config17canonical_primary19migration_frameworkNtB5_19SafeConfigMigrationNtNtCs5GmCzIpY9Qj_4core7default7Default7default
FN:721,_RINvMs1_NtNtNtCs2meEIT43k6D_13nestgate_core6config17canonical_primary19migration_frameworkNtB6_19SafeConfigMigration19migrate_with_backupppEBc_
FNDA:0,_RNCNvMs0_NtNtNtCs2meEIT43k6D_13nestgate_core6config17canonical_primary19migration_frameworkNtB7_15MigrationReport13is_successful0Bd_
FNDA:0,_RNvMs0_NtNtNtCs2meEIT43k6D_13nestgate_core6config17canonical_primary19migration_frameworkNtB5_15MigrationReport11get_summary
FNDA:0,_RNvMs0_NtNtNtCs2meEIT43k6D_13nestgate_core6config17canonical_primary19migration_frameworkNtB5_15MigrationReport13is_successful
FNDA:0,_RNvMs1_NtNtNtCs2meEIT43k6D_13nestgate_core6config17canonical_primary19migration_frameworkNtB5_19SafeConfigMigration18validate_migration
FNDA:0,_RNvMs1_NtNtNtCs2meEIT43k6D_13nestgate_core6config17canonical_primary19migration_frameworkNtB5_19SafeConfigMigration20validatevalue_ranges
FNDA:0,_RNvMs1_NtNtNtCs2meEIT43k6D_13nestgate_core6config17canonical_primary19migration_frameworkNtB5_19SafeConfigMigration24validate_required_fields
FNDA:0,_RNvMs1_NtNtNtCs2meEIT43k6D_13nestgate_core6config17canonical_primary19migration_frameworkNtB5_19SafeConfigMigration3new
FNDA:0,_RNvMs1_NtNtNtCs2meEIT43k6D_13nestgate_core6config17canonical_primary19migration_frameworkNtB5_19SafeConfigMigration8rollback
FNDA:0,_RNvMs_NtNtNtCs2meEIT43k6D_13nestgate_core6config17canonical_primary19migration_frameworkNtB4_14ConfigMigrator11add_warning
FNDA:0,_RNvMs_NtNtNtCs2meEIT43k6D_13nestgate_core6config17canonical_primary19migration_frameworkNtB4_14ConfigMigrator12update_phase
FNDA:0,_RNvMs_NtNtNtCs2meEIT43k6D_13nestgate_core6config17canonical_primary19migration_frameworkNtB4_14ConfigMigrator13create_backup
FNDA:0,_RNvMs_NtNtNtCs2meEIT43k6D_13nestgate_core6config17canonical_primary19migration_frameworkNtB4_14ConfigMigrator14analyze_source
FNDA:0,_RNvMs_NtNtNtCs2meEIT43k6D_13nestgate_core6config17canonical_primary19migration_frameworkNtB4_14ConfigMigrator15get_backup_path
FNDA:0,_RNvMs_NtNtNtCs2meEIT43k6D_13nestgate_core6config17canonical_primary19migration_frameworkNtB4_14ConfigMigrator15validate_source
FNDA:0,_RNvMs_NtNtNtCs2meEIT43k6D_13nestgate_core6config17canonical_primary19migration_frameworkNtB4_14ConfigMigrator15validate_target
FNDA:0,_RNvMs_NtNtNtCs2meEIT43k6D_13nestgate_core6config17canonical_primary19migration_frameworkNtB4_14ConfigMigrator17dry_run_migration
FNDA:0,_RNvMs_NtNtNtCs2meEIT43k6D_13nestgate_core6config17canonical_primary19migration_frameworkNtB4_14ConfigMigrator17from_final_config
FNDA:0,_RNvMs_NtNtNtCs2meEIT43k6D_13nestgate_core6config17canonical_primary19migration_frameworkNtB4_14ConfigMigrator17perform_migration
FNDA:0,_RNvMs_NtNtNtCs2meEIT43k6D_13nestgate_core6config17canonical_primary19migration_frameworkNtB4_14ConfigMigrator18add_completed_step
FNDA:0,_RNvMs_NtNtNtCs2meEIT43k6D_13nestgate_core6config17canonical_primary19migration_frameworkNtB4_14ConfigMigrator18finalize_migration
FNDA:0,_RNvMs_NtNtNtCs2meEIT43k6D_13nestgate_core6config17canonical_primary19migration_frameworkNtB4_14ConfigMigrator18map_configurations
FNDA:0,_RNvMs_NtNtNtCs2meEIT43k6D_13nestgate_core6config17canonical_primary19migration_frameworkNtB4_14ConfigMigrator18migrate_api_config
FNDA:0,_RNvMs_NtNtNtCs2meEIT43k6D_13nestgate_core6config17canonical_primary19migration_frameworkNtB4_14ConfigMigrator19from_primary_config
FNDA:0,_RNvMs_NtNtNtCs2meEIT43k6D_13nestgate_core6config17canonical_primary19migration_frameworkNtB4_14ConfigMigrator19from_unified_config
FNDA:0,_RNvMs_NtNtNtCs2meEIT43k6D_13nestgate_core6config17canonical_primary19migration_frameworkNtB4_14ConfigMigrator19restore_from_backup
FNDA:0,_RNvMs_NtNtNtCs2meEIT43k6D_13nestgate_core6config17canonical_primary19migration_frameworkNtB4_14ConfigMigrator20get_migration_report
FNDA:0,_RNvMs_NtNtNtCs2meEIT43k6D_13nestgate_core6config17canonical_primary19migration_frameworkNtB4_14ConfigMigrator21migrate_system_config
FNDA:0,_RNvMs_NtNtNtCs2meEIT43k6D_13nestgate_core6config17canonical_primary19migration_frameworkNtB4_14ConfigMigrator22migrate_domain_configs
FNDA:0,_RNvMs_NtNtNtCs2meEIT43k6D_13nestgate_core6config17canonical_primary19migration_frameworkNtB4_14ConfigMigrator25migrate_automation_config
FNDA:0,_RNvMs_NtNtNtCs2meEIT43k6D_13nestgate_core6config17canonical_primary19migration_frameworkNtB4_14ConfigMigrator25migrate_from_final_config
FNDA:0,_RNvMs_NtNtNtCs2meEIT43k6D_13nestgate_core6config17canonical_primary19migration_frameworkNtB4_14ConfigMigrator27migrate_from_primary_config
FNDA:0,_RNvMs_NtNtNtCs2meEIT43k6D_13nestgate_core6config17canonical_primary19migration_frameworkNtB4_14ConfigMigrator27migrate_from_unified_config
FNDA:0,_RNvMs_NtNtNtCs2meEIT43k6D_13nestgate_core6config17canonical_primary19migration_frameworkNtB4_14ConfigMigrator27migrate_unified_base_config
FNDA:0,_RNvMs_NtNtNtCs2meEIT43k6D_13nestgate_core6config17canonical_primary19migration_frameworkNtB4_14ConfigMigrator3new
FNDA:0,_RNvMs_NtNtNtCs2meEIT43k6D_13nestgate_core6config17canonical_primary19migration_frameworkNtB4_14ConfigMigrator7migrate
FNDA:0,_RNvMs_NtNtNtCs2meEIT43k6D_13nestgate_core6config17canonical_primary19migration_frameworkNtB4_14ConfigMigrator8rollback
FNDA:0,_RNvMs_NtNtNtCs2meEIT43k6D_13nestgate_core6config17canonical_primary19migration_frameworkNtB4_14ConfigMigrator9add_error
FNDA:0,_RNvXNtNtNtCs2meEIT43k6D_13nestgate_core6config17canonical_primary19migration_frameworkNtB2_16MigrationOptionsNtNtCs5GmCzIpY9Qj_4core7default7Default7default
FNDA:0,_RNvXs2_NtNtNtCs2meEIT43k6D_13nestgate_core6config17canonical_primary19migration_frameworkNtB5_19SafeConfigMigrationNtNtCs5GmCzIpY9Qj_4core7default7Default7default
FNDA:0,_RINvMs1_NtNtNtCs2meEIT43k6D_13nestgate_core6config17canonical_primary19migration_frameworkNtB6_19SafeConfigMigration19migrate_with_backupppEBc_
FNF:40
FNH:0
DA:87,0
DA:88,0
DA:89,0
DA:90,0
DA:91,0
DA:92,0
DA:93,0
DA:94,0
DA:95,0
DA:96,0
DA:232,0
DA:233,0
DA:234,0
DA:235,0
DA:236,0
DA:237,0
DA:238,0
DA:239,0
DA:240,0
DA:241,0
DA:242,0
DA:243,0
DA:244,0
DA:245,0
DA:246,0
DA:247,0
DA:257,0
DA:258,0
DA:259,0
DA:260,0
DA:261,0
DA:262,0
DA:263,0
DA:264,0
DA:274,0
DA:275,0
DA:276,0
DA:277,0
DA:278,0
DA:279,0
DA:280,0
DA:281,0
DA:291,0
DA:292,0
DA:293,0
DA:294,0
DA:295,0
DA:305,0
DA:306,0
DA:307,0
DA:308,0
DA:311,0
DA:312,0
DA:315,0
DA:316,0
DA:317,0
DA:318,0
DA:321,0
DA:322,0
DA:325,0
DA:326,0
DA:329,0
DA:330,0
DA:333,0
DA:334,0
DA:335,0
DA:336,0
DA:339,0
DA:340,0
DA:342,0
DA:343,0
DA:344,0
DA:354,0
DA:355,0
DA:357,0
DA:358,0
DA:360,0
DA:361,0
DA:362,0
DA:363,0
DA:364,0
DA:365,0
DA:366,0
DA:368,0
DA:372,0
DA:373,0
DA:374,0
DA:375,0
DA:376,0
DA:377,0
DA:378,0
DA:379,0
DA:380,0
DA:381,0
DA:382,0
DA:383,0
DA:388,0
DA:390,0
DA:393,0
DA:394,0
DA:395,0
DA:398,0
DA:399,0
DA:400,0
DA:403,0
DA:404,0
DA:405,0
DA:407,0
DA:408,0
DA:411,0
DA:413,0
DA:416,0
DA:417,0
DA:418,0
DA:421,0
DA:422,0
DA:423,0
DA:425,0
DA:426,0
DA:429,0
DA:431,0
DA:434,0
DA:435,0
DA:436,0
DA:438,0
DA:439,0
DA:442,0
DA:444,0
DA:445,0
DA:446,0
DA:449,0
DA:451,0
DA:452,0
DA:453,0
DA:456,0
DA:458,0
DA:459,0
DA:460,0
DA:463,0
DA:465,0
DA:466,0
DA:467,0
DA:470,0
DA:472,0
DA:473,0
DA:474,0
DA:477,0
DA:478,0
DA:479,0
DA:480,0
DA:481,0
DA:482,0
DA:483,0
DA:484,0
DA:485,0
DA:486,0
DA:487,0
DA:488,0
DA:490,0
DA:493,0
DA:494,0
DA:495,0
DA:498,0
DA:499,0
DA:500,0
DA:503,0
DA:504,0
DA:505,0
DA:508,0
DA:510,0
DA:511,0
DA:512,0
DA:515,0
DA:517,0
DA:519,0
DA:520,0
DA:521,0
DA:522,0
DA:523,0
DA:524,0
DA:525,0
DA:526,0
DA:527,0
DA:528,0
DA:529,0
DA:531,0
DA:532,0
DA:533,0
DA:534,0
DA:537,0
DA:539,0
DA:540,0
DA:541,0
DA:544,0
DA:546,0
DA:547,0
DA:548,0
DA:551,0
DA:553,0
DA:554,0
DA:555,0
DA:558,0
DA:560,0
DA:561,0
DA:562,0
DA:563,0
DA:564,0
DA:565,0
DA:566,0
DA:568,0
DA:569,0
DA:570,0
DA:571,0
DA:572,0
DA:573,0
DA:574,0
DA:575,0
DA:576,0
DA:577,0
DA:580,0
DA:583,0
DA:585,0
DA:586,0
DA:587,0
DA:590,0
DA:592,0
DA:593,0
DA:594,0
DA:597,0
DA:598,0
DA:599,0
DA:600,0
DA:601,0
DA:602,0
DA:603,0
DA:604,0
DA:605,0
DA:607,0
DA:608,0
DA:609,0
DA:610,0
DA:611,0
DA:612,0
DA:613,0
DA:615,0
DA:618,0
DA:620,0
DA:621,0
DA:659,0
DA:660,0
DA:661,0
DA:662,0
DA:663,0
DA:664,0
DA:665,0
DA:669,0
DA:670,0
DA:671,0
DA:675,0
DA:676,0
DA:677,0
DA:679,0
DA:695,0
DA:696,0
DA:697,0
DA:698,0
DA:699,0
DA:700,0
DA:701,0
DA:702,0
DA:703,0
DA:704,0
DA:705,0
DA:706,0
DA:707,0
DA:708,0
DA:709,0
DA:710,0
DA:711,0
DA:721,0
DA:722,0
DA:723,0
DA:724,0
DA:727,0
DA:730,0
DA:731,0
DA:741,0
DA:742,0
DA:744,0
DA:746,0
DA:747,0
DA:748,0
DA:749,0
DA:750,0
DA:751,0
DA:752,0
DA:754,0
DA:764,0
DA:765,0
DA:766,0
DA:769,0
DA:770,0
DA:771,0
DA:772,0
DA:773,0
DA:774,0
DA:775,0
DA:776,0
DA:777,0
DA:778,0
DA:779,0
DA:780,0
DA:781,0
DA:786,0
DA:787,0
DA:788,0
DA:789,0
DA:791,0
DA:793,0
DA:794,0
DA:795,0
DA:797,0
DA:799,0
DA:802,0
DA:804,0
DA:805,0
DA:808,0
DA:810,0
DA:811,0
DA:816,0
DA:817,0
DA:818,0
BRF:0
BRH:0
LF:333
LH:0
end_of_record
SF:/home/eastgate/Development/ecoPrimals/nestgate/code/crates/nestgate-core/src/config/canonical_primary/mod.rs
FN:238,_RNvMNtNtCs2meEIT43k6D_13nestgate_core6config17canonical_primaryNtB2_23NestGateCanonicalConfig8validateB6_
FN:309,_RNvXs_NtNtCs2meEIT43k6D_13nestgate_core6config17canonical_primaryNtB4_23NestGateCanonicalConfigNtNtCs5GmCzIpY9Qj_4core7default7Default7defaultB8_
FN:218,_RNvMNtNtCs2meEIT43k6D_13nestgate_core6config17canonical_primaryINtB2_23NestGateCanonicalConfigKpKpKpKpE14with_overridesB6_
FN:192,_RNvMNtNtCs2meEIT43k6D_13nestgate_core6config17canonical_primaryINtB2_23NestGateCanonicalConfigKpKpKpKpE16from_environmentB6_
FN:278,_RNvMNtNtCs2meEIT43k6D_13nestgate_core6config17canonical_primaryINtB2_23NestGateCanonicalConfigKpKpKpKpE24validate_for_environmentB6_
FNDA:0,_RNvMNtNtCs2meEIT43k6D_13nestgate_core6config17canonical_primaryNtB2_23NestGateCanonicalConfig8validateB6_
FNDA:0,_RNvXs_NtNtCs2meEIT43k6D_13nestgate_core6config17canonical_primaryNtB4_23NestGateCanonicalConfigNtNtCs5GmCzIpY9Qj_4core7default7Default7defaultB8_
FNDA:0,_RNvMNtNtCs2meEIT43k6D_13nestgate_core6config17canonical_primaryINtB2_23NestGateCanonicalConfigKpKpKpKpE14with_overridesB6_
FNDA:0,_RNvMNtNtCs2meEIT43k6D_13nestgate_core6config17canonical_primaryINtB2_23NestGateCanonicalConfigKpKpKpKpE16from_environmentB6_
FNDA:0,_RNvMNtNtCs2meEIT43k6D_13nestgate_core6config17canonical_primaryINtB2_23NestGateCanonicalConfigKpKpKpKpE24validate_for_environmentB6_
FNF:5
FNH:0
DA:192,0
DA:193,0
DA:196,0
DA:197,0
DA:198,0
DA:199,0
DA:200,0
DA:201,0
DA:203,0
DA:206,0
DA:207,0
DA:208,0
DA:209,0
DA:210,0
DA:211,0
DA:213,0
DA:214,0
DA:218,0
DA:220,0
DA:221,0
DA:222,0
DA:225,0
DA:227,0
DA:228,0
DA:229,0
DA:230,0
DA:231,0
DA:232,0
DA:234,0
DA:235,0
DA:238,0
DA:239,0
DA:242,0
DA:248,0
DA:249,0
DA:250,0
DA:251,0
DA:252,0
DA:253,0
DA:256,0
DA:257,0
DA:258,0
DA:263,0
DA:264,0
DA:265,0
DA:267,0
DA:271,0
DA:273,0
DA:274,0
DA:278,0
DA:279,0
DA:280,0
DA:281,0
DA:282,0
DA:283,0
DA:284,0
DA:285,0
DA:286,0
DA:287,0
DA:289,0
DA:290,0
DA:291,0
DA:292,0
DA:293,0
DA:294,0
DA:296,0
DA:297,0
DA:309,0
DA:310,0
DA:311,0
DA:312,0
DA:313,0
DA:314,0
DA:315,0
DA:316,0
DA:317,0
DA:318,0
DA:319,0
DA:320,0
DA:321,0
DA:322,0
DA:323,0
DA:324,0
DA:325,0
DA:326,0
DA:327,0
DA:328,0
DA:329,0
DA:330,0
DA:331,0
DA:332,0
BRF:0
BRH:0
LF:91
LH:0
end_of_record
SF:/home/eastgate/Development/ecoPrimals/nestgate/code/crates/nestgate-core/src/config/canonical_primary/performance_config.rs
FN:51,_RNvXs_NtNtNtCs2meEIT43k6D_13nestgate_core6config17canonical_primary18performance_configNtB4_24PerformanceTestingConfigNtNtCs5GmCzIpY9Qj_4core7default7Default7default
FN:38,_RNvXNtNtNtCs2meEIT43k6D_13nestgate_core6config17canonical_primary18performance_configNtB2_17PerformanceConfigNtNtCs5GmCzIpY9Qj_4core7default7Default7defaultB8_
FNDA:0,_RNvXs_NtNtNtCs2meEIT43k6D_13nestgate_core6config17canonical_primary18performance_configNtB4_24PerformanceTestingConfigNtNtCs5GmCzIpY9Qj_4core7default7Default7default
FNDA:0,_RNvXNtNtNtCs2meEIT43k6D_13nestgate_core6config17canonical_primary18performance_configNtB2_17PerformanceConfigNtNtCs5GmCzIpY9Qj_4core7default7Default7defaultB8_
FNF:2
FNH:0
DA:38,0
DA:39,0
DA:40,0
DA:41,0
DA:42,0
DA:43,0
DA:44,0
DA:45,0
DA:46,0
DA:51,0
DA:52,0
DA:53,0
DA:54,0
DA:55,0
DA:56,0
DA:57,0
BRF:0
BRH:0
LF:16
LH:0
end_of_record
SF:/home/eastgate/Development/ecoPrimals/nestgate/code/crates/nestgate-core/src/config/canonical_primary/phase2c_types.rs
FN:263,_RNvMs4_NtNtNtCs2meEIT43k6D_13nestgate_core6config17canonical_primary13phase2c_typesNtB5_12FeatureFlags10is_enabled
FN:275,_RNvMs4_NtNtNtCs2meEIT43k6D_13nestgate_core6config17canonical_primary13phase2c_typesNtB5_12FeatureFlags6enable
FN:289,_RNvMs4_NtNtNtCs2meEIT43k6D_13nestgate_core6config17canonical_primary13phase2c_typesNtB5_12FeatureFlags7disable
FN:356,_RNvMs5_NtNtNtCs2meEIT43k6D_13nestgate_core6config17canonical_primary13phase2c_typesNtB5_11Environment12default_port
FN:344,_RNvMs5_NtNtNtCs2meEIT43k6D_13nestgate_core6config17canonical_primary13phase2c_typesNtB5_11Environment18is_production_like
FN:350,_RNvMs5_NtNtNtCs2meEIT43k6D_13nestgate_core6config17canonical_primary13phase2c_typesNtB5_11Environment19is_development_like
FN:367,_RNvMs5_NtNtNtCs2meEIT43k6D_13nestgate_core6config17canonical_primary13phase2c_typesNtB5_11Environment20default_optimization
FN:33,_RNvXNtNtNtCs2meEIT43k6D_13nestgate_core6config17canonical_primary13phase2c_typesNtB2_11EnvironmentNtNtCs5GmCzIpY9Qj_4core7default7Default7default
FN:55,_RNvXs0_NtNtNtCs2meEIT43k6D_13nestgate_core6config17canonical_primary13phase2c_typesNtB5_11EnvironmentNtNtNtCs5GmCzIpY9Qj_4core3str6traits7FromStr8from_str
FN:156,_RNvXs1_NtNtNtCs2meEIT43k6D_13nestgate_core6config17canonical_primary13phase2c_typesNtB5_17OptimizationLevelNtNtCs5GmCzIpY9Qj_4core7default7Default7default
FN:186,_RNvXs2_NtNtNtCs2meEIT43k6D_13nestgate_core6config17canonical_primary13phase2c_typesNtB5_14ConfigMetadataNtNtCs5GmCzIpY9Qj_4core7default7Default7default
FN:248,_RNvXs3_NtNtNtCs2meEIT43k6D_13nestgate_core6config17canonical_primary13phase2c_typesNtB5_12FeatureFlagsNtNtCs5GmCzIpY9Qj_4core7default7Default7default
FN:40,_RNvXs_NtNtNtCs2meEIT43k6D_13nestgate_core6config17canonical_primary13phase2c_typesNtB4_11EnvironmentNtNtCs5GmCzIpY9Qj_4core3fmt7Display3fmt
FNDA:0,_RNvMs4_NtNtNtCs2meEIT43k6D_13nestgate_core6config17canonical_primary13phase2c_typesNtB5_12FeatureFlags10is_enabled
FNDA:0,_RNvMs4_NtNtNtCs2meEIT43k6D_13nestgate_core6config17canonical_primary13phase2c_typesNtB5_12FeatureFlags6enable
FNDA:0,_RNvMs4_NtNtNtCs2meEIT43k6D_13nestgate_core6config17canonical_primary13phase2c_typesNtB5_12FeatureFlags7disable
FNDA:0,_RNvMs5_NtNtNtCs2meEIT43k6D_13nestgate_core6config17canonical_primary13phase2c_typesNtB5_11Environment12default_port
FNDA:0,_RNvMs5_NtNtNtCs2meEIT43k6D_13nestgate_core6config17canonical_primary13phase2c_typesNtB5_11Environment18is_production_like
FNDA:0,_RNvMs5_NtNtNtCs2meEIT43k6D_13nestgate_core6config17canonical_primary13phase2c_typesNtB5_11Environment19is_development_like
FNDA:0,_RNvMs5_NtNtNtCs2meEIT43k6D_13nestgate_core6config17canonical_primary13phase2c_typesNtB5_11Environment20default_optimization
FNDA:0,_RNvXNtNtNtCs2meEIT43k6D_13nestgate_core6config17canonical_primary13phase2c_typesNtB2_11EnvironmentNtNtCs5GmCzIpY9Qj_4core7default7Default7default
FNDA:0,_RNvXs0_NtNtNtCs2meEIT43k6D_13nestgate_core6config17canonical_primary13phase2c_typesNtB5_11EnvironmentNtNtNtCs5GmCzIpY9Qj_4core3str6traits7FromStr8from_str
FNDA:0,_RNvXs1_NtNtNtCs2meEIT43k6D_13nestgate_core6config17canonical_primary13phase2c_typesNtB5_17OptimizationLevelNtNtCs5GmCzIpY9Qj_4core7default7Default7default
FNDA:0,_RNvXs2_NtNtNtCs2meEIT43k6D_13nestgate_core6config17canonical_primary13phase2c_typesNtB5_14ConfigMetadataNtNtCs5GmCzIpY9Qj_4core7default7Default7default
FNDA:0,_RNvXs3_NtNtNtCs2meEIT43k6D_13nestgate_core6config17canonical_primary13phase2c_typesNtB5_12FeatureFlagsNtNtCs5GmCzIpY9Qj_4core7default7Default7default
FNDA:0,_RNvXs_NtNtNtCs2meEIT43k6D_13nestgate_core6config17canonical_primary13phase2c_typesNtB4_11EnvironmentNtNtCs5GmCzIpY9Qj_4core3fmt7Display3fmt
FNF:13
FNH:0
DA:33,0
DA:34,0
DA:35,0
DA:40,0
DA:41,0
DA:42,0
DA:43,0
DA:44,0
DA:45,0
DA:47,0
DA:55,0
DA:56,0
DA:57,0
DA:58,0
DA:59,0
DA:60,0
DA:61,0
DA:63,0
DA:156,0
DA:157,0
DA:158,0
DA:186,0
DA:187,0
DA:188,0
DA:189,0
DA:190,0
DA:191,0
DA:192,0
DA:193,0
DA:194,0
DA:195,0
DA:248,0
DA:249,0
DA:250,0
DA:251,0
DA:252,0
DA:253,0
DA:254,0
DA:255,0
DA:256,0
DA:257,0
DA:263,0
DA:264,0
DA:265,0
DA:266,0
DA:267,0
DA:268,0
DA:269,0
DA:270,0
DA:272,0
DA:275,0
DA:276,0
DA:277,0
DA:278,0
DA:279,0
DA:280,0
DA:281,0
DA:282,0
DA:283,0
DA:284,0
DA:286,0
DA:289,0
DA:290,0
DA:291,0
DA:292,0
DA:293,0
DA:294,0
DA:295,0
DA:296,0
DA:297,0
DA:298,0
DA:300,0
DA:344,0
DA:345,0
DA:346,0
DA:350,0
DA:351,0
DA:352,0
DA:356,0
DA:357,0
DA:358,0
DA:359,0
DA:360,0
DA:361,0
DA:363,0
DA:367,0
DA:368,0
DA:369,0
DA:370,0
DA:371,0
DA:372,0
DA:374,0
BRF:0
BRH:0
LF:92
LH:0
end_of_record
SF:/home/eastgate/Development/ecoPrimals/nestgate/code/crates/nestgate-core/src/config/canonical_primary/retry.rs
FN:119,_RNvMs_NtNtNtCs2meEIT43k6D_13nestgate_core6config17canonical_primary5retryNtB4_11RetryConfig14high_frequency
FN:49,_RNvMs_NtNtNtCs2meEIT43k6D_13nestgate_core6config17canonical_primary5retryNtB4_11RetryConfig17delay_for_attempt
FN:133,_RNvMs_NtNtNtCs2meEIT43k6D_13nestgate_core6config17canonical_primary5retryNtB4_11RetryConfig19critical_operations
FN:77,_RNvMs_NtNtNtCs2meEIT43k6D_13nestgate_core6config17canonical_primary5retryNtB4_11RetryConfig4fast
FN:91,_RNvMs_NtNtNtCs2meEIT43k6D_13nestgate_core6config17canonical_primary5retryNtB4_11RetryConfig4slow
FN:105,_RNvMs_NtNtNtCs2meEIT43k6D_13nestgate_core6config17canonical_primary5retryNtB4_11RetryConfig6linear
FN:33,_RNvXNtNtNtCs2meEIT43k6D_13nestgate_core6config17canonical_primary5retryNtB2_11RetryConfigNtNtCs5GmCzIpY9Qj_4core7default7Default7default
FNDA:0,_RNvMs_NtNtNtCs2meEIT43k6D_13nestgate_core6config17canonical_primary5retryNtB4_11RetryConfig14high_frequency
FNDA:0,_RNvMs_NtNtNtCs2meEIT43k6D_13nestgate_core6config17canonical_primary5retryNtB4_11RetryConfig17delay_for_attempt
FNDA:0,_RNvMs_NtNtNtCs2meEIT43k6D_13nestgate_core6config17canonical_primary5retryNtB4_11RetryConfig19critical_operations
FNDA:0,_RNvMs_NtNtNtCs2meEIT43k6D_13nestgate_core6config17canonical_primary5retryNtB4_11RetryConfig4fast
FNDA:0,_RNvMs_NtNtNtCs2meEIT43k6D_13nestgate_core6config17canonical_primary5retryNtB4_11RetryConfig4slow
FNDA:0,_RNvMs_NtNtNtCs2meEIT43k6D_13nestgate_core6config17canonical_primary5retryNtB4_11RetryConfig6linear
FNDA:0,_RNvXNtNtNtCs2meEIT43k6D_13nestgate_core6config17canonical_primary5retryNtB2_11RetryConfigNtNtCs5GmCzIpY9Qj_4core7default7Default7default
FNF:7
FNH:0
DA:33,0
DA:34,0
DA:35,0
DA:36,0
DA:37,0
DA:38,0
DA:39,0
DA:40,0
DA:41,0
DA:42,0
DA:43,0
DA:49,0
DA:50,0
DA:51,0
DA:52,0
DA:54,0
DA:55,0
DA:56,0
DA:57,0
DA:58,0
DA:60,0
DA:64,0
DA:67,0
DA:68,0
DA:69,0
DA:71,0
DA:73,0
DA:77,0
DA:78,0
DA:79,0
DA:80,0
DA:81,0
DA:82,0
DA:83,0
DA:84,0
DA:85,0
DA:86,0
DA:87,0
DA:91,0
DA:92,0
DA:93,0
DA:94,0
DA:95,0
DA:96,0
DA:97,0
DA:98,0
DA:99,0
DA:100,0
DA:101,0
DA:105,0
DA:106,0
DA:107,0
DA:108,0
DA:109,0
DA:110,0
DA:111,0
DA:112,0
DA:113,0
DA:114,0
DA:115,0
DA:119,0
DA:120,0
DA:121,0
DA:122,0
DA:123,0
DA:124,0
DA:125,0
DA:126,0
DA:127,0
DA:128,0
DA:129,0
DA:133,0
DA:134,0
DA:135,0
DA:136,0
DA:137,0
DA:138,0
DA:139,0
DA:140,0
DA:141,0
DA:142,0
DA:143,0
BRF:0
BRH:0
LF:82
LH:0
end_of_record
SF:/home/eastgate/Development/ecoPrimals/nestgate/code/crates/nestgate-core/src/config/canonical_primary/security_config.rs
FN:31,_RNvXNtNtNtCs2meEIT43k6D_13nestgate_core6config17canonical_primary15security_configNtB2_14SecurityConfigNtNtCs5GmCzIpY9Qj_4core7default7Default7default
FN:42,_RNvXs_NtNtNtCs2meEIT43k6D_13nestgate_core6config17canonical_primary15security_configNtB4_10AuthConfigNtNtCs5GmCzIpY9Qj_4core7default7Default7default
FNDA:0,_RNvXNtNtNtCs2meEIT43k6D_13nestgate_core6config17canonical_primary15security_configNtB2_14SecurityConfigNtNtCs5GmCzIpY9Qj_4core7default7Default7default
FNDA:0,_RNvXs_NtNtNtCs2meEIT43k6D_13nestgate_core6config17canonical_primary15security_configNtB4_10AuthConfigNtNtCs5GmCzIpY9Qj_4core7default7Default7default
FNF:2
FNH:0
DA:31,0
DA:32,0
DA:33,0
DA:34,0
DA:35,0
DA:36,0
DA:37,0
DA:42,0
DA:43,0
DA:44,0
DA:45,0
DA:46,0
DA:47,0
DA:48,0
BRF:0
BRH:0
LF:14
LH:0
end_of_record
SF:/home/eastgate/Development/ecoPrimals/nestgate/code/crates/nestgate-core/src/config/canonical_primary/service.rs
FN:45,_RNvXNtNtNtCs2meEIT43k6D_13nestgate_core6config17canonical_primary7serviceNtB2_13ServiceConfigNtNtCs5GmCzIpY9Qj_4core7default7Default7default
FN:134,_RNvXs0_NtNtNtCs2meEIT43k6D_13nestgate_core6config17canonical_primary7serviceNtB5_19ServiceHealthConfigNtNtCs5GmCzIpY9Qj_4core7default7Default7default
FN:162,_RNvXs1_NtNtNtCs2meEIT43k6D_13nestgate_core6config17canonical_primary7serviceNtB5_20ServiceMetricsConfigNtNtCs5GmCzIpY9Qj_4core7default7Default7default
FN:194,_RNvXs2_NtNtNtCs2meEIT43k6D_13nestgate_core6config17canonical_primary7serviceNtB5_20ServiceScalingConfigNtNtCs5GmCzIpY9Qj_4core7default7Default7default
FN:224,_RNvXs3_NtNtNtCs2meEIT43k6D_13nestgate_core6config17canonical_primary7serviceNtB5_21ServiceSecurityConfigNtNtCs5GmCzIpY9Qj_4core7default7Default7default
FN:104,_RNvXs_NtNtNtCs2meEIT43k6D_13nestgate_core6config17canonical_primary7serviceNtB4_21ServiceEndpointConfigNtNtCs5GmCzIpY9Qj_4core7default7Default7default
FNDA:0,_RNvXNtNtNtCs2meEIT43k6D_13nestgate_core6config17canonical_primary7serviceNtB2_13ServiceConfigNtNtCs5GmCzIpY9Qj_4core7default7Default7default
FNDA:0,_RNvXs0_NtNtNtCs2meEIT43k6D_13nestgate_core6config17canonical_primary7serviceNtB5_19ServiceHealthConfigNtNtCs5GmCzIpY9Qj_4core7default7Default7default
FNDA:0,_RNvXs1_NtNtNtCs2meEIT43k6D_13nestgate_core6config17canonical_primary7serviceNtB5_20ServiceMetricsConfigNtNtCs5GmCzIpY9Qj_4core7default7Default7default
FNDA:0,_RNvXs2_NtNtNtCs2meEIT43k6D_13nestgate_core6config17canonical_primary7serviceNtB5_20ServiceScalingConfigNtNtCs5GmCzIpY9Qj_4core7default7Default7default
FNDA:0,_RNvXs3_NtNtNtCs2meEIT43k6D_13nestgate_core6config17canonical_primary7serviceNtB5_21ServiceSecurityConfigNtNtCs5GmCzIpY9Qj_4core7default7Default7default
FNDA:0,_RNvXs_NtNtNtCs2meEIT43k6D_13nestgate_core6config17canonical_primary7serviceNtB4_21ServiceEndpointConfigNtNtCs5GmCzIpY9Qj_4core7default7Default7default
FNF:6
FNH:0
DA:45,0
DA:46,0
DA:47,0
DA:48,0
DA:49,0
DA:50,0
DA:51,0
DA:52,0
DA:53,0
DA:54,0
DA:55,0
DA:56,0
DA:57,0
DA:58,0
DA:59,0
DA:104,0
DA:106,0
DA:107,0
DA:108,0
DA:109,0
DA:110,0
DA:111,0
DA:112,0
DA:113,0
DA:134,0
DA:135,0
DA:136,0
DA:137,0
DA:138,0
DA:139,0
DA:140,0
DA:141,0
DA:162,0
DA:163,0
DA:164,0
DA:165,0
DA:166,0
DA:167,0
DA:168,0
DA:169,0
DA:194,0
DA:195,0
DA:196,0
DA:197,0
DA:198,0
DA:199,0
DA:200,0
DA:201,0
DA:202,0
DA:203,0
DA:224,0
DA:225,0
DA:226,0
DA:227,0
DA:228,0
DA:229,0
DA:230,0
DA:231,0
BRF:0
BRH:0
LF:58
LH:0
end_of_record
SF:/home/eastgate/Development/ecoPrimals/nestgate/code/crates/nestgate-core/src/config/canonical_primary/storage_config.rs
FN:121,_RNvMs0_NtNtNtCs2meEIT43k6D_13nestgate_core6config17canonical_primary14storage_configNtB5_11CacheConfig11development
FN:138,_RNvMs0_NtNtNtCs2meEIT43k6D_13nestgate_core6config17canonical_primary14storage_configNtB5_11CacheConfig16high_performance
FN:88,_RNvXNtNtNtCs2meEIT43k6D_13nestgate_core6config17canonical_primary14storage_configNtB2_13StorageConfigNtNtCs5GmCzIpY9Qj_4core7default7Default7default
FN:102,_RNvXs_NtNtNtCs2meEIT43k6D_13nestgate_core6config17canonical_primary14storage_configNtB4_11CacheConfigNtNtCs5GmCzIpY9Qj_4core7default7Default7default
FNDA:0,_RNvMs0_NtNtNtCs2meEIT43k6D_13nestgate_core6config17canonical_primary14storage_configNtB5_11CacheConfig11development
FNDA:0,_RNvMs0_NtNtNtCs2meEIT43k6D_13nestgate_core6config17canonical_primary14storage_configNtB5_11CacheConfig16high_performance
FNDA:0,_RNvXNtNtNtCs2meEIT43k6D_13nestgate_core6config17canonical_primary14storage_configNtB2_13StorageConfigNtNtCs5GmCzIpY9Qj_4core7default7Default7default
FNDA:0,_RNvXs_NtNtNtCs2meEIT43k6D_13nestgate_core6config17canonical_primary14storage_configNtB4_11CacheConfigNtNtCs5GmCzIpY9Qj_4core7default7Default7default
FNF:4
FNH:0
DA:88,0
DA:89,0
DA:90,0
DA:91,0
DA:92,0
DA:93,0
DA:94,0
DA:95,0
DA:96,0
DA:97,0
DA:102,0
DA:103,0
DA:104,0
DA:105,0
DA:106,0
DA:107,0
DA:108,0
DA:109,0
DA:110,0
DA:111,0
DA:112,0
DA:113,0
DA:114,0
DA:115,0
DA:121,0
DA:122,0
DA:123,0
DA:124,0
DA:125,0
DA:126,0
DA:127,0
DA:128,0
DA:129,0
DA:130,0
DA:131,0
DA:132,0
DA:133,0
DA:134,0
DA:138,0
DA:139,0
DA:140,0
DA:141,0
DA:142,0
DA:143,0
DA:144,0
DA:145,0
DA:146,0
DA:147,0
DA:148,0
DA:149,0
DA:150,0
DA:151,0
BRF:0
BRH:0
LF:52
LH:0
end_of_record
SF:/home/eastgate/Development/ecoPrimals/nestgate/code/crates/nestgate-core/src/config/canonical_primary/supporting_types.rs
FN:32,_RNvXNtNtNtCs2meEIT43k6D_13nestgate_core6config17canonical_primary16supporting_typesNtB2_16MonitoringConfigNtNtCs5GmCzIpY9Qj_4core7default7Default7default
FN:86,_RNvXs0_NtNtNtCs2meEIT43k6D_13nestgate_core6config17canonical_primary16supporting_typesNtB5_15FsMonitorConfigNtNtCs5GmCzIpY9Qj_4core7default7Default7default
FN:136,_RNvXs1_NtNtNtCs2meEIT43k6D_13nestgate_core6config17canonical_primary16supporting_typesNtB5_16MiddlewareConfigNtNtCs5GmCzIpY9Qj_4core7default7Default7default
FN:61,_RNvXs_NtNtNtCs2meEIT43k6D_13nestgate_core6config17canonical_primary16supporting_typesNtB4_9McpConfigNtNtCs5GmCzIpY9Qj_4core7default7Default7default
FNDA:0,_RNvXNtNtNtCs2meEIT43k6D_13nestgate_core6config17canonical_primary16supporting_typesNtB2_16MonitoringConfigNtNtCs5GmCzIpY9Qj_4core7default7Default7default
FNDA:0,_RNvXs0_NtNtNtCs2meEIT43k6D_13nestgate_core6config17canonical_primary16supporting_typesNtB5_15FsMonitorConfigNtNtCs5GmCzIpY9Qj_4core7default7Default7default
FNDA:0,_RNvXs1_NtNtNtCs2meEIT43k6D_13nestgate_core6config17canonical_primary16supporting_typesNtB5_16MiddlewareConfigNtNtCs5GmCzIpY9Qj_4core7default7Default7default
FNDA:0,_RNvXs_NtNtNtCs2meEIT43k6D_13nestgate_core6config17canonical_primary16supporting_typesNtB4_9McpConfigNtNtCs5GmCzIpY9Qj_4core7default7Default7default
FNF:4
FNH:0
DA:32,0
DA:33,0
DA:34,0
DA:35,0
DA:36,0
DA:37,0
DA:38,0
DA:39,0
DA:40,0
DA:41,0
DA:61,0
DA:62,0
DA:63,0
DA:64,0
DA:65,0
DA:66,0
DA:67,0
DA:68,0
DA:69,0
DA:86,0
DA:87,0
DA:88,0
DA:89,0
DA:90,0
DA:91,0
DA:92,0
DA:136,0
DA:137,0
DA:138,0
DA:139,0
DA:140,0
DA:141,0
DA:142,0
DA:143,0
DA:144,0
DA:145,0
DA:146,0
DA:147,0
BRF:0
BRH:0
LF:38
LH:0
end_of_record
SF:/home/eastgate/Development/ecoPrimals/nestgate/code/crates/nestgate-core/src/config/canonical_primary/system_config.rs
FN:59,_RNvMNtNtNtCs2meEIT43k6D_13nestgate_core6config17canonical_primary13system_configINtB2_12SystemConfigKpKpE11buffer_sizeB8_
FN:53,_RNvMNtNtNtCs2meEIT43k6D_13nestgate_core6config17canonical_primary13system_configINtB2_12SystemConfigKpKpE15max_connectionsB8_
FN:71,_RNvMNtNtNtCs2meEIT43k6D_13nestgate_core6config17canonical_primary13system_configINtB2_12SystemConfigKpKpE21effective_buffer_sizeB8_
FN:65,_RNvMNtNtNtCs2meEIT43k6D_13nestgate_core6config17canonical_primary13system_configINtB2_12SystemConfigKpKpE25effective_max_connectionsB8_
FN:119,_RNvXs0_NtNtNtCs2meEIT43k6D_13nestgate_core6config17canonical_primary13system_configNtB5_8LogLevelNtNtCs5GmCzIpY9Qj_4core7default7Default7default
FN:317,_RNvXs1_NtNtNtCs2meEIT43k6D_13nestgate_core6config17canonical_primary13system_configNtB5_17EnvironmentConfigNtNtCs5GmCzIpY9Qj_4core7default7Default7default
FN:369,_RNvXs2_NtNtNtCs2meEIT43k6D_13nestgate_core6config17canonical_primary13system_configNtB5_12FeatureFlagsNtNtCs5GmCzIpY9Qj_4core7default7Default7default
FN:409,_RNvXs3_NtNtNtCs2meEIT43k6D_13nestgate_core6config17canonical_primary13system_configNtB5_14ConfigMetadataNtNtCs5GmCzIpY9Qj_4core7default7Default7default
FN:97,_RNvXs_NtNtNtCs2meEIT43k6D_13nestgate_core6config17canonical_primary13system_configNtB4_21DeploymentEnvironmentNtNtCs5GmCzIpY9Qj_4core7default7Default7default
FN:434,_RNvXs4_NtNtNtCs2meEIT43k6D_13nestgate_core6config17canonical_primary13system_configNtB5_12SystemConfigNtNtCs5GmCzIpY9Qj_4core7default7Default7defaultBb_
FNDA:0,_RNvMNtNtNtCs2meEIT43k6D_13nestgate_core6config17canonical_primary13system_configINtB2_12SystemConfigKpKpE11buffer_sizeB8_
FNDA:0,_RNvMNtNtNtCs2meEIT43k6D_13nestgate_core6config17canonical_primary13system_configINtB2_12SystemConfigKpKpE15max_connectionsB8_
FNDA:0,_RNvMNtNtNtCs2meEIT43k6D_13nestgate_core6config17canonical_primary13system_configINtB2_12SystemConfigKpKpE21effective_buffer_sizeB8_
FNDA:0,_RNvMNtNtNtCs2meEIT43k6D_13nestgate_core6config17canonical_primary13system_configINtB2_12SystemConfigKpKpE25effective_max_connectionsB8_
FNDA:0,_RNvXs0_NtNtNtCs2meEIT43k6D_13nestgate_core6config17canonical_primary13system_configNtB5_8LogLevelNtNtCs5GmCzIpY9Qj_4core7default7Default7default
FNDA:0,_RNvXs1_NtNtNtCs2meEIT43k6D_13nestgate_core6config17canonical_primary13system_configNtB5_17EnvironmentConfigNtNtCs5GmCzIpY9Qj_4core7default7Default7default
FNDA:0,_RNvXs2_NtNtNtCs2meEIT43k6D_13nestgate_core6config17canonical_primary13system_configNtB5_12FeatureFlagsNtNtCs5GmCzIpY9Qj_4core7default7Default7default
FNDA:0,_RNvXs3_NtNtNtCs2meEIT43k6D_13nestgate_core6config17canonical_primary13system_configNtB5_14ConfigMetadataNtNtCs5GmCzIpY9Qj_4core7default7Default7default
FNDA:0,_RNvXs_NtNtNtCs2meEIT43k6D_13nestgate_core6config17canonical_primary13system_configNtB4_21DeploymentEnvironmentNtNtCs5GmCzIpY9Qj_4core7default7Default7default
FNDA:0,_RNvXs4_NtNtNtCs2meEIT43k6D_13nestgate_core6config17canonical_primary13system_configNtB5_12SystemConfigNtNtCs5GmCzIpY9Qj_4core7default7Default7defaultBb_
FNF:10
FNH:0
DA:53,0
DA:54,0
DA:55,0
DA:59,0
DA:60,0
DA:61,0
DA:65,0
DA:66,0
DA:67,0
DA:71,0
DA:72,0
DA:73,0
DA:97,0
DA:98,0
DA:99,0
DA:119,0
DA:120,0
DA:121,0
DA:317,0
DA:318,0
DA:319,0
DA:320,0
DA:321,0
DA:322,0
DA:323,0
DA:324,0
DA:369,0
DA:370,0
DA:371,0
DA:372,0
DA:373,0
DA:375,0
DA:376,0
DA:377,0
DA:378,0
DA:379,0
DA:380,0
DA:381,0
DA:382,0
DA:383,0
DA:384,0
DA:385,0
DA:386,0
DA:387,0
DA:409,0
DA:411,0
DA:412,0
DA:413,0
DA:414,0
DA:415,0
DA:417,0
DA:418,0
DA:419,0
DA:420,0
DA:421,0
DA:422,0
DA:423,0
DA:424,0
DA:425,0
DA:434,0
DA:436,0
DA:437,0
DA:438,0
DA:439,0
DA:440,0
DA:441,0
DA:444,0
DA:445,0
DA:446,0
DA:447,0
DA:448,0
DA:449,0
DA:450,0
DA:451,0
DA:452,0
DA:453,0
DA:454,0
DA:455,0
DA:456,0
DA:457,0
DA:458,0
DA:459,0
DA:460,0
DA:461,0
DA:462,0
BRF:0
BRH:0
LF:85
LH:0
end_of_record
SF:/home/eastgate/Development/ecoPrimals/nestgate/code/crates/nestgate-core/src/config/canonical_primary/timeout.rs
FN:52,_RNvMs_NtNtNtCs2meEIT43k6D_13nestgate_core6config17canonical_primary7timeoutNtB4_13TimeoutConfig10production
FN:67,_RNvMs_NtNtNtCs2meEIT43k6D_13nestgate_core6config17canonical_primary7timeoutNtB4_13TimeoutConfig11development
FN:35,_RNvXNtNtNtCs2meEIT43k6D_13nestgate_core6config17canonical_primary7timeoutNtB2_13TimeoutConfigNtNtCs5GmCzIpY9Qj_4core7default7Default7default
FNDA:0,_RNvMs_NtNtNtCs2meEIT43k6D_13nestgate_core6config17canonical_primary7timeoutNtB4_13TimeoutConfig10production
FNDA:0,_RNvMs_NtNtNtCs2meEIT43k6D_13nestgate_core6config17canonical_primary7timeoutNtB4_13TimeoutConfig11development
FNDA:0,_RNvXNtNtNtCs2meEIT43k6D_13nestgate_core6config17canonical_primary7timeoutNtB2_13TimeoutConfigNtNtCs5GmCzIpY9Qj_4core7default7Default7default
FNF:3
FNH:0
DA:35,0
DA:36,0
DA:37,0
DA:38,0
DA:39,0
DA:40,0
DA:41,0
DA:42,0
DA:43,0
DA:44,0
DA:45,0
DA:46,0
DA:52,0
DA:53,0
DA:54,0
DA:55,0
DA:56,0
DA:57,0
DA:58,0
DA:59,0
DA:60,0
DA:61,0
DA:62,0
DA:63,0
DA:67,0
DA:68,0
DA:69,0
DA:70,0
DA:71,0
DA:72,0
DA:73,0
DA:74,0
DA:75,0
DA:76,0
DA:77,0
DA:78,0
BRF:0
BRH:0
LF:36
LH:0
end_of_record
SF:/home/eastgate/Development/ecoPrimals/nestgate/code/crates/nestgate-core/src/config/capability_based.rs
FN:139,_RNvMNtNtCs2meEIT43k6D_13nestgate_core6config16capability_basedNtB2_16CapabilityConfig12try_discover
FN:169,_RNvMNtNtCs2meEIT43k6D_13nestgate_core6config16capability_basedNtB2_16CapabilityConfig24handle_discovery_failure
FN:91,_RNvMNtNtCs2meEIT43k6D_13nestgate_core6config16capability_basedNtB2_16CapabilityConfig7builder
FN:98,_RNvMNtNtCs2meEIT43k6D_13nestgate_core6config16capability_basedNtB2_16CapabilityConfig8discover
FN:241,_RNvMs0_NtNtCs2meEIT43k6D_13nestgate_core6config16capability_basedNtB5_23CapabilityConfigBuilder18with_fallback_mode
FN:235,_RNvMs0_NtNtCs2meEIT43k6D_13nestgate_core6config16capability_basedNtB5_23CapabilityConfigBuilder19with_retry_attempts
FN:229,_RNvMs0_NtNtCs2meEIT43k6D_13nestgate_core6config16capability_basedNtB5_23CapabilityConfigBuilder22with_discovery_timeout
FN:220,_RNvMs0_NtNtCs2meEIT43k6D_13nestgate_core6config16capability_basedNtB5_23CapabilityConfigBuilder3new
FN:247,_RNvMs0_NtNtCs2meEIT43k6D_13nestgate_core6config16capability_basedNtB5_23CapabilityConfigBuilder5build
FN:264,_RNvNtNtCs2meEIT43k6D_13nestgate_core6config16capability_based15capability_name
FN:213,_RNvXs_NtNtCs2meEIT43k6D_13nestgate_core6config16capability_basedNtB4_23CapabilityConfigBuilderNtNtCs5GmCzIpY9Qj_4core7default7Default7default
FN:146,_RNCNCNvMNtNtCs2meEIT43k6D_13nestgate_core6config16capability_basedNtB6_16CapabilityConfig12try_discover00Ba_
FN:155,_RNCNCNvMNtNtCs2meEIT43k6D_13nestgate_core6config16capability_basedNtB6_16CapabilityConfig12try_discover0s_0Ba_
FN:139,_RNCNvMNtNtCs2meEIT43k6D_13nestgate_core6config16capability_basedNtB4_16CapabilityConfig12try_discover0B8_
FN:173,_RNCNvMNtNtCs2meEIT43k6D_13nestgate_core6config16capability_basedNtB4_16CapabilityConfig24handle_discovery_failure0B8_
FN:98,_RNCNvMNtNtCs2meEIT43k6D_13nestgate_core6config16capability_basedNtB4_16CapabilityConfig8discover0B8_
FNDA:0,_RNvMNtNtCs2meEIT43k6D_13nestgate_core6config16capability_basedNtB2_16CapabilityConfig12try_discover
FNDA:0,_RNvMNtNtCs2meEIT43k6D_13nestgate_core6config16capability_basedNtB2_16CapabilityConfig24handle_discovery_failure
FNDA:0,_RNvMNtNtCs2meEIT43k6D_13nestgate_core6config16capability_basedNtB2_16CapabilityConfig7builder
FNDA:0,_RNvMNtNtCs2meEIT43k6D_13nestgate_core6config16capability_basedNtB2_16CapabilityConfig8discover
FNDA:0,_RNvMs0_NtNtCs2meEIT43k6D_13nestgate_core6config16capability_basedNtB5_23CapabilityConfigBuilder18with_fallback_mode
FNDA:0,_RNvMs0_NtNtCs2meEIT43k6D_13nestgate_core6config16capability_basedNtB5_23CapabilityConfigBuilder19with_retry_attempts
FNDA:0,_RNvMs0_NtNtCs2meEIT43k6D_13nestgate_core6config16capability_basedNtB5_23CapabilityConfigBuilder22with_discovery_timeout
FNDA:0,_RNvMs0_NtNtCs2meEIT43k6D_13nestgate_core6config16capability_basedNtB5_23CapabilityConfigBuilder3new
FNDA:0,_RNvMs0_NtNtCs2meEIT43k6D_13nestgate_core6config16capability_basedNtB5_23CapabilityConfigBuilder5build
FNDA:0,_RNvNtNtCs2meEIT43k6D_13nestgate_core6config16capability_based15capability_name
FNDA:0,_RNvXs_NtNtCs2meEIT43k6D_13nestgate_core6config16capability_basedNtB4_23CapabilityConfigBuilderNtNtCs5GmCzIpY9Qj_4core7default7Default7default
FNDA:0,_RNCNCNvMNtNtCs2meEIT43k6D_13nestgate_core6config16capability_basedNtB6_16CapabilityConfig12try_discover00Ba_
FNDA:0,_RNCNCNvMNtNtCs2meEIT43k6D_13nestgate_core6config16capability_basedNtB6_16CapabilityConfig12try_discover0s_0Ba_
FNDA:0,_RNCNvMNtNtCs2meEIT43k6D_13nestgate_core6config16capability_basedNtB4_16CapabilityConfig12try_discover0B8_
FNDA:0,_RNCNvMNtNtCs2meEIT43k6D_13nestgate_core6config16capability_basedNtB4_16CapabilityConfig24handle_discovery_failure0B8_
FNDA:0,_RNCNvMNtNtCs2meEIT43k6D_13nestgate_core6config16capability_basedNtB4_16CapabilityConfig8discover0B8_
FNF:16
FNH:0
DA:91,0
DA:92,0
DA:93,0
DA:98,0
DA:101,0
DA:102,0
DA:104,0
DA:105,0
DA:109,0
DA:110,0
DA:111,0
DA:113,0
DA:114,0
DA:115,0
DA:117,0
DA:119,0
DA:123,0
DA:124,0
DA:129,0
DA:130,0
DA:131,0
DA:132,0
DA:133,0
DA:134,0
DA:135,0
DA:136,0
DA:139,0
DA:142,0
DA:143,0
DA:144,0
DA:146,0
DA:147,0
DA:148,0
DA:149,0
DA:152,0
DA:153,0
DA:155,0
DA:156,0
DA:157,0
DA:158,0
DA:160,0
DA:161,0
DA:162,0
DA:163,0
DA:164,0
DA:165,0
DA:166,0
DA:169,0
DA:170,0
DA:171,0
DA:172,0
DA:173,0
DA:174,0
DA:175,0
DA:177,0
DA:178,0
DA:181,0
DA:184,0
DA:185,0
DA:189,0
DA:190,0
DA:191,0
DA:192,0
DA:193,0
DA:194,0
DA:195,0
DA:196,0
DA:197,0
DA:198,0
DA:201,0
DA:213,0
DA:214,0
DA:215,0
DA:220,0
DA:221,0
DA:222,0
DA:223,0
DA:224,0
DA:225,0
DA:226,0
DA:229,0
DA:230,0
DA:231,0
DA:232,0
DA:235,0
DA:236,0
DA:237,0
DA:238,0
DA:241,0
DA:242,0
DA:243,0
DA:244,0
DA:247,0
DA:248,0
DA:249,0
DA:250,0
DA:251,0
DA:252,0
DA:254,0
DA:255,0
DA:256,0
DA:257,0
DA:258,0
DA:259,0
DA:260,0
DA:264,0
DA:265,0
DA:266,0
DA:267,0
DA:268,0
DA:269,0
DA:270,0
DA:271,0
DA:272,0
DA:273,0
DA:274,0
DA:275,0
DA:277,0
BRF:0
BRH:0
LF:125
LH:0
end_of_record
SF:/home/eastgate/Development/ecoPrimals/nestgate/code/crates/nestgate-core/src/config/discovery_config.rs
FN:90,_RNCNvMs_NtNtCs2meEIT43k6D_13nestgate_core6config16discovery_configNtB6_22ServiceDiscoveryConfig23load_endpoints_from_envs0_0Ba_
FN:93,_RNCNvMs_NtNtCs2meEIT43k6D_13nestgate_core6config16discovery_configNtB6_22ServiceDiscoveryConfig23load_endpoints_from_envs1_0Ba_
FN:97,_RNCNvMs_NtNtCs2meEIT43k6D_13nestgate_core6config16discovery_configNtB6_22ServiceDiscoveryConfig23load_endpoints_from_envs2_0Ba_
FN:51,_RNCNvXNtNtCs2meEIT43k6D_13nestgate_core6config16discovery_configNtB4_22ServiceDiscoveryConfigNtNtCs5GmCzIpY9Qj_4core7default7Default7default0B8_
FN:58,_RNCNvXNtNtCs2meEIT43k6D_13nestgate_core6config16discovery_configNtB4_22ServiceDiscoveryConfigNtNtCs5GmCzIpY9Qj_4core7default7Default7defaults0_0B8_
FN:62,_RNCNvXNtNtCs2meEIT43k6D_13nestgate_core6config16discovery_configNtB4_22ServiceDiscoveryConfigNtNtCs5GmCzIpY9Qj_4core7default7Default7defaults1_0B8_
FN:66,_RNCNvXNtNtCs2meEIT43k6D_13nestgate_core6config16discovery_configNtB4_22ServiceDiscoveryConfigNtNtCs5GmCzIpY9Qj_4core7default7Default7defaults2_0B8_
FN:54,_RNCNvXNtNtCs2meEIT43k6D_13nestgate_core6config16discovery_configNtB4_22ServiceDiscoveryConfigNtNtCs5GmCzIpY9Qj_4core7default7Default7defaults_0B8_
FN:107,_RNvMs_NtNtCs2meEIT43k6D_13nestgate_core6config16discovery_configNtB4_22ServiceDiscoveryConfig13get_endpoints
FN:113,_RNvMs_NtNtCs2meEIT43k6D_13nestgate_core6config16discovery_configNtB4_22ServiceDiscoveryConfig14build_endpoint
FN:119,_RNvMs_NtNtCs2meEIT43k6D_13nestgate_core6config16discovery_configNtB4_22ServiceDiscoveryConfig14get_port_range
FN:127,_RNvMs_NtNtCs2meEIT43k6D_13nestgate_core6config16discovery_configNtB4_22ServiceDiscoveryConfig14with_endpoints
FN:136,_RNvMs_NtNtCs2meEIT43k6D_13nestgate_core6config16discovery_configNtB4_22ServiceDiscoveryConfig18with_host_and_port
FN:77,_RNvMs_NtNtCs2meEIT43k6D_13nestgate_core6config16discovery_configNtB4_22ServiceDiscoveryConfig23load_endpoints_from_env
FN:45,_RNvXNtNtCs2meEIT43k6D_13nestgate_core6config16discovery_configNtB2_22ServiceDiscoveryConfigNtNtCs5GmCzIpY9Qj_4core7default7Default7default
FN:121,_RNCNvMs_NtNtCs2meEIT43k6D_13nestgate_core6config16discovery_configNtB6_22ServiceDiscoveryConfig14get_port_range0Ba_
FN:82,_RNCNvMs_NtNtCs2meEIT43k6D_13nestgate_core6config16discovery_configNtB6_22ServiceDiscoveryConfig23load_endpoints_from_env0Ba_
FN:101,_RNCNvMs_NtNtCs2meEIT43k6D_13nestgate_core6config16discovery_configNtB6_22ServiceDiscoveryConfig23load_endpoints_from_envs3_0Ba_
FN:83,_RNCNvMs_NtNtCs2meEIT43k6D_13nestgate_core6config16discovery_configNtB6_22ServiceDiscoveryConfig23load_endpoints_from_envs_0Ba_
FNDA:0,_RNCNvMs_NtNtCs2meEIT43k6D_13nestgate_core6config16discovery_configNtB6_22ServiceDiscoveryConfig23load_endpoints_from_envs0_0Ba_
FNDA:0,_RNCNvMs_NtNtCs2meEIT43k6D_13nestgate_core6config16discovery_configNtB6_22ServiceDiscoveryConfig23load_endpoints_from_envs1_0Ba_
FNDA:0,_RNCNvMs_NtNtCs2meEIT43k6D_13nestgate_core6config16discovery_configNtB6_22ServiceDiscoveryConfig23load_endpoints_from_envs2_0Ba_
FNDA:0,_RNCNvXNtNtCs2meEIT43k6D_13nestgate_core6config16discovery_configNtB4_22ServiceDiscoveryConfigNtNtCs5GmCzIpY9Qj_4core7default7Default7default0B8_
FNDA:0,_RNCNvXNtNtCs2meEIT43k6D_13nestgate_core6config16discovery_configNtB4_22ServiceDiscoveryConfigNtNtCs5GmCzIpY9Qj_4core7default7Default7defaults0_0B8_
FNDA:0,_RNCNvXNtNtCs2meEIT43k6D_13nestgate_core6config16discovery_configNtB4_22ServiceDiscoveryConfigNtNtCs5GmCzIpY9Qj_4core7default7Default7defaults1_0B8_
FNDA:0,_RNCNvXNtNtCs2meEIT43k6D_13nestgate_core6config16discovery_configNtB4_22ServiceDiscoveryConfigNtNtCs5GmCzIpY9Qj_4core7default7Default7defaults2_0B8_
FNDA:0,_RNCNvXNtNtCs2meEIT43k6D_13nestgate_core6config16discovery_configNtB4_22ServiceDiscoveryConfigNtNtCs5GmCzIpY9Qj_4core7default7Default7defaults_0B8_
FNDA:0,_RNvMs_NtNtCs2meEIT43k6D_13nestgate_core6config16discovery_configNtB4_22ServiceDiscoveryConfig13get_endpoints
FNDA:0,_RNvMs_NtNtCs2meEIT43k6D_13nestgate_core6config16discovery_configNtB4_22ServiceDiscoveryConfig14build_endpoint
FNDA:0,_RNvMs_NtNtCs2meEIT43k6D_13nestgate_core6config16discovery_configNtB4_22ServiceDiscoveryConfig14get_port_range
FNDA:0,_RNvMs_NtNtCs2meEIT43k6D_13nestgate_core6config16discovery_configNtB4_22ServiceDiscoveryConfig14with_endpoints
FNDA:0,_RNvMs_NtNtCs2meEIT43k6D_13nestgate_core6config16discovery_configNtB4_22ServiceDiscoveryConfig18with_host_and_port
FNDA:0,_RNvMs_NtNtCs2meEIT43k6D_13nestgate_core6config16discovery_configNtB4_22ServiceDiscoveryConfig23load_endpoints_from_env
FNDA:0,_RNvXNtNtCs2meEIT43k6D_13nestgate_core6config16discovery_configNtB2_22ServiceDiscoveryConfigNtNtCs5GmCzIpY9Qj_4core7default7Default7default
FNDA:0,_RNCNvMs_NtNtCs2meEIT43k6D_13nestgate_core6config16discovery_configNtB6_22ServiceDiscoveryConfig14get_port_range0Ba_
FNDA:0,_RNCNvMs_NtNtCs2meEIT43k6D_13nestgate_core6config16discovery_configNtB6_22ServiceDiscoveryConfig23load_endpoints_from_env0Ba_
FNDA:0,_RNCNvMs_NtNtCs2meEIT43k6D_13nestgate_core6config16discovery_configNtB6_22ServiceDiscoveryConfig23load_endpoints_from_envs3_0Ba_
FNDA:0,_RNCNvMs_NtNtCs2meEIT43k6D_13nestgate_core6config16discovery_configNtB6_22ServiceDiscoveryConfig23load_endpoints_from_envs_0Ba_
FNF:19
FNH:0
DA:45,0
DA:47,0
DA:50,0
DA:51,0
DA:52,0
DA:53,0
DA:54,0
DA:55,0
DA:56,0
DA:57,0
DA:58,0
DA:59,0
DA:60,0
DA:61,0
DA:62,0
DA:63,0
DA:64,0
DA:65,0
DA:66,0
DA:67,0
DA:69,0
DA:77,0
DA:79,0
DA:80,0
DA:81,0
DA:82,0
DA:83,0
DA:84,0
DA:85,0
DA:89,0
DA:90,0
DA:91,0
DA:92,0
DA:93,0
DA:94,0
DA:95,0
DA:96,0
DA:97,0
DA:98,0
DA:100,0
DA:101,0
DA:102,0
DA:103,0
DA:107,0
DA:108,0
DA:109,0
DA:113,0
DA:114,0
DA:115,0
DA:119,0
DA:120,0
DA:121,0
DA:122,0
DA:123,0
DA:127,0
DA:128,0
DA:129,0
DA:130,0
DA:131,0
DA:132,0
DA:136,0
DA:137,0
DA:138,0
DA:139,0
DA:140,0
DA:141,0
DA:142,0
BRF:0
BRH:0
LF:79
LH:0
end_of_record
SF:/home/eastgate/Development/ecoPrimals/nestgate/code/crates/nestgate-core/src/config/environment.rs
FN:251,_RINvMs2_NtNtCs2meEIT43k6D_13nestgate_core6config11environmentNtB6_13NetworkConfig10env_var_orNtB6_4PortEBa_
FN:251,_RINvMs2_NtNtCs2meEIT43k6D_13nestgate_core6config11environmentNtB6_13NetworkConfig10env_var_orNtNtCscmSb185pVu_5alloc6string6StringEBa_
FN:251,_RINvMs2_NtNtCs2meEIT43k6D_13nestgate_core6config11environmentNtB6_13NetworkConfig10env_var_orbEBa_
FN:251,_RINvMs2_NtNtCs2meEIT43k6D_13nestgate_core6config11environmentNtB6_13NetworkConfig10env_var_ordEBa_
FN:251,_RINvMs2_NtNtCs2meEIT43k6D_13nestgate_core6config11environmentNtB6_13NetworkConfig10env_var_orjEBa_
FN:251,_RINvMs2_NtNtCs2meEIT43k6D_13nestgate_core6config11environmentNtB6_13NetworkConfig10env_var_ormEBa_
FN:251,_RINvMs2_NtNtCs2meEIT43k6D_13nestgate_core6config11environmentNtB6_13NetworkConfig10env_var_oryEBa_
FN:409,_RNCNCNvMs6_NtNtCs2meEIT43k6D_13nestgate_core6config11environmentNtB9_15DiscoveryConfig20from_env_with_prefix00Bd_
FN:408,_RNCNvMs6_NtNtCs2meEIT43k6D_13nestgate_core6config11environmentNtB7_15DiscoveryConfig20from_env_with_prefix0Bb_
FN:173,_RNCNvXs1_NtNtCs2meEIT43k6D_13nestgate_core6config11environmentNtB7_4PortNtNtNtCs5GmCzIpY9Qj_4core3str6traits7FromStr8from_str0Bb_
FN:113,_RNvMNtNtCs2meEIT43k6D_13nestgate_core6config11environmentNtB2_17EnvironmentConfig12bind_address
FN:98,_RNvMNtNtCs2meEIT43k6D_13nestgate_core6config11environmentNtB2_17EnvironmentConfig20from_env_with_prefix
FN:85,_RNvMNtNtCs2meEIT43k6D_13nestgate_core6config11environmentNtB2_17EnvironmentConfig8from_env
FN:288,_RNvMs2_NtNtCs2meEIT43k6D_13nestgate_core6config11environmentNtB5_13NetworkConfig12read_timeout
FN:293,_RNvMs2_NtNtCs2meEIT43k6D_13nestgate_core6config11environmentNtB5_13NetworkConfig13write_timeout
FN:212,_RNvMs2_NtNtCs2meEIT43k6D_13nestgate_core6config11environmentNtB5_13NetworkConfig20from_env_with_prefix
FN:283,_RNvMs2_NtNtCs2meEIT43k6D_13nestgate_core6config11environmentNtB5_13NetworkConfig7timeout
FN:207,_RNvMs2_NtNtCs2meEIT43k6D_13nestgate_core6config11environmentNtB5_13NetworkConfig8from_env
FN:298,_RNvMs2_NtNtCs2meEIT43k6D_13nestgate_core6config11environmentNtB5_13NetworkConfig9keepalive
FN:343,_RNvMs4_NtNtCs2meEIT43k6D_13nestgate_core6config11environmentNtB5_13StorageConfig20from_env_with_prefix
FN:338,_RNvMs4_NtNtCs2meEIT43k6D_13nestgate_core6config11environmentNtB5_13StorageConfig8from_env
FN:404,_RNvMs6_NtNtCs2meEIT43k6D_13nestgate_core6config11environmentNtB5_15DiscoveryConfig20from_env_with_prefix
FN:434,_RNvMs6_NtNtCs2meEIT43k6D_13nestgate_core6config11environmentNtB5_15DiscoveryConfig7timeout
FN:399,_RNvMs6_NtNtCs2meEIT43k6D_13nestgate_core6config11environmentNtB5_15DiscoveryConfig8from_env
FN:429,_RNvMs6_NtNtCs2meEIT43k6D_13nestgate_core6config11environmentNtB5_15DiscoveryConfig8interval
FN:478,_RNvMs8_NtNtCs2meEIT43k6D_13nestgate_core6config11environmentNtB5_16MonitoringConfig20from_env_with_prefix
FN:473,_RNvMs8_NtNtCs2meEIT43k6D_13nestgate_core6config11environmentNtB5_16MonitoringConfig8from_env
FN:150,_RNvMs_NtNtCs2meEIT43k6D_13nestgate_core6config11environmentNtB4_4Port13new_unchecked
FN:155,_RNvMs_NtNtCs2meEIT43k6D_13nestgate_core6config11environmentNtB4_4Port3get
FN:137,_RNvMs_NtNtCs2meEIT43k6D_13nestgate_core6config11environmentNtB4_4Port3new
FN:550,_RNvMsa_NtNtCs2meEIT43k6D_13nestgate_core6config11environmentNtB5_14SecurityConfig14tls_configured
FN:534,_RNvMsa_NtNtCs2meEIT43k6D_13nestgate_core6config11environmentNtB5_14SecurityConfig20from_env_with_prefix
FN:529,_RNvMsa_NtNtCs2meEIT43k6D_13nestgate_core6config11environmentNtB5_14SecurityConfig8from_env
FN:161,_RNvXs0_NtNtCs2meEIT43k6D_13nestgate_core6config11environmentNtB5_4PortNtNtCs5GmCzIpY9Qj_4core7default7Default7default
FN:171,_RNvXs1_NtNtCs2meEIT43k6D_13nestgate_core6config11environmentNtB5_4PortNtNtNtCs5GmCzIpY9Qj_4core3str6traits7FromStr8from_str
FN:304,_RNvXs3_NtNtCs2meEIT43k6D_13nestgate_core6config11environmentNtB5_13NetworkConfigNtNtCs5GmCzIpY9Qj_4core7default7Default7default
FN:363,_RNvXs5_NtNtCs2meEIT43k6D_13nestgate_core6config11environmentNtB5_13StorageConfigNtNtCs5GmCzIpY9Qj_4core7default7Default7default
FN:440,_RNvXs7_NtNtCs2meEIT43k6D_13nestgate_core6config11environmentNtB5_15DiscoveryConfigNtNtCs5GmCzIpY9Qj_4core7default7Default7default
FN:494,_RNvXs9_NtNtCs2meEIT43k6D_13nestgate_core6config11environmentNtB5_16MonitoringConfigNtNtCs5GmCzIpY9Qj_4core7default7Default7default
FN:556,_RNvXsb_NtNtCs2meEIT43k6D_13nestgate_core6config11environmentNtB5_14SecurityConfigNtNtCs5GmCzIpY9Qj_4core7default7Default7default
FNDA:0,_RINvMs2_NtNtCs2meEIT43k6D_13nestgate_core6config11environmentNtB6_13NetworkConfig10env_var_orNtB6_4PortEBa_
FNDA:0,_RINvMs2_NtNtCs2meEIT43k6D_13nestgate_core6config11environmentNtB6_13NetworkConfig10env_var_orNtNtCscmSb185pVu_5alloc6string6StringEBa_
FNDA:0,_RINvMs2_NtNtCs2meEIT43k6D_13nestgate_core6config11environmentNtB6_13NetworkConfig10env_var_orbEBa_
FNDA:0,_RINvMs2_NtNtCs2meEIT43k6D_13nestgate_core6config11environmentNtB6_13NetworkConfig10env_var_ordEBa_
FNDA:0,_RINvMs2_NtNtCs2meEIT43k6D_13nestgate_core6config11environmentNtB6_13NetworkConfig10env_var_orjEBa_
FNDA:0,_RINvMs2_NtNtCs2meEIT43k6D_13nestgate_core6config11environmentNtB6_13NetworkConfig10env_var_ormEBa_
FNDA:0,_RINvMs2_NtNtCs2meEIT43k6D_13nestgate_core6config11environmentNtB6_13NetworkConfig10env_var_oryEBa_
FNDA:0,_RNCNCNvMs6_NtNtCs2meEIT43k6D_13nestgate_core6config11environmentNtB9_15DiscoveryConfig20from_env_with_prefix00Bd_
FNDA:0,_RNCNvMs6_NtNtCs2meEIT43k6D_13nestgate_core6config11environmentNtB7_15DiscoveryConfig20from_env_with_prefix0Bb_
FNDA:0,_RNCNvXs1_NtNtCs2meEIT43k6D_13nestgate_core6config11environmentNtB7_4PortNtNtNtCs5GmCzIpY9Qj_4core3str6traits7FromStr8from_str0Bb_
FNDA:0,_RNvMNtNtCs2meEIT43k6D_13nestgate_core6config11environmentNtB2_17EnvironmentConfig12bind_address
FNDA:0,_RNvMNtNtCs2meEIT43k6D_13nestgate_core6config11environmentNtB2_17EnvironmentConfig20from_env_with_prefix
FNDA:0,_RNvMNtNtCs2meEIT43k6D_13nestgate_core6config11environmentNtB2_17EnvironmentConfig8from_env
FNDA:0,_RNvMs2_NtNtCs2meEIT43k6D_13nestgate_core6config11environmentNtB5_13NetworkConfig12read_timeout
FNDA:0,_RNvMs2_NtNtCs2meEIT43k6D_13nestgate_core6config11environmentNtB5_13NetworkConfig13write_timeout
FNDA:0,_RNvMs2_NtNtCs2meEIT43k6D_13nestgate_core6config11environmentNtB5_13NetworkConfig20from_env_with_prefix
FNDA:0,_RNvMs2_NtNtCs2meEIT43k6D_13nestgate_core6config11environmentNtB5_13NetworkConfig7timeout
FNDA:0,_RNvMs2_NtNtCs2meEIT43k6D_13nestgate_core6config11environmentNtB5_13NetworkConfig8from_env
FNDA:0,_RNvMs2_NtNtCs2meEIT43k6D_13nestgate_core6config11environmentNtB5_13NetworkConfig9keepalive
FNDA:0,_RNvMs4_NtNtCs2meEIT43k6D_13nestgate_core6config11environmentNtB5_13StorageConfig20from_env_with_prefix
FNDA:0,_RNvMs4_NtNtCs2meEIT43k6D_13nestgate_core6config11environmentNtB5_13StorageConfig8from_env
FNDA:0,_RNvMs6_NtNtCs2meEIT43k6D_13nestgate_core6config11environmentNtB5_15DiscoveryConfig20from_env_with_prefix
FNDA:0,_RNvMs6_NtNtCs2meEIT43k6D_13nestgate_core6config11environmentNtB5_15DiscoveryConfig7timeout
FNDA:0,_RNvMs6_NtNtCs2meEIT43k6D_13nestgate_core6config11environmentNtB5_15DiscoveryConfig8from_env
FNDA:0,_RNvMs6_NtNtCs2meEIT43k6D_13nestgate_core6config11environmentNtB5_15DiscoveryConfig8interval
FNDA:0,_RNvMs8_NtNtCs2meEIT43k6D_13nestgate_core6config11environmentNtB5_16MonitoringConfig20from_env_with_prefix
FNDA:0,_RNvMs8_NtNtCs2meEIT43k6D_13nestgate_core6config11environmentNtB5_16MonitoringConfig8from_env
FNDA:0,_RNvMs_NtNtCs2meEIT43k6D_13nestgate_core6config11environmentNtB4_4Port13new_unchecked
FNDA:0,_RNvMs_NtNtCs2meEIT43k6D_13nestgate_core6config11environmentNtB4_4Port3get
FNDA:0,_RNvMs_NtNtCs2meEIT43k6D_13nestgate_core6config11environmentNtB4_4Port3new
FNDA:0,_RNvMsa_NtNtCs2meEIT43k6D_13nestgate_core6config11environmentNtB5_14SecurityConfig14tls_configured
FNDA:0,_RNvMsa_NtNtCs2meEIT43k6D_13nestgate_core6config11environmentNtB5_14SecurityConfig20from_env_with_prefix
FNDA:0,_RNvMsa_NtNtCs2meEIT43k6D_13nestgate_core6config11environmentNtB5_14SecurityConfig8from_env
FNDA:0,_RNvXs0_NtNtCs2meEIT43k6D_13nestgate_core6config11environmentNtB5_4PortNtNtCs5GmCzIpY9Qj_4core7default7Default7default
FNDA:0,_RNvXs1_NtNtCs2meEIT43k6D_13nestgate_core6config11environmentNtB5_4PortNtNtNtCs5GmCzIpY9Qj_4core3str6traits7FromStr8from_str
FNDA:0,_RNvXs3_NtNtCs2meEIT43k6D_13nestgate_core6config11environmentNtB5_13NetworkConfigNtNtCs5GmCzIpY9Qj_4core7default7Default7default
FNDA:0,_RNvXs5_NtNtCs2meEIT43k6D_13nestgate_core6config11environmentNtB5_13StorageConfigNtNtCs5GmCzIpY9Qj_4core7default7Default7default
FNDA:0,_RNvXs7_NtNtCs2meEIT43k6D_13nestgate_core6config11environmentNtB5_15DiscoveryConfigNtNtCs5GmCzIpY9Qj_4core7default7Default7default
FNDA:0,_RNvXs9_NtNtCs2meEIT43k6D_13nestgate_core6config11environmentNtB5_16MonitoringConfigNtNtCs5GmCzIpY9Qj_4core7default7Default7default
FNDA:0,_RNvXsb_NtNtCs2meEIT43k6D_13nestgate_core6config11environmentNtB5_14SecurityConfigNtNtCs5GmCzIpY9Qj_4core7default7Default7default
FNF:34
FNH:0
DA:85,0
DA:87,0
DA:88,0
DA:89,0
DA:90,0
DA:91,0
DA:93,0
DA:98,0
DA:100,0
DA:101,0
DA:102,0
DA:103,0
DA:104,0
DA:106,0
DA:113,0
DA:115,0
DA:116,0
DA:117,0
DA:118,0
DA:119,0
DA:121,0
DA:122,0
DA:137,0
DA:138,0
DA:139,0
DA:140,0
DA:141,0
DA:142,0
DA:150,0
DA:151,0
DA:152,0
DA:155,0
DA:156,0
DA:157,0
DA:161,0
DA:164,0
DA:165,0
DA:171,0
DA:172,0
DA:173,0
DA:174,0
DA:175,0
DA:176,0
DA:177,0
DA:207,0
DA:208,0
DA:209,0
DA:212,0
DA:219,0
DA:221,0
DA:223,0
DA:224,0
DA:225,0
DA:226,0
DA:227,0
DA:229,0
DA:230,0
DA:231,0
DA:232,0
DA:234,0
DA:235,0
DA:237,0
DA:251,0
DA:252,0
DA:253,0
DA:255,0
DA:256,0
DA:257,0
DA:259,0
DA:260,0
DA:261,0
DA:262,0
DA:265,0
DA:266,0
DA:267,0
DA:270,0
DA:271,0
DA:274,0
DA:278,0
DA:280,0
DA:283,0
DA:284,0
DA:285,0
DA:288,0
DA:289,0
DA:290,0
DA:293,0
DA:294,0
DA:295,0
DA:298,0
DA:299,0
DA:300,0
DA:304,0
DA:305,0
DA:306,0
DA:307,0
DA:308,0
DA:309,0
DA:310,0
DA:311,0
DA:312,0
DA:313,0
DA:314,0
DA:338,0
DA:339,0
DA:340,0
DA:343,0
DA:345,0
DA:346,0
DA:347,0
DA:348,0
DA:349,0
DA:350,0
DA:351,0
DA:352,0
DA:353,0
DA:354,0
DA:355,0
DA:357,0
DA:359,0
DA:363,0
DA:364,0
DA:365,0
DA:366,0
DA:367,0
DA:368,0
DA:369,0
DA:370,0
DA:371,0
DA:399,0
DA:400,0
DA:401,0
DA:404,0
DA:406,0
DA:407,0
DA:408,0
DA:409,0
DA:410,0
DA:411,0
DA:413,0
DA:415,0
DA:416,0
DA:419,0
DA:420,0
DA:421,0
DA:422,0
DA:423,0
DA:424,0
DA:426,0
DA:429,0
DA:430,0
DA:431,0
DA:434,0
DA:435,0
DA:436,0
DA:440,0
DA:441,0
DA:442,0
DA:443,0
DA:444,0
DA:445,0
DA:446,0
DA:447,0
DA:448,0
DA:449,0
DA:473,0
DA:474,0
DA:475,0
DA:478,0
DA:480,0
DA:481,0
DA:482,0
DA:483,0
DA:484,0
DA:485,0
DA:486,0
DA:487,0
DA:488,0
DA:490,0
DA:494,0
DA:495,0
DA:496,0
DA:497,0
DA:498,0
DA:499,0
DA:500,0
DA:501,0
DA:502,0
DA:529,0
DA:530,0
DA:531,0
DA:534,0
DA:536,0
DA:537,0
DA:538,0
DA:539,0
DA:540,0
DA:541,0
DA:542,0
DA:543,0
DA:545,0
DA:547,0
DA:550,0
DA:551,0
DA:552,0
DA:556,0
DA:557,0
DA:558,0
DA:559,0
DA:560,0
DA:561,0
DA:562,0
DA:563,0
DA:564,0
DA:565,0
BRF:0
BRH:0
LF:218
LH:0
end_of_record
SF:/home/eastgate/Development/ecoPrimals/nestgate/code/crates/nestgate-core/src/config/external/mod.rs
FN:75,_RNvMNtNtCs2meEIT43k6D_13nestgate_core6config8externalNtB2_14ExternalConfig11default_dev
FN:87,_RNvMNtNtCs2meEIT43k6D_13nestgate_core6config8externalNtB2_14ExternalConfig19from_env_production
FN:66,_RNvMNtNtCs2meEIT43k6D_13nestgate_core6config8externalNtB2_14ExternalConfig8from_env
FN:97,_RNvXs_NtNtCs2meEIT43k6D_13nestgate_core6config8externalNtB4_14ExternalConfigNtNtCs5GmCzIpY9Qj_4core7default7Default7default
FNDA:0,_RNvMNtNtCs2meEIT43k6D_13nestgate_core6config8externalNtB2_14ExternalConfig11default_dev
FNDA:0,_RNvMNtNtCs2meEIT43k6D_13nestgate_core6config8externalNtB2_14ExternalConfig19from_env_production
FNDA:0,_RNvMNtNtCs2meEIT43k6D_13nestgate_core6config8externalNtB2_14ExternalConfig8from_env
FNDA:0,_RNvXs_NtNtCs2meEIT43k6D_13nestgate_core6config8externalNtB4_14ExternalConfigNtNtCs5GmCzIpY9Qj_4core7default7Default7default
FNF:4
FNH:0
DA:66,0
DA:68,0
DA:69,0
DA:71,0
DA:75,0
DA:76,0
DA:77,0
DA:78,0
DA:79,0
DA:80,0
DA:87,0
DA:89,0
DA:90,0
DA:92,0
DA:97,0
DA:98,0
DA:99,0
BRF:0
BRH:0
LF:17
LH:0
end_of_record
SF:/home/eastgate/Development/ecoPrimals/nestgate/code/crates/nestgate-core/src/config/external/network.rs
FN:222,_RNCNvMs_NtNtNtCs2meEIT43k6D_13nestgate_core6config8external7networkNtB6_14EndpointConfig17from_env_required0Bc_
FN:235,_RNCNvMs_NtNtNtCs2meEIT43k6D_13nestgate_core6config8external7networkNtB6_14EndpointConfig17from_env_requireds0_0Bc_
FN:223,_RNCNvMs_NtNtNtCs2meEIT43k6D_13nestgate_core6config8external7networkNtB6_14EndpointConfig17from_env_requireds_0Bc_
FN:203,_RNCNvMs_NtNtNtCs2meEIT43k6D_13nestgate_core6config8external7networkNtB6_14EndpointConfig8from_env0Bc_
FN:204,_RNCNvMs_NtNtNtCs2meEIT43k6D_13nestgate_core6config8external7networkNtB6_14EndpointConfig8from_envs_0Bc_
FN:95,_RNvMNtNtNtCs2meEIT43k6D_13nestgate_core6config8external7networkNtB2_13NetworkConfig11default_dev
FN:165,_RNvMNtNtNtCs2meEIT43k6D_13nestgate_core6config8external7networkNtB2_13NetworkConfig12database_url
FN:186,_RNvMNtNtNtCs2meEIT43k6D_13nestgate_core6config8external7networkNtB2_13NetworkConfig13discovery_url
FN:159,_RNvMNtNtNtCs2meEIT43k6D_13nestgate_core6config8external7networkNtB2_13NetworkConfig15api_socket_addr
FN:180,_RNvMNtNtNtCs2meEIT43k6D_13nestgate_core6config8external7networkNtB2_13NetworkConfig16metrics_endpoint
FN:131,_RNvMNtNtNtCs2meEIT43k6D_13nestgate_core6config8external7networkNtB2_13NetworkConfig19from_env_production
FN:150,_RNvMNtNtNtCs2meEIT43k6D_13nestgate_core6config8external7networkNtB2_13NetworkConfig8api_host
FN:144,_RNvMNtNtNtCs2meEIT43k6D_13nestgate_core6config8external7networkNtB2_13NetworkConfig8api_port
FN:61,_RNvMNtNtNtCs2meEIT43k6D_13nestgate_core6config8external7networkNtB2_13NetworkConfig8from_env
FN:174,_RNvMNtNtNtCs2meEIT43k6D_13nestgate_core6config8external7networkNtB2_13NetworkConfig9redis_url
FN:255,_RNvMs_NtNtNtCs2meEIT43k6D_13nestgate_core6config8external7networkNtB4_14EndpointConfig11socket_addr
FN:216,_RNvMs_NtNtNtCs2meEIT43k6D_13nestgate_core6config8external7networkNtB4_14EndpointConfig17from_env_required
FN:265,_RNvMs_NtNtNtCs2meEIT43k6D_13nestgate_core6config8external7networkNtB4_14EndpointConfig3url
FN:197,_RNvMs_NtNtNtCs2meEIT43k6D_13nestgate_core6config8external7networkNtB4_14EndpointConfig8from_env
FNDA:0,_RNCNvMs_NtNtNtCs2meEIT43k6D_13nestgate_core6config8external7networkNtB6_14EndpointConfig17from_env_required0Bc_
FNDA:0,_RNCNvMs_NtNtNtCs2meEIT43k6D_13nestgate_core6config8external7networkNtB6_14EndpointConfig17from_env_requireds0_0Bc_
FNDA:0,_RNCNvMs_NtNtNtCs2meEIT43k6D_13nestgate_core6config8external7networkNtB6_14EndpointConfig17from_env_requireds_0Bc_
FNDA:0,_RNCNvMs_NtNtNtCs2meEIT43k6D_13nestgate_core6config8external7networkNtB6_14EndpointConfig8from_env0Bc_
FNDA:0,_RNCNvMs_NtNtNtCs2meEIT43k6D_13nestgate_core6config8external7networkNtB6_14EndpointConfig8from_envs_0Bc_
FNDA:0,_RNvMNtNtNtCs2meEIT43k6D_13nestgate_core6config8external7networkNtB2_13NetworkConfig11default_dev
FNDA:0,_RNvMNtNtNtCs2meEIT43k6D_13nestgate_core6config8external7networkNtB2_13NetworkConfig12database_url
FNDA:0,_RNvMNtNtNtCs2meEIT43k6D_13nestgate_core6config8external7networkNtB2_13NetworkConfig13discovery_url
FNDA:0,_RNvMNtNtNtCs2meEIT43k6D_13nestgate_core6config8external7networkNtB2_13NetworkConfig15api_socket_addr
FNDA:0,_RNvMNtNtNtCs2meEIT43k6D_13nestgate_core6config8external7networkNtB2_13NetworkConfig16metrics_endpoint
FNDA:0,_RNvMNtNtNtCs2meEIT43k6D_13nestgate_core6config8external7networkNtB2_13NetworkConfig19from_env_production
FNDA:0,_RNvMNtNtNtCs2meEIT43k6D_13nestgate_core6config8external7networkNtB2_13NetworkConfig8api_host
FNDA:0,_RNvMNtNtNtCs2meEIT43k6D_13nestgate_core6config8external7networkNtB2_13NetworkConfig8api_port
FNDA:0,_RNvMNtNtNtCs2meEIT43k6D_13nestgate_core6config8external7networkNtB2_13NetworkConfig8from_env
FNDA:0,_RNvMNtNtNtCs2meEIT43k6D_13nestgate_core6config8external7networkNtB2_13NetworkConfig9redis_url
FNDA:0,_RNvMs_NtNtNtCs2meEIT43k6D_13nestgate_core6config8external7networkNtB4_14EndpointConfig11socket_addr
FNDA:0,_RNvMs_NtNtNtCs2meEIT43k6D_13nestgate_core6config8external7networkNtB4_14EndpointConfig17from_env_required
FNDA:0,_RNvMs_NtNtNtCs2meEIT43k6D_13nestgate_core6config8external7networkNtB4_14EndpointConfig3url
FNDA:0,_RNvMs_NtNtNtCs2meEIT43k6D_13nestgate_core6config8external7networkNtB4_14EndpointConfig8from_env
FNF:19
FNH:0
DA:61,0
DA:62,0
DA:64,0
DA:65,0
DA:66,0
DA:67,0
DA:68,0
DA:69,0
DA:70,0
DA:71,0
DA:73,0
DA:74,0
DA:75,0
DA:76,0
DA:78,0
DA:79,0
DA:80,0
DA:81,0
DA:83,0
DA:84,0
DA:85,0
DA:86,0
DA:87,0
DA:88,0
DA:90,0
DA:95,0
DA:97,0
DA:98,0
DA:99,0
DA:100,0
DA:101,0
DA:102,0
DA:103,0
DA:104,0
DA:105,0
DA:106,0
DA:107,0
DA:108,0
DA:109,0
DA:110,0
DA:111,0
DA:112,0
DA:113,0
DA:114,0
DA:115,0
DA:116,0
DA:117,0
DA:118,0
DA:119,0
DA:120,0
DA:121,0
DA:122,0
DA:123,0
DA:124,0
DA:131,0
DA:134,0
DA:135,0
DA:136,0
DA:137,0
DA:138,0
DA:140,0
DA:144,0
DA:145,0
DA:146,0
DA:150,0
DA:151,0
DA:152,0
DA:159,0
DA:160,0
DA:161,0
DA:165,0
DA:166,0
DA:167,0
DA:170,0
DA:174,0
DA:175,0
DA:176,0
DA:180,0
DA:181,0
DA:182,0
DA:186,0
DA:187,0
DA:188,0
DA:197,0
DA:199,0
DA:201,0
DA:202,0
DA:203,0
DA:204,0
DA:206,0
DA:208,0
DA:209,0
DA:216,0
DA:218,0
DA:220,0
DA:221,0
DA:222,0
DA:223,0
DA:224,0
DA:225,0
DA:226,0
DA:227,0
DA:228,0
DA:229,0
DA:230,0
DA:231,0
DA:232,0
DA:233,0
DA:235,0
DA:236,0
DA:237,0
DA:238,0
DA:239,0
DA:240,0
DA:241,0
DA:242,0
DA:243,0
DA:244,0
DA:245,0
DA:247,0
DA:248,0
DA:255,0
DA:256,0
DA:257,0
DA:258,0
DA:259,0
DA:260,0
DA:261,0
DA:265,0
DA:266,0
DA:267,0
BRF:0
BRH:0
LF:138
LH:0
end_of_record
SF:/home/eastgate/Development/ecoPrimals/nestgate/code/crates/nestgate-core/src/config/external/network_env_config.rs
FN:46,_RNCNvMNtNtNtCs2meEIT43k6D_13nestgate_core6config8external18network_env_configNtB4_16NetworkEnvConfig8from_env0Ba_
FN:62,_RNCNvMNtNtNtCs2meEIT43k6D_13nestgate_core6config8external18network_env_configNtB4_16NetworkEnvConfig8get_host0Ba_
FN:74,_RNCNvMNtNtNtCs2meEIT43k6D_13nestgate_core6config8external18network_env_configNtB4_16NetworkEnvConfig8has_host0Ba_
FN:89,_RNvMNtNtNtCs2meEIT43k6D_13nestgate_core6config8external18network_env_configNtB2_16NetworkEnvConfig13with_endpoint
FN:19,_RNvMNtNtNtCs2meEIT43k6D_13nestgate_core6config8external18network_env_configNtB2_16NetworkEnvConfig3new
FN:27,_RNvMNtNtNtCs2meEIT43k6D_13nestgate_core6config8external18network_env_configNtB2_16NetworkEnvConfig8from_env
FN:59,_RNvMNtNtNtCs2meEIT43k6D_13nestgate_core6config8external18network_env_configNtB2_16NetworkEnvConfig8get_host
FN:66,_RNvMNtNtNtCs2meEIT43k6D_13nestgate_core6config8external18network_env_configNtB2_16NetworkEnvConfig8get_port
FN:71,_RNvMNtNtNtCs2meEIT43k6D_13nestgate_core6config8external18network_env_configNtB2_16NetworkEnvConfig8has_host
FN:79,_RNvMNtNtNtCs2meEIT43k6D_13nestgate_core6config8external18network_env_configNtB2_16NetworkEnvConfig8has_port
FN:100,_RNvMNtNtNtCs2meEIT43k6D_13nestgate_core6config8external18network_env_configNtB2_16NetworkEnvConfig9with_host
FN:107,_RNvMNtNtNtCs2meEIT43k6D_13nestgate_core6config8external18network_env_configNtB2_16NetworkEnvConfig9with_port
FN:116,_RNvXs_NtNtNtCs2meEIT43k6D_13nestgate_core6config8external18network_env_configNtB4_16NetworkEnvConfigNtNtCs5GmCzIpY9Qj_4core7default7Default7default
FNDA:0,_RNCNvMNtNtNtCs2meEIT43k6D_13nestgate_core6config8external18network_env_configNtB4_16NetworkEnvConfig8from_env0Ba_
FNDA:0,_RNCNvMNtNtNtCs2meEIT43k6D_13nestgate_core6config8external18network_env_configNtB4_16NetworkEnvConfig8get_host0Ba_
FNDA:0,_RNCNvMNtNtNtCs2meEIT43k6D_13nestgate_core6config8external18network_env_configNtB4_16NetworkEnvConfig8has_host0Ba_
FNDA:0,_RNvMNtNtNtCs2meEIT43k6D_13nestgate_core6config8external18network_env_configNtB2_16NetworkEnvConfig13with_endpoint
FNDA:0,_RNvMNtNtNtCs2meEIT43k6D_13nestgate_core6config8external18network_env_configNtB2_16NetworkEnvConfig3new
FNDA:0,_RNvMNtNtNtCs2meEIT43k6D_13nestgate_core6config8external18network_env_configNtB2_16NetworkEnvConfig8from_env
FNDA:0,_RNvMNtNtNtCs2meEIT43k6D_13nestgate_core6config8external18network_env_configNtB2_16NetworkEnvConfig8get_host
FNDA:0,_RNvMNtNtNtCs2meEIT43k6D_13nestgate_core6config8external18network_env_configNtB2_16NetworkEnvConfig8get_port
FNDA:0,_RNvMNtNtNtCs2meEIT43k6D_13nestgate_core6config8external18network_env_configNtB2_16NetworkEnvConfig8has_host
FNDA:0,_RNvMNtNtNtCs2meEIT43k6D_13nestgate_core6config8external18network_env_configNtB2_16NetworkEnvConfig8has_port
FNDA:0,_RNvMNtNtNtCs2meEIT43k6D_13nestgate_core6config8external18network_env_configNtB2_16NetworkEnvConfig9with_host
FNDA:0,_RNvMNtNtNtCs2meEIT43k6D_13nestgate_core6config8external18network_env_configNtB2_16NetworkEnvConfig9with_port
FNDA:0,_RNvXs_NtNtNtCs2meEIT43k6D_13nestgate_core6config8external18network_env_configNtB4_16NetworkEnvConfigNtNtCs5GmCzIpY9Qj_4core7default7Default7default
FNF:13
FNH:0
DA:19,0
DA:20,0
DA:21,0
DA:22,0
DA:23,0
DA:27,0
DA:28,0
DA:31,0
DA:32,0
DA:33,0
DA:34,0
DA:35,0
DA:36,0
DA:37,0
DA:38,0
DA:39,0
DA:40,0
DA:42,0
DA:43,0
DA:44,0
DA:45,0
DA:46,0
DA:48,0
DA:49,0
DA:50,0
DA:53,0
DA:54,0
DA:59,0
DA:60,0
DA:61,0
DA:62,0
DA:63,0
DA:66,0
DA:67,0
DA:68,0
DA:71,0
DA:72,0
DA:73,0
DA:74,0
DA:75,0
DA:76,0
DA:79,0
DA:80,0
DA:81,0
DA:82,0
DA:83,0
DA:84,0
DA:89,0
DA:90,0
DA:91,0
DA:92,0
DA:93,0
DA:94,0
DA:95,0
DA:96,0
DA:97,0
DA:100,0
DA:101,0
DA:102,0
DA:103,0
DA:104,0
DA:107,0
DA:108,0
DA:109,0
DA:110,0
DA:111,0
DA:116,0
DA:117,0
DA:118,0
BRF:0
BRH:0
LF:72
LH:0
end_of_record
SF:/home/eastgate/Development/ecoPrimals/nestgate/code/crates/nestgate-core/src/config/external/services.rs
FN:264,_RNCNCNvMs0_NtNtNtCs2meEIT43k6D_13nestgate_core6config8external8servicesNtB9_14PrimalServices11from_config00Bf_
FN:270,_RNCNCNvMs0_NtNtNtCs2meEIT43k6D_13nestgate_core6config8external8servicesNtB9_14PrimalServices11from_configs0_00Bf_
FN:273,_RNCNCNvMs0_NtNtNtCs2meEIT43k6D_13nestgate_core6config8external8servicesNtB9_14PrimalServices11from_configs1_00Bf_
FN:276,_RNCNCNvMs0_NtNtNtCs2meEIT43k6D_13nestgate_core6config8external8servicesNtB9_14PrimalServices11from_configs2_00Bf_
FN:267,_RNCNCNvMs0_NtNtNtCs2meEIT43k6D_13nestgate_core6config8external8servicesNtB9_14PrimalServices11from_configs_00Bf_
FN:264,_RNCNvMs0_NtNtNtCs2meEIT43k6D_13nestgate_core6config8external8servicesNtB7_14PrimalServices11from_config0Bd_
FN:270,_RNCNvMs0_NtNtNtCs2meEIT43k6D_13nestgate_core6config8external8servicesNtB7_14PrimalServices11from_configs0_0Bd_
FN:273,_RNCNvMs0_NtNtNtCs2meEIT43k6D_13nestgate_core6config8external8servicesNtB7_14PrimalServices11from_configs1_0Bd_
FN:276,_RNCNvMs0_NtNtNtCs2meEIT43k6D_13nestgate_core6config8external8servicesNtB7_14PrimalServices11from_configs2_0Bd_
FN:267,_RNCNvMs0_NtNtNtCs2meEIT43k6D_13nestgate_core6config8external8servicesNtB7_14PrimalServices11from_configs_0Bd_
FN:196,_RNCNvMs_NtNtNtCs2meEIT43k6D_13nestgate_core6config8external8servicesNtB6_12CoreServices22from_config_production0Bc_
FN:220,_RNCNvMs_NtNtNtCs2meEIT43k6D_13nestgate_core6config8external8servicesNtB6_12CoreServices22from_config_productions0_0Bc_
FN:208,_RNCNvMs_NtNtNtCs2meEIT43k6D_13nestgate_core6config8external8servicesNtB6_12CoreServices22from_config_productions_0Bc_
FN:106,_RNvMNtNtNtCs2meEIT43k6D_13nestgate_core6config8external8servicesNtB2_16ServiceEndpoints11default_dev
FN:143,_RNvMNtNtNtCs2meEIT43k6D_13nestgate_core6config8external8servicesNtB2_16ServiceEndpoints15health_endpoint
FN:137,_RNvMNtNtNtCs2meEIT43k6D_13nestgate_core6config8external8servicesNtB2_16ServiceEndpoints16adapter_endpoint
FN:131,_RNvMNtNtNtCs2meEIT43k6D_13nestgate_core6config8external8servicesNtB2_16ServiceEndpoints18discovery_endpoint
FN:120,_RNvMNtNtNtCs2meEIT43k6D_13nestgate_core6config8external8servicesNtB2_16ServiceEndpoints19from_env_production
FN:95,_RNvMNtNtNtCs2meEIT43k6D_13nestgate_core6config8external8servicesNtB2_16ServiceEndpoints8from_env
FN:322,_RNvMs0_NtNtNtCs2meEIT43k6D_13nestgate_core6config8external8servicesNtB5_14PrimalServices10get_primal
FN:309,_RNvMs0_NtNtNtCs2meEIT43k6D_13nestgate_core6config8external8servicesNtB5_14PrimalServices10has_primal
FN:288,_RNvMs0_NtNtNtCs2meEIT43k6D_13nestgate_core6config8external8servicesNtB5_14PrimalServices11default_dev
FN:259,_RNvMs0_NtNtNtCs2meEIT43k6D_13nestgate_core6config8external8servicesNtB5_14PrimalServices11from_config
FN:303,_RNvMs0_NtNtNtCs2meEIT43k6D_13nestgate_core6config8external8servicesNtB5_14PrimalServices19from_env_production
FN:282,_RNvMs0_NtNtNtCs2meEIT43k6D_13nestgate_core6config8external8servicesNtB5_14PrimalServices8from_env
FN:175,_RNvMs_NtNtNtCs2meEIT43k6D_13nestgate_core6config8external8servicesNtB4_12CoreServices11default_dev
FN:154,_RNvMs_NtNtNtCs2meEIT43k6D_13nestgate_core6config8external8servicesNtB4_12CoreServices11from_config
FN:249,_RNvMs_NtNtNtCs2meEIT43k6D_13nestgate_core6config8external8servicesNtB4_12CoreServices19from_env_production
FN:195,_RNvMs_NtNtNtCs2meEIT43k6D_13nestgate_core6config8external8servicesNtB4_12CoreServices22from_config_production
FN:169,_RNvMs_NtNtNtCs2meEIT43k6D_13nestgate_core6config8external8servicesNtB4_12CoreServices8from_env
FNDA:0,_RNCNCNvMs0_NtNtNtCs2meEIT43k6D_13nestgate_core6config8external8servicesNtB9_14PrimalServices11from_config00Bf_
FNDA:0,_RNCNCNvMs0_NtNtNtCs2meEIT43k6D_13nestgate_core6config8external8servicesNtB9_14PrimalServices11from_configs0_00Bf_
FNDA:0,_RNCNCNvMs0_NtNtNtCs2meEIT43k6D_13nestgate_core6config8external8servicesNtB9_14PrimalServices11from_configs1_00Bf_
FNDA:0,_RNCNCNvMs0_NtNtNtCs2meEIT43k6D_13nestgate_core6config8external8servicesNtB9_14PrimalServices11from_configs2_00Bf_
FNDA:0,_RNCNCNvMs0_NtNtNtCs2meEIT43k6D_13nestgate_core6config8external8servicesNtB9_14PrimalServices11from_configs_00Bf_
FNDA:0,_RNCNvMs0_NtNtNtCs2meEIT43k6D_13nestgate_core6config8external8servicesNtB7_14PrimalServices11from_config0Bd_
FNDA:0,_RNCNvMs0_NtNtNtCs2meEIT43k6D_13nestgate_core6config8external8servicesNtB7_14PrimalServices11from_configs0_0Bd_
FNDA:0,_RNCNvMs0_NtNtNtCs2meEIT43k6D_13nestgate_core6config8external8servicesNtB7_14PrimalServices11from_configs1_0Bd_
FNDA:0,_RNCNvMs0_NtNtNtCs2meEIT43k6D_13nestgate_core6config8external8servicesNtB7_14PrimalServices11from_configs2_0Bd_
FNDA:0,_RNCNvMs0_NtNtNtCs2meEIT43k6D_13nestgate_core6config8external8servicesNtB7_14PrimalServices11from_configs_0Bd_
FNDA:0,_RNCNvMs_NtNtNtCs2meEIT43k6D_13nestgate_core6config8external8servicesNtB6_12CoreServices22from_config_production0Bc_
FNDA:0,_RNCNvMs_NtNtNtCs2meEIT43k6D_13nestgate_core6config8external8servicesNtB6_12CoreServices22from_config_productions0_0Bc_
FNDA:0,_RNCNvMs_NtNtNtCs2meEIT43k6D_13nestgate_core6config8external8servicesNtB6_12CoreServices22from_config_productions_0Bc_
FNDA:0,_RNvMNtNtNtCs2meEIT43k6D_13nestgate_core6config8external8servicesNtB2_16ServiceEndpoints11default_dev
FNDA:0,_RNvMNtNtNtCs2meEIT43k6D_13nestgate_core6config8external8servicesNtB2_16ServiceEndpoints15health_endpoint
FNDA:0,_RNvMNtNtNtCs2meEIT43k6D_13nestgate_core6config8external8servicesNtB2_16ServiceEndpoints16adapter_endpoint
FNDA:0,_RNvMNtNtNtCs2meEIT43k6D_13nestgate_core6config8external8servicesNtB2_16ServiceEndpoints18discovery_endpoint
FNDA:0,_RNvMNtNtNtCs2meEIT43k6D_13nestgate_core6config8external8servicesNtB2_16ServiceEndpoints19from_env_production
FNDA:0,_RNvMNtNtNtCs2meEIT43k6D_13nestgate_core6config8external8servicesNtB2_16ServiceEndpoints8from_env
FNDA:0,_RNvMs0_NtNtNtCs2meEIT43k6D_13nestgate_core6config8external8servicesNtB5_14PrimalServices10get_primal
FNDA:0,_RNvMs0_NtNtNtCs2meEIT43k6D_13nestgate_core6config8external8servicesNtB5_14PrimalServices10has_primal
FNDA:0,_RNvMs0_NtNtNtCs2meEIT43k6D_13nestgate_core6config8external8servicesNtB5_14PrimalServices11default_dev
FNDA:0,_RNvMs0_NtNtNtCs2meEIT43k6D_13nestgate_core6config8external8servicesNtB5_14PrimalServices11from_config
FNDA:0,_RNvMs0_NtNtNtCs2meEIT43k6D_13nestgate_core6config8external8servicesNtB5_14PrimalServices19from_env_production
FNDA:0,_RNvMs0_NtNtNtCs2meEIT43k6D_13nestgate_core6config8external8servicesNtB5_14PrimalServices8from_env
FNDA:0,_RNvMs_NtNtNtCs2meEIT43k6D_13nestgate_core6config8external8servicesNtB4_12CoreServices11default_dev
FNDA:0,_RNvMs_NtNtNtCs2meEIT43k6D_13nestgate_core6config8external8servicesNtB4_12CoreServices11from_config
FNDA:0,_RNvMs_NtNtNtCs2meEIT43k6D_13nestgate_core6config8external8servicesNtB4_12CoreServices19from_env_production
FNDA:0,_RNvMs_NtNtNtCs2meEIT43k6D_13nestgate_core6config8external8servicesNtB4_12CoreServices22from_config_production
FNDA:0,_RNvMs_NtNtNtCs2meEIT43k6D_13nestgate_core6config8external8servicesNtB4_12CoreServices8from_env
FNF:30
FNH:0
DA:95,0
DA:96,0
DA:98,0
DA:99,0
DA:100,0
DA:102,0
DA:106,0
DA:107,0
DA:108,0
DA:109,0
DA:110,0
DA:111,0
DA:112,0
DA:120,0
DA:121,0
DA:123,0
DA:124,0
DA:125,0
DA:127,0
DA:131,0
DA:132,0
DA:133,0
DA:137,0
DA:138,0
DA:139,0
DA:143,0
DA:144,0
DA:145,0
DA:154,0
DA:155,0
DA:156,0
DA:157,0
DA:158,0
DA:159,0
DA:160,0
DA:161,0
DA:162,0
DA:169,0
DA:170,0
DA:171,0
DA:175,0
DA:177,0
DA:178,0
DA:179,0
DA:181,0
DA:182,0
DA:183,0
DA:184,0
DA:185,0
DA:186,0
DA:187,0
DA:188,0
DA:195,0
DA:196,0
DA:197,0
DA:198,0
DA:199,0
DA:200,0
DA:201,0
DA:202,0
DA:203,0
DA:204,0
DA:205,0
DA:206,0
DA:208,0
DA:209,0
DA:210,0
DA:211,0
DA:212,0
DA:213,0
DA:214,0
DA:215,0
DA:216,0
DA:217,0
DA:218,0
DA:220,0
DA:221,0
DA:222,0
DA:223,0
DA:224,0
DA:225,0
DA:226,0
DA:227,0
DA:228,0
DA:229,0
DA:230,0
DA:232,0
DA:233,0
DA:235,0
DA:236,0
DA:237,0
DA:238,0
DA:239,0
DA:240,0
DA:241,0
DA:242,0
DA:249,0
DA:250,0
DA:251,0
DA:259,0
DA:262,0
DA:263,0
DA:264,0
DA:265,0
DA:266,0
DA:267,0
DA:268,0
DA:269,0
DA:270,0
DA:271,0
DA:272,0
DA:273,0
DA:274,0
DA:275,0
DA:276,0
DA:278,0
DA:282,0
DA:283,0
DA:284,0
DA:288,0
DA:289,0
DA:290,0
DA:291,0
DA:292,0
DA:293,0
DA:294,0
DA:295,0
DA:296,0
DA:303,0
DA:304,0
DA:305,0
DA:309,0
DA:310,0
DA:311,0
DA:312,0
DA:313,0
DA:314,0
DA:315,0
DA:316,0
DA:318,0
DA:322,0
DA:323,0
DA:324,0
DA:325,0
DA:326,0
DA:327,0
DA:328,0
DA:329,0
DA:331,0
BRF:0
BRH:0
LF:165
LH:0
end_of_record
SF:/home/eastgate/Development/ecoPrimals/nestgate/code/crates/nestgate-core/src/config/external/services_config.rs
FN:369,_RINvMNtNtNtCs2meEIT43k6D_13nestgate_core6config8external15services_configNtB3_14ServicesConfig15with_capabilityppEB9_
FN:197,_RNCNvMNtNtNtCs2meEIT43k6D_13nestgate_core6config8external15services_configNtB4_14ServicesConfig14get_config_url0Ba_
FN:178,_RNCNvMNtNtNtCs2meEIT43k6D_13nestgate_core6config8external15services_configNtB4_14ServicesConfig14get_health_url0Ba_
FN:167,_RNCNvMNtNtNtCs2meEIT43k6D_13nestgate_core6config8external15services_configNtB4_14ServicesConfig15get_adapter_url0Ba_
FN:189,_RNCNvMNtNtNtCs2meEIT43k6D_13nestgate_core6config8external15services_configNtB4_14ServicesConfig15get_metrics_url0Ba_
FN:156,_RNCNvMNtNtNtCs2meEIT43k6D_13nestgate_core6config8external15services_configNtB4_14ServicesConfig17get_discovery_url0Ba_
FN:321,_RNCNvMNtNtNtCs2meEIT43k6D_13nestgate_core6config8external15services_configNtB4_14ServicesConfig20get_external_service0Ba_
FN:122,_RNCNvMNtNtNtCs2meEIT43k6D_13nestgate_core6config8external15services_configNtB4_14ServicesConfig8from_env0Ba_
FN:134,_RNCNvMNtNtNtCs2meEIT43k6D_13nestgate_core6config8external15services_configNtB4_14ServicesConfig8from_envs0_0Ba_
FN:140,_RNCNvMNtNtNtCs2meEIT43k6D_13nestgate_core6config8external15services_configNtB4_14ServicesConfig8from_envs1_0Ba_
FN:146,_RNCNvMNtNtNtCs2meEIT43k6D_13nestgate_core6config8external15services_configNtB4_14ServicesConfig8from_envs2_0Ba_
FN:128,_RNCNvMNtNtNtCs2meEIT43k6D_13nestgate_core6config8external15services_configNtB4_14ServicesConfig8from_envs_0Ba_
FN:196,_RNvMNtNtNtCs2meEIT43k6D_13nestgate_core6config8external15services_configNtB2_14ServicesConfig14get_config_url
FN:177,_RNvMNtNtNtCs2meEIT43k6D_13nestgate_core6config8external15services_configNtB2_14ServicesConfig14get_health_url
FN:166,_RNvMNtNtNtCs2meEIT43k6D_13nestgate_core6config8external15services_configNtB2_14ServicesConfig15get_adapter_url
FN:291,_RNvMNtNtNtCs2meEIT43k6D_13nestgate_core6config8external15services_configNtB2_14ServicesConfig15get_beardog_url
FN:313,_RNvMNtNtNtCs2meEIT43k6D_13nestgate_core6config8external15services_configNtB2_14ServicesConfig15get_biomeos_url
FN:188,_RNvMNtNtNtCs2meEIT43k6D_13nestgate_core6config8external15services_configNtB2_14ServicesConfig15get_metrics_url
FN:356,_RNvMNtNtNtCs2meEIT43k6D_13nestgate_core6config8external15services_configNtB2_14ServicesConfig15with_config_url
FN:344,_RNvMNtNtNtCs2meEIT43k6D_13nestgate_core6config8external15services_configNtB2_14ServicesConfig15with_health_url
FN:269,_RNvMNtNtNtCs2meEIT43k6D_13nestgate_core6config8external15services_configNtB2_14ServicesConfig16get_songbird_url
FN:302,_RNvMNtNtNtCs2meEIT43k6D_13nestgate_core6config8external15services_configNtB2_14ServicesConfig16get_squirrel_url
FN:338,_RNvMNtNtNtCs2meEIT43k6D_13nestgate_core6config8external15services_configNtB2_14ServicesConfig16with_adapter_url
FN:411,_RNvMNtNtNtCs2meEIT43k6D_13nestgate_core6config8external15services_configNtB2_14ServicesConfig16with_beardog_url
FN:431,_RNvMNtNtNtCs2meEIT43k6D_13nestgate_core6config8external15services_configNtB2_14ServicesConfig16with_biomeos_url
FN:350,_RNvMNtNtNtCs2meEIT43k6D_13nestgate_core6config8external15services_configNtB2_14ServicesConfig16with_metrics_url
FN:155,_RNvMNtNtNtCs2meEIT43k6D_13nestgate_core6config8external15services_configNtB2_14ServicesConfig17get_discovery_url
FN:280,_RNvMNtNtNtCs2meEIT43k6D_13nestgate_core6config8external15services_configNtB2_14ServicesConfig17get_toadstool_url
FN:385,_RNvMNtNtNtCs2meEIT43k6D_13nestgate_core6config8external15services_configNtB2_14ServicesConfig17with_songbird_url
FN:424,_RNvMNtNtNtCs2meEIT43k6D_13nestgate_core6config8external15services_configNtB2_14ServicesConfig17with_squirrel_url
FN:247,_RNvMNtNtNtCs2meEIT43k6D_13nestgate_core6config8external15services_configNtB2_14ServicesConfig18get_capability_url
FN:332,_RNvMNtNtNtCs2meEIT43k6D_13nestgate_core6config8external15services_configNtB2_14ServicesConfig18with_discovery_url
FN:398,_RNvMNtNtNtCs2meEIT43k6D_13nestgate_core6config8external15services_configNtB2_14ServicesConfig18with_toadstool_url
FN:254,_RNvMNtNtNtCs2meEIT43k6D_13nestgate_core6config8external15services_configNtB2_14ServicesConfig20get_all_capabilities
FN:320,_RNvMNtNtNtCs2meEIT43k6D_13nestgate_core6config8external15services_configNtB2_14ServicesConfig20get_external_service
FN:437,_RNvMNtNtNtCs2meEIT43k6D_13nestgate_core6config8external15services_configNtB2_14ServicesConfig21with_external_service
FN:219,_RNvMNtNtNtCs2meEIT43k6D_13nestgate_core6config8external15services_configNtB2_14ServicesConfig23get_health_url_required
FN:214,_RNvMNtNtNtCs2meEIT43k6D_13nestgate_core6config8external15services_configNtB2_14ServicesConfig24get_adapter_url_required
FN:325,_RNvMNtNtNtCs2meEIT43k6D_13nestgate_core6config8external15services_configNtB2_14ServicesConfig25get_all_external_services
FN:209,_RNvMNtNtNtCs2meEIT43k6D_13nestgate_core6config8external15services_configNtB2_14ServicesConfig26get_discovery_url_required
FN:67,_RNvMNtNtNtCs2meEIT43k6D_13nestgate_core6config8external15services_configNtB2_14ServicesConfig3new
FN:86,_RNvMNtNtNtCs2meEIT43k6D_13nestgate_core6config8external15services_configNtB2_14ServicesConfig8from_env
FN:445,_RNvXs_NtNtNtCs2meEIT43k6D_13nestgate_core6config8external15services_configNtB4_14ServicesConfigNtNtCs5GmCzIpY9Qj_4core7default7Default7default
FNDA:0,_RINvMNtNtNtCs2meEIT43k6D_13nestgate_core6config8external15services_configNtB3_14ServicesConfig15with_capabilityppEB9_
FNDA:0,_RNCNvMNtNtNtCs2meEIT43k6D_13nestgate_core6config8external15services_configNtB4_14ServicesConfig14get_config_url0Ba_
FNDA:0,_RNCNvMNtNtNtCs2meEIT43k6D_13nestgate_core6config8external15services_configNtB4_14ServicesConfig14get_health_url0Ba_
FNDA:0,_RNCNvMNtNtNtCs2meEIT43k6D_13nestgate_core6config8external15services_configNtB4_14ServicesConfig15get_adapter_url0Ba_
FNDA:0,_RNCNvMNtNtNtCs2meEIT43k6D_13nestgate_core6config8external15services_configNtB4_14ServicesConfig15get_metrics_url0Ba_
FNDA:0,_RNCNvMNtNtNtCs2meEIT43k6D_13nestgate_core6config8external15services_configNtB4_14ServicesConfig17get_discovery_url0Ba_
FNDA:0,_RNCNvMNtNtNtCs2meEIT43k6D_13nestgate_core6config8external15services_configNtB4_14ServicesConfig20get_external_service0Ba_
FNDA:0,_RNCNvMNtNtNtCs2meEIT43k6D_13nestgate_core6config8external15services_configNtB4_14ServicesConfig8from_env0Ba_
FNDA:0,_RNCNvMNtNtNtCs2meEIT43k6D_13nestgate_core6config8external15services_configNtB4_14ServicesConfig8from_envs0_0Ba_
FNDA:0,_RNCNvMNtNtNtCs2meEIT43k6D_13nestgate_core6config8external15services_configNtB4_14ServicesConfig8from_envs1_0Ba_
FNDA:0,_RNCNvMNtNtNtCs2meEIT43k6D_13nestgate_core6config8external15services_configNtB4_14ServicesConfig8from_envs2_0Ba_
FNDA:0,_RNCNvMNtNtNtCs2meEIT43k6D_13nestgate_core6config8external15services_configNtB4_14ServicesConfig8from_envs_0Ba_
FNDA:0,_RNvMNtNtNtCs2meEIT43k6D_13nestgate_core6config8external15services_configNtB2_14ServicesConfig14get_config_url
FNDA:0,_RNvMNtNtNtCs2meEIT43k6D_13nestgate_core6config8external15services_configNtB2_14ServicesConfig14get_health_url
FNDA:0,_RNvMNtNtNtCs2meEIT43k6D_13nestgate_core6config8external15services_configNtB2_14ServicesConfig15get_adapter_url
FNDA:0,_RNvMNtNtNtCs2meEIT43k6D_13nestgate_core6config8external15services_configNtB2_14ServicesConfig15get_beardog_url
FNDA:0,_RNvMNtNtNtCs2meEIT43k6D_13nestgate_core6config8external15services_configNtB2_14ServicesConfig15get_biomeos_url
FNDA:0,_RNvMNtNtNtCs2meEIT43k6D_13nestgate_core6config8external15services_configNtB2_14ServicesConfig15get_metrics_url
FNDA:0,_RNvMNtNtNtCs2meEIT43k6D_13nestgate_core6config8external15services_configNtB2_14ServicesConfig15with_config_url
FNDA:0,_RNvMNtNtNtCs2meEIT43k6D_13nestgate_core6config8external15services_configNtB2_14ServicesConfig15with_health_url
FNDA:0,_RNvMNtNtNtCs2meEIT43k6D_13nestgate_core6config8external15services_configNtB2_14ServicesConfig16get_songbird_url
FNDA:0,_RNvMNtNtNtCs2meEIT43k6D_13nestgate_core6config8external15services_configNtB2_14ServicesConfig16get_squirrel_url
FNDA:0,_RNvMNtNtNtCs2meEIT43k6D_13nestgate_core6config8external15services_configNtB2_14ServicesConfig16with_adapter_url
FNDA:0,_RNvMNtNtNtCs2meEIT43k6D_13nestgate_core6config8external15services_configNtB2_14ServicesConfig16with_beardog_url
FNDA:0,_RNvMNtNtNtCs2meEIT43k6D_13nestgate_core6config8external15services_configNtB2_14ServicesConfig16with_biomeos_url
FNDA:0,_RNvMNtNtNtCs2meEIT43k6D_13nestgate_core6config8external15services_configNtB2_14ServicesConfig16with_metrics_url
FNDA:0,_RNvMNtNtNtCs2meEIT43k6D_13nestgate_core6config8external15services_configNtB2_14ServicesConfig17get_discovery_url
FNDA:0,_RNvMNtNtNtCs2meEIT43k6D_13nestgate_core6config8external15services_configNtB2_14ServicesConfig17get_toadstool_url
FNDA:0,_RNvMNtNtNtCs2meEIT43k6D_13nestgate_core6config8external15services_configNtB2_14ServicesConfig17with_songbird_url
FNDA:0,_RNvMNtNtNtCs2meEIT43k6D_13nestgate_core6config8external15services_configNtB2_14ServicesConfig17with_squirrel_url
FNDA:0,_RNvMNtNtNtCs2meEIT43k6D_13nestgate_core6config8external15services_configNtB2_14ServicesConfig18get_capability_url
FNDA:0,_RNvMNtNtNtCs2meEIT43k6D_13nestgate_core6config8external15services_configNtB2_14ServicesConfig18with_discovery_url
FNDA:0,_RNvMNtNtNtCs2meEIT43k6D_13nestgate_core6config8external15services_configNtB2_14ServicesConfig18with_toadstool_url
FNDA:0,_RNvMNtNtNtCs2meEIT43k6D_13nestgate_core6config8external15services_configNtB2_14ServicesConfig20get_all_capabilities
FNDA:0,_RNvMNtNtNtCs2meEIT43k6D_13nestgate_core6config8external15services_configNtB2_14ServicesConfig20get_external_service
FNDA:0,_RNvMNtNtNtCs2meEIT43k6D_13nestgate_core6config8external15services_configNtB2_14ServicesConfig21with_external_service
FNDA:0,_RNvMNtNtNtCs2meEIT43k6D_13nestgate_core6config8external15services_configNtB2_14ServicesConfig23get_health_url_required
FNDA:0,_RNvMNtNtNtCs2meEIT43k6D_13nestgate_core6config8external15services_configNtB2_14ServicesConfig24get_adapter_url_required
FNDA:0,_RNvMNtNtNtCs2meEIT43k6D_13nestgate_core6config8external15services_configNtB2_14ServicesConfig25get_all_external_services
FNDA:0,_RNvMNtNtNtCs2meEIT43k6D_13nestgate_core6config8external15services_configNtB2_14ServicesConfig26get_discovery_url_required
FNDA:0,_RNvMNtNtNtCs2meEIT43k6D_13nestgate_core6config8external15services_configNtB2_14ServicesConfig3new
FNDA:0,_RNvMNtNtNtCs2meEIT43k6D_13nestgate_core6config8external15services_configNtB2_14ServicesConfig8from_env
FNDA:0,_RNvXs_NtNtNtCs2meEIT43k6D_13nestgate_core6config8external15services_configNtB4_14ServicesConfigNtNtCs5GmCzIpY9Qj_4core7default7Default7default
FNF:43
FNH:0
DA:67,0
DA:68,0
DA:69,0
DA:70,0
DA:71,0
DA:72,0
DA:73,0
DA:74,0
DA:75,0
DA:76,0
DA:77,0
DA:78,0
DA:79,0
DA:80,0
DA:81,0
DA:82,0
DA:86,0
DA:87,0
DA:90,0
DA:91,0
DA:92,0
DA:93,0
DA:94,0
DA:97,0
DA:98,0
DA:99,0
DA:100,0
DA:101,0
DA:104,0
DA:105,0
DA:106,0
DA:107,0
DA:111,0
DA:112,0
DA:113,0
DA:114,0
DA:118,0
DA:119,0
DA:120,0
DA:121,0
DA:122,0
DA:123,0
DA:124,0
DA:125,0
DA:126,0
DA:127,0
DA:128,0
DA:129,0
DA:130,0
DA:131,0
DA:132,0
DA:133,0
DA:134,0
DA:135,0
DA:136,0
DA:137,0
DA:138,0
DA:139,0
DA:140,0
DA:141,0
DA:142,0
DA:143,0
DA:144,0
DA:145,0
DA:146,0
DA:147,0
DA:149,0
DA:150,0
DA:155,0
DA:156,0
DA:157,0
DA:158,0
DA:159,0
DA:160,0
DA:162,0
DA:163,0
DA:166,0
DA:167,0
DA:168,0
DA:169,0
DA:170,0
DA:171,0
DA:173,0
DA:174,0
DA:177,0
DA:178,0
DA:179,0
DA:180,0
DA:181,0
DA:182,0
DA:184,0
DA:185,0
DA:188,0
DA:189,0
DA:190,0
DA:191,0
DA:192,0
DA:193,0
DA:196,0
DA:197,0
DA:198,0
DA:199,0
DA:200,0
DA:201,0
DA:203,0
DA:204,0
DA:209,0
DA:210,0
DA:211,0
DA:214,0
DA:215,0
DA:216,0
DA:219,0
DA:220,0
DA:221,0
DA:247,0
DA:248,0
DA:249,0
DA:254,0
DA:255,0
DA:256,0
DA:269,0
DA:270,0
DA:271,0
DA:280,0
DA:281,0
DA:282,0
DA:291,0
DA:292,0
DA:293,0
DA:302,0
DA:303,0
DA:304,0
DA:313,0
DA:314,0
DA:315,0
DA:320,0
DA:321,0
DA:322,0
DA:325,0
DA:326,0
DA:327,0
DA:332,0
DA:333,0
DA:334,0
DA:335,0
DA:338,0
DA:339,0
DA:340,0
DA:341,0
DA:344,0
DA:345,0
DA:346,0
DA:347,0
DA:350,0
DA:351,0
DA:352,0
DA:353,0
DA:356,0
DA:357,0
DA:358,0
DA:359,0
DA:369,0
DA:370,0
DA:371,0
DA:372,0
DA:373,0
DA:374,0
DA:375,0
DA:376,0
DA:385,0
DA:386,0
DA:387,0
DA:388,0
DA:389,0
DA:398,0
DA:399,0
DA:400,0
DA:401,0
DA:402,0
DA:411,0
DA:412,0
DA:413,0
DA:414,0
DA:415,0
DA:424,0
DA:425,0
DA:426,0
DA:427,0
DA:428,0
DA:431,0
DA:432,0
DA:433,0
DA:434,0
DA:437,0
DA:438,0
DA:439,0
DA:440,0
DA:445,0
DA:446,0
DA:447,0
BRF:0
BRH:0
LF:212
LH:0
end_of_record
SF:/home/eastgate/Development/ecoPrimals/nestgate/code/crates/nestgate-core/src/config/federation.rs
FN:243,_RNCNvMs2_NtNtCs2meEIT43k6D_13nestgate_core6config10federationNtB7_21McpCapabilitiesConfig11remove_tier0Bb_
FN:231,_RNCNvMs2_NtNtCs2meEIT43k6D_13nestgate_core6config10federationNtB7_21McpCapabilitiesConfig15remove_protocol0Bb_
FN:305,_RNCNvMs3_NtNtCs2meEIT43k6D_13nestgate_core6config10federationNtB7_16FederationConfig11remove_peer0Bb_
FNDA:0,_RNCNvMs2_NtNtCs2meEIT43k6D_13nestgate_core6config10federationNtB7_21McpCapabilitiesConfig11remove_tier0Bb_
FNDA:0,_RNCNvMs2_NtNtCs2meEIT43k6D_13nestgate_core6config10federationNtB7_21McpCapabilitiesConfig15remove_protocol0Bb_
FNDA:0,_RNCNvMs3_NtNtCs2meEIT43k6D_13nestgate_core6config10federationNtB7_16FederationConfig11remove_peer0Bb_
FNF:3
FNH:0
DA:231,0
DA:243,0
DA:305,0
BRF:0
BRH:0
LF:3
LH:0
end_of_record
SF:/home/eastgate/Development/ecoPrimals/nestgate/code/crates/nestgate-core/src/config/migration_bridge.rs
FN:47,_RNCNvNtNtCs2meEIT43k6D_13nestgate_core6config16migration_bridge13global_config0B7_
FN:91,_RNvNtNtCs2meEIT43k6D_13nestgate_core6config16migration_bridge12get_api_host
FN:79,_RNvNtNtCs2meEIT43k6D_13nestgate_core6config16migration_bridge12get_api_port
FN:147,_RNvNtNtCs2meEIT43k6D_13nestgate_core6config16migration_bridge12get_data_dir
FN:135,_RNvNtNtCs2meEIT43k6D_13nestgate_core6config16migration_bridge12get_zfs_pool
FN:46,_RNvNtNtCs2meEIT43k6D_13nestgate_core6config16migration_bridge13global_config
FN:103,_RNvNtNtCs2meEIT43k6D_13nestgate_core6config16migration_bridge16get_bind_address
FN:121,_RNvNtNtCs2meEIT43k6D_13nestgate_core6config16migration_bridge16get_metrics_port
FN:161,_RNvNtNtCs2meEIT43k6D_13nestgate_core6config16migration_bridge16get_timeout_secs
FN:207,_RNvNtNtCs2meEIT43k6D_13nestgate_core6config16migration_bridge17reset_for_testing
FN:173,_RNvNtNtCs2meEIT43k6D_13nestgate_core6config16migration_bridge21get_read_timeout_secs
FN:194,_RNvNtNtCs2meEIT43k6D_13nestgate_core6config16migration_bridge6config
FNDA:0,_RNCNvNtNtCs2meEIT43k6D_13nestgate_core6config16migration_bridge13global_config0B7_
FNDA:0,_RNvNtNtCs2meEIT43k6D_13nestgate_core6config16migration_bridge12get_api_host
FNDA:0,_RNvNtNtCs2meEIT43k6D_13nestgate_core6config16migration_bridge12get_api_port
FNDA:0,_RNvNtNtCs2meEIT43k6D_13nestgate_core6config16migration_bridge12get_data_dir
FNDA:0,_RNvNtNtCs2meEIT43k6D_13nestgate_core6config16migration_bridge12get_zfs_pool
FNDA:0,_RNvNtNtCs2meEIT43k6D_13nestgate_core6config16migration_bridge13global_config
FNDA:0,_RNvNtNtCs2meEIT43k6D_13nestgate_core6config16migration_bridge16get_bind_address
FNDA:0,_RNvNtNtCs2meEIT43k6D_13nestgate_core6config16migration_bridge16get_metrics_port
FNDA:0,_RNvNtNtCs2meEIT43k6D_13nestgate_core6config16migration_bridge16get_timeout_secs
FNDA:0,_RNvNtNtCs2meEIT43k6D_13nestgate_core6config16migration_bridge17reset_for_testing
FNDA:0,_RNvNtNtCs2meEIT43k6D_13nestgate_core6config16migration_bridge21get_read_timeout_secs
FNDA:0,_RNvNtNtCs2meEIT43k6D_13nestgate_core6config16migration_bridge6config
FNF:12
FNH:0
DA:46,0
DA:47,0
DA:48,0
DA:49,0
DA:50,0
DA:51,0
DA:52,0
DA:53,0
DA:55,0
DA:56,0
DA:79,0
DA:80,0
DA:81,0
DA:91,0
DA:92,0
DA:93,0
DA:103,0
DA:104,0
DA:105,0
DA:106,0
DA:107,0
DA:109,0
DA:121,0
DA:122,0
DA:123,0
DA:135,0
DA:136,0
DA:137,0
DA:147,0
DA:148,0
DA:149,0
DA:161,0
DA:162,0
DA:163,0
DA:173,0
DA:174,0
DA:175,0
DA:194,0
DA:195,0
DA:196,0
DA:207,0
DA:210,0
DA:211,0
DA:212,0
BRF:0
BRH:0
LF:45
LH:0
end_of_record
SF:/home/eastgate/Development/ecoPrimals/nestgate/code/crates/nestgate-core/src/config/mod.rs
FN:136,_RNvNtCs2meEIT43k6D_13nestgate_core6config21create_default_config
FN:179,_RNvNtCs2meEIT43k6D_13nestgate_core6config21create_testing_config
FN:145,_RNvNtCs2meEIT43k6D_13nestgate_core6config24create_production_config
FN:166,_RNvNtCs2meEIT43k6D_13nestgate_core6config25create_development_config
FN:301,_RNvXNtCs2meEIT43k6D_13nestgate_core6configNtB2_21InfantDiscoveryConfigNtNtCs5GmCzIpY9Qj_4core7default7Default7default
FNDA:0,_RNvNtCs2meEIT43k6D_13nestgate_core6config21create_default_config
FNDA:0,_RNvNtCs2meEIT43k6D_13nestgate_core6config21create_testing_config
FNDA:0,_RNvNtCs2meEIT43k6D_13nestgate_core6config24create_production_config
FNDA:0,_RNvNtCs2meEIT43k6D_13nestgate_core6config25create_development_config
FNDA:0,_RNvXNtCs2meEIT43k6D_13nestgate_core6configNtB2_21InfantDiscoveryConfigNtNtCs5GmCzIpY9Qj_4core7default7Default7default
FNF:5
FNH:0
DA:136,0
DA:137,0
DA:138,0
DA:145,0
DA:146,0
DA:147,0
DA:148,0
DA:149,0
DA:150,0
DA:151,0
DA:152,0
DA:153,0
DA:154,0
DA:155,0
DA:156,0
DA:157,0
DA:158,0
DA:159,0
DA:166,0
DA:167,0
DA:168,0
DA:169,0
DA:170,0
DA:171,0
DA:172,0
DA:179,0
DA:180,0
DA:181,0
DA:182,0
DA:183,0
DA:184,0
DA:185,0
DA:186,0
DA:187,0
DA:188,0
DA:189,0
DA:190,0
DA:191,0
DA:192,0
DA:301,0
DA:302,0
DA:303,0
DA:304,0
DA:305,0
DA:306,0
DA:307,0
DA:308,0
BRF:0
BRH:0
LF:47
LH:0
end_of_record
SF:/home/eastgate/Development/ecoPrimals/nestgate/code/crates/nestgate-core/src/config/monitoring_env_config.rs
FN:44,_RNCNvMNtNtCs2meEIT43k6D_13nestgate_core6config21monitoring_env_configNtB4_19MonitoringEnvConfig8from_env0B8_
FN:53,_RNvMNtNtCs2meEIT43k6D_13nestgate_core6config21monitoring_env_configNtB2_19MonitoringEnvConfig23log_rotation_size_bytes
FN:70,_RNvMNtNtCs2meEIT43k6D_13nestgate_core6config21monitoring_env_configNtB2_19MonitoringEnvConfig28with_log_rotation_size_bytes
FN:41,_RNvMNtNtCs2meEIT43k6D_13nestgate_core6config21monitoring_env_configNtB2_19MonitoringEnvConfig8from_env
FN:78,_RNvXs_NtNtCs2meEIT43k6D_13nestgate_core6config21monitoring_env_configNtB4_19MonitoringEnvConfigNtNtCs5GmCzIpY9Qj_4core7default7Default7default
FNDA:0,_RNCNvMNtNtCs2meEIT43k6D_13nestgate_core6config21monitoring_env_configNtB4_19MonitoringEnvConfig8from_env0B8_
FNDA:0,_RNvMNtNtCs2meEIT43k6D_13nestgate_core6config21monitoring_env_configNtB2_19MonitoringEnvConfig23log_rotation_size_bytes
FNDA:0,_RNvMNtNtCs2meEIT43k6D_13nestgate_core6config21monitoring_env_configNtB2_19MonitoringEnvConfig28with_log_rotation_size_bytes
FNDA:0,_RNvMNtNtCs2meEIT43k6D_13nestgate_core6config21monitoring_env_configNtB2_19MonitoringEnvConfig8from_env
FNDA:0,_RNvXs_NtNtCs2meEIT43k6D_13nestgate_core6config21monitoring_env_configNtB4_19MonitoringEnvConfigNtNtCs5GmCzIpY9Qj_4core7default7Default7default
FNF:5
FNH:0
DA:41,0
DA:42,0
DA:43,0
DA:44,0
DA:45,0
DA:47,0
DA:48,0
DA:49,0
DA:50,0
DA:53,0
DA:54,0
DA:55,0
DA:70,0
DA:71,0
DA:72,0
DA:73,0
DA:78,0
DA:79,0
DA:80,0
BRF:0
BRH:0
LF:20
LH:0
end_of_record
SF:/home/eastgate/Development/ecoPrimals/nestgate/code/crates/nestgate-core/src/config/network_defaults.rs
FN:211,_RNvNtNtCs2meEIT43k6D_13nestgate_core6config16network_defaults10health_url
FN:187,_RNvNtNtCs2meEIT43k6D_13nestgate_core6config16network_defaults11health_port
FN:123,_RNvNtNtCs2meEIT43k6D_13nestgate_core6config16network_defaults12metrics_port
FN:225,_RNvNtNtCs2meEIT43k6D_13nestgate_core6config16network_defaults12storage_port
FN:173,_RNvNtNtCs2meEIT43k6D_13nestgate_core6config16network_defaults13websocket_url
FN:298,_RNvNtNtCs2meEIT43k6D_13nestgate_core6config16network_defaults14bind_localhost
FN:149,_RNvNtNtCs2meEIT43k6D_13nestgate_core6config16network_defaults14websocket_port
FN:97,_RNvNtNtCs2meEIT43k6D_13nestgate_core6config16network_defaults16api_bind_address
FN:251,_RNvNtNtCs2meEIT43k6D_13nestgate_core6config16network_defaults18connect_timeout_ms
FN:263,_RNvNtNtCs2meEIT43k6D_13nestgate_core6config16network_defaults18request_timeout_ms
FN:290,_RNvNtNtCs2meEIT43k6D_13nestgate_core6config16network_defaults19bind_all_interfaces
FN:199,_RNvNtNtCs2meEIT43k6D_13nestgate_core6config16network_defaults19health_bind_address
FN:135,_RNvNtNtCs2meEIT43k6D_13nestgate_core6config16network_defaults20metrics_bind_address
FN:237,_RNvNtNtCs2meEIT43k6D_13nestgate_core6config16network_defaults20storage_bind_address
FN:161,_RNvNtNtCs2meEIT43k6D_13nestgate_core6config16network_defaults22websocket_bind_address
FN:275,_RNvNtNtCs2meEIT43k6D_13nestgate_core6config16network_defaults25long_operation_timeout_ms
FN:109,_RNvNtNtCs2meEIT43k6D_13nestgate_core6config16network_defaults7api_url
FN:73,_RNvNtNtCs2meEIT43k6D_13nestgate_core6config16network_defaults8api_host
FN:85,_RNvNtNtCs2meEIT43k6D_13nestgate_core6config16network_defaults8api_port
FNDA:0,_RNvNtNtCs2meEIT43k6D_13nestgate_core6config16network_defaults10health_url
FNDA:0,_RNvNtNtCs2meEIT43k6D_13nestgate_core6config16network_defaults11health_port
FNDA:0,_RNvNtNtCs2meEIT43k6D_13nestgate_core6config16network_defaults12metrics_port
FNDA:0,_RNvNtNtCs2meEIT43k6D_13nestgate_core6config16network_defaults12storage_port
FNDA:0,_RNvNtNtCs2meEIT43k6D_13nestgate_core6config16network_defaults13websocket_url
FNDA:0,_RNvNtNtCs2meEIT43k6D_13nestgate_core6config16network_defaults14bind_localhost
FNDA:0,_RNvNtNtCs2meEIT43k6D_13nestgate_core6config16network_defaults14websocket_port
FNDA:0,_RNvNtNtCs2meEIT43k6D_13nestgate_core6config16network_defaults16api_bind_address
FNDA:0,_RNvNtNtCs2meEIT43k6D_13nestgate_core6config16network_defaults18connect_timeout_ms
FNDA:0,_RNvNtNtCs2meEIT43k6D_13nestgate_core6config16network_defaults18request_timeout_ms
FNDA:0,_RNvNtNtCs2meEIT43k6D_13nestgate_core6config16network_defaults19bind_all_interfaces
FNDA:0,_RNvNtNtCs2meEIT43k6D_13nestgate_core6config16network_defaults19health_bind_address
FNDA:0,_RNvNtNtCs2meEIT43k6D_13nestgate_core6config16network_defaults20metrics_bind_address
FNDA:0,_RNvNtNtCs2meEIT43k6D_13nestgate_core6config16network_defaults20storage_bind_address
FNDA:0,_RNvNtNtCs2meEIT43k6D_13nestgate_core6config16network_defaults22websocket_bind_address
FNDA:0,_RNvNtNtCs2meEIT43k6D_13nestgate_core6config16network_defaults25long_operation_timeout_ms
FNDA:0,_RNvNtNtCs2meEIT43k6D_13nestgate_core6config16network_defaults7api_url
FNDA:0,_RNvNtNtCs2meEIT43k6D_13nestgate_core6config16network_defaults8api_host
FNDA:0,_RNvNtNtCs2meEIT43k6D_13nestgate_core6config16network_defaults8api_port
FNF:19
FNH:0
DA:73,0
DA:74,0
DA:75,0
DA:85,0
DA:86,0
DA:87,0
DA:97,0
DA:98,0
DA:99,0
DA:109,0
DA:110,0
DA:111,0
DA:123,0
DA:124,0
DA:125,0
DA:135,0
DA:136,0
DA:137,0
DA:149,0
DA:150,0
DA:151,0
DA:161,0
DA:162,0
DA:163,0
DA:173,0
DA:174,0
DA:175,0
DA:187,0
DA:188,0
DA:189,0
DA:199,0
DA:200,0
DA:201,0
DA:211,0
DA:212,0
DA:213,0
DA:225,0
DA:226,0
DA:227,0
DA:237,0
DA:238,0
DA:239,0
DA:251,0
DA:252,0
DA:253,0
DA:263,0
DA:264,0
DA:265,0
DA:275,0
DA:276,0
DA:277,0
DA:290,0
DA:291,0
DA:292,0
DA:298,0
DA:299,0
DA:300,0
BRF:0
BRH:0
LF:57
LH:0
end_of_record
SF:/home/eastgate/Development/ecoPrimals/nestgate/code/crates/nestgate-core/src/config/network_defaults_v2_config.rs
FN:233,_RNCNvMNtNtCs2meEIT43k6D_13nestgate_core6config26network_defaults_v2_configNtB4_23NetworkDefaultsV2Config10health_url0B8_
FN:211,_RNCNvMNtNtCs2meEIT43k6D_13nestgate_core6config26network_defaults_v2_configNtB4_23NetworkDefaultsV2Config13websocket_url0B8_
FN:167,_RNCNvMNtNtCs2meEIT43k6D_13nestgate_core6config26network_defaults_v2_configNtB4_23NetworkDefaultsV2Config16api_bind_address0B8_
FN:225,_RNCNvMNtNtCs2meEIT43k6D_13nestgate_core6config26network_defaults_v2_configNtB4_23NetworkDefaultsV2Config19health_bind_address0B8_
FN:189,_RNCNvMNtNtCs2meEIT43k6D_13nestgate_core6config26network_defaults_v2_configNtB4_23NetworkDefaultsV2Config20metrics_bind_address0B8_
FN:247,_RNCNvMNtNtCs2meEIT43k6D_13nestgate_core6config26network_defaults_v2_configNtB4_23NetworkDefaultsV2Config20storage_bind_address0B8_
FN:203,_RNCNvMNtNtCs2meEIT43k6D_13nestgate_core6config26network_defaults_v2_configNtB4_23NetworkDefaultsV2Config22websocket_bind_address0B8_
FN:175,_RNCNvMNtNtCs2meEIT43k6D_13nestgate_core6config26network_defaults_v2_configNtB4_23NetworkDefaultsV2Config7api_url0B8_
FN:98,_RNCNvMNtNtCs2meEIT43k6D_13nestgate_core6config26network_defaults_v2_configNtB4_23NetworkDefaultsV2Config8from_env0B8_
FN:115,_RNCNvMNtNtCs2meEIT43k6D_13nestgate_core6config26network_defaults_v2_configNtB4_23NetworkDefaultsV2Config8from_envs0_0B8_
FN:122,_RNCNvMNtNtCs2meEIT43k6D_13nestgate_core6config26network_defaults_v2_configNtB4_23NetworkDefaultsV2Config8from_envs1_0B8_
FN:129,_RNCNvMNtNtCs2meEIT43k6D_13nestgate_core6config26network_defaults_v2_configNtB4_23NetworkDefaultsV2Config8from_envs2_0B8_
FN:135,_RNCNvMNtNtCs2meEIT43k6D_13nestgate_core6config26network_defaults_v2_configNtB4_23NetworkDefaultsV2Config8from_envs3_0B8_
FN:139,_RNCNvMNtNtCs2meEIT43k6D_13nestgate_core6config26network_defaults_v2_configNtB4_23NetworkDefaultsV2Config8from_envs4_0B8_
FN:143,_RNCNvMNtNtCs2meEIT43k6D_13nestgate_core6config26network_defaults_v2_configNtB4_23NetworkDefaultsV2Config8from_envs5_0B8_
FN:109,_RNCNvMNtNtCs2meEIT43k6D_13nestgate_core6config26network_defaults_v2_configNtB4_23NetworkDefaultsV2Config8from_envs_0B8_
FN:230,_RNvMNtNtCs2meEIT43k6D_13nestgate_core6config26network_defaults_v2_configNtB2_23NetworkDefaultsV2Config10health_url
FN:216,_RNvMNtNtCs2meEIT43k6D_13nestgate_core6config26network_defaults_v2_configNtB2_23NetworkDefaultsV2Config11health_port
FN:180,_RNvMNtNtCs2meEIT43k6D_13nestgate_core6config26network_defaults_v2_configNtB2_23NetworkDefaultsV2Config12metrics_port
FN:238,_RNvMNtNtCs2meEIT43k6D_13nestgate_core6config26network_defaults_v2_configNtB2_23NetworkDefaultsV2Config12storage_port
FN:208,_RNvMNtNtCs2meEIT43k6D_13nestgate_core6config26network_defaults_v2_configNtB2_23NetworkDefaultsV2Config13websocket_url
FN:272,_RNvMNtNtCs2meEIT43k6D_13nestgate_core6config26network_defaults_v2_configNtB2_23NetworkDefaultsV2Config13with_api_host
FN:279,_RNvMNtNtCs2meEIT43k6D_13nestgate_core6config26network_defaults_v2_configNtB2_23NetworkDefaultsV2Config13with_api_port
FN:194,_RNvMNtNtCs2meEIT43k6D_13nestgate_core6config26network_defaults_v2_configNtB2_23NetworkDefaultsV2Config14websocket_port
FN:164,_RNvMNtNtCs2meEIT43k6D_13nestgate_core6config26network_defaults_v2_configNtB2_23NetworkDefaultsV2Config16api_bind_address
FN:300,_RNvMNtNtCs2meEIT43k6D_13nestgate_core6config26network_defaults_v2_configNtB2_23NetworkDefaultsV2Config16with_health_port
FN:286,_RNvMNtNtCs2meEIT43k6D_13nestgate_core6config26network_defaults_v2_configNtB2_23NetworkDefaultsV2Config17with_metrics_port
FN:307,_RNvMNtNtCs2meEIT43k6D_13nestgate_core6config26network_defaults_v2_configNtB2_23NetworkDefaultsV2Config17with_storage_port
FN:252,_RNvMNtNtCs2meEIT43k6D_13nestgate_core6config26network_defaults_v2_configNtB2_23NetworkDefaultsV2Config18connect_timeout_ms
FN:258,_RNvMNtNtCs2meEIT43k6D_13nestgate_core6config26network_defaults_v2_configNtB2_23NetworkDefaultsV2Config18request_timeout_ms
FN:222,_RNvMNtNtCs2meEIT43k6D_13nestgate_core6config26network_defaults_v2_configNtB2_23NetworkDefaultsV2Config19health_bind_address
FN:293,_RNvMNtNtCs2meEIT43k6D_13nestgate_core6config26network_defaults_v2_configNtB2_23NetworkDefaultsV2Config19with_websocket_port
FN:186,_RNvMNtNtCs2meEIT43k6D_13nestgate_core6config26network_defaults_v2_configNtB2_23NetworkDefaultsV2Config20metrics_bind_address
FN:244,_RNvMNtNtCs2meEIT43k6D_13nestgate_core6config26network_defaults_v2_configNtB2_23NetworkDefaultsV2Config20storage_bind_address
FN:200,_RNvMNtNtCs2meEIT43k6D_13nestgate_core6config26network_defaults_v2_configNtB2_23NetworkDefaultsV2Config22websocket_bind_address
FN:314,_RNvMNtNtCs2meEIT43k6D_13nestgate_core6config26network_defaults_v2_configNtB2_23NetworkDefaultsV2Config23with_connect_timeout_ms
FN:321,_RNvMNtNtCs2meEIT43k6D_13nestgate_core6config26network_defaults_v2_configNtB2_23NetworkDefaultsV2Config23with_request_timeout_ms
FN:264,_RNvMNtNtCs2meEIT43k6D_13nestgate_core6config26network_defaults_v2_configNtB2_23NetworkDefaultsV2Config25long_operation_timeout_ms
FN:328,_RNvMNtNtCs2meEIT43k6D_13nestgate_core6config26network_defaults_v2_configNtB2_23NetworkDefaultsV2Config30with_long_operation_timeout_ms
FN:53,_RNvMNtNtCs2meEIT43k6D_13nestgate_core6config26network_defaults_v2_configNtB2_23NetworkDefaultsV2Config3new
FN:172,_RNvMNtNtCs2meEIT43k6D_13nestgate_core6config26network_defaults_v2_configNtB2_23NetworkDefaultsV2Config7api_url
FN:152,_RNvMNtNtCs2meEIT43k6D_13nestgate_core6config26network_defaults_v2_configNtB2_23NetworkDefaultsV2Config8api_host
FN:158,_RNvMNtNtCs2meEIT43k6D_13nestgate_core6config26network_defaults_v2_configNtB2_23NetworkDefaultsV2Config8api_port
FN:88,_RNvMNtNtCs2meEIT43k6D_13nestgate_core6config26network_defaults_v2_configNtB2_23NetworkDefaultsV2Config8from_env
FN:336,_RNvXs_NtNtCs2meEIT43k6D_13nestgate_core6config26network_defaults_v2_configNtB4_23NetworkDefaultsV2ConfigNtNtCs5GmCzIpY9Qj_4core7default7Default7default
FNDA:0,_RNCNvMNtNtCs2meEIT43k6D_13nestgate_core6config26network_defaults_v2_configNtB4_23NetworkDefaultsV2Config10health_url0B8_
FNDA:0,_RNCNvMNtNtCs2meEIT43k6D_13nestgate_core6config26network_defaults_v2_configNtB4_23NetworkDefaultsV2Config13websocket_url0B8_
FNDA:0,_RNCNvMNtNtCs2meEIT43k6D_13nestgate_core6config26network_defaults_v2_configNtB4_23NetworkDefaultsV2Config16api_bind_address0B8_
FNDA:0,_RNCNvMNtNtCs2meEIT43k6D_13nestgate_core6config26network_defaults_v2_configNtB4_23NetworkDefaultsV2Config19health_bind_address0B8_
FNDA:0,_RNCNvMNtNtCs2meEIT43k6D_13nestgate_core6config26network_defaults_v2_configNtB4_23NetworkDefaultsV2Config20metrics_bind_address0B8_
FNDA:0,_RNCNvMNtNtCs2meEIT43k6D_13nestgate_core6config26network_defaults_v2_configNtB4_23NetworkDefaultsV2Config20storage_bind_address0B8_
FNDA:0,_RNCNvMNtNtCs2meEIT43k6D_13nestgate_core6config26network_defaults_v2_configNtB4_23NetworkDefaultsV2Config22websocket_bind_address0B8_
FNDA:0,_RNCNvMNtNtCs2meEIT43k6D_13nestgate_core6config26network_defaults_v2_configNtB4_23NetworkDefaultsV2Config7api_url0B8_
FNDA:0,_RNCNvMNtNtCs2meEIT43k6D_13nestgate_core6config26network_defaults_v2_configNtB4_23NetworkDefaultsV2Config8from_env0B8_
FNDA:0,_RNCNvMNtNtCs2meEIT43k6D_13nestgate_core6config26network_defaults_v2_configNtB4_23NetworkDefaultsV2Config8from_envs0_0B8_
FNDA:0,_RNCNvMNtNtCs2meEIT43k6D_13nestgate_core6config26network_defaults_v2_configNtB4_23NetworkDefaultsV2Config8from_envs1_0B8_
FNDA:0,_RNCNvMNtNtCs2meEIT43k6D_13nestgate_core6config26network_defaults_v2_configNtB4_23NetworkDefaultsV2Config8from_envs2_0B8_
FNDA:0,_RNCNvMNtNtCs2meEIT43k6D_13nestgate_core6config26network_defaults_v2_configNtB4_23NetworkDefaultsV2Config8from_envs3_0B8_
FNDA:0,_RNCNvMNtNtCs2meEIT43k6D_13nestgate_core6config26network_defaults_v2_configNtB4_23NetworkDefaultsV2Config8from_envs4_0B8_
FNDA:0,_RNCNvMNtNtCs2meEIT43k6D_13nestgate_core6config26network_defaults_v2_configNtB4_23NetworkDefaultsV2Config8from_envs5_0B8_
FNDA:0,_RNCNvMNtNtCs2meEIT43k6D_13nestgate_core6config26network_defaults_v2_configNtB4_23NetworkDefaultsV2Config8from_envs_0B8_
FNDA:0,_RNvMNtNtCs2meEIT43k6D_13nestgate_core6config26network_defaults_v2_configNtB2_23NetworkDefaultsV2Config10health_url
FNDA:0,_RNvMNtNtCs2meEIT43k6D_13nestgate_core6config26network_defaults_v2_configNtB2_23NetworkDefaultsV2Config11health_port
FNDA:0,_RNvMNtNtCs2meEIT43k6D_13nestgate_core6config26network_defaults_v2_configNtB2_23NetworkDefaultsV2Config12metrics_port
FNDA:0,_RNvMNtNtCs2meEIT43k6D_13nestgate_core6config26network_defaults_v2_configNtB2_23NetworkDefaultsV2Config12storage_port
FNDA:0,_RNvMNtNtCs2meEIT43k6D_13nestgate_core6config26network_defaults_v2_configNtB2_23NetworkDefaultsV2Config13websocket_url
FNDA:0,_RNvMNtNtCs2meEIT43k6D_13nestgate_core6config26network_defaults_v2_configNtB2_23NetworkDefaultsV2Config13with_api_host
FNDA:0,_RNvMNtNtCs2meEIT43k6D_13nestgate_core6config26network_defaults_v2_configNtB2_23NetworkDefaultsV2Config13with_api_port
FNDA:0,_RNvMNtNtCs2meEIT43k6D_13nestgate_core6config26network_defaults_v2_configNtB2_23NetworkDefaultsV2Config14websocket_port
FNDA:0,_RNvMNtNtCs2meEIT43k6D_13nestgate_core6config26network_defaults_v2_configNtB2_23NetworkDefaultsV2Config16api_bind_address
FNDA:0,_RNvMNtNtCs2meEIT43k6D_13nestgate_core6config26network_defaults_v2_configNtB2_23NetworkDefaultsV2Config16with_health_port
FNDA:0,_RNvMNtNtCs2meEIT43k6D_13nestgate_core6config26network_defaults_v2_configNtB2_23NetworkDefaultsV2Config17with_metrics_port
FNDA:0,_RNvMNtNtCs2meEIT43k6D_13nestgate_core6config26network_defaults_v2_configNtB2_23NetworkDefaultsV2Config17with_storage_port
FNDA:0,_RNvMNtNtCs2meEIT43k6D_13nestgate_core6config26network_defaults_v2_configNtB2_23NetworkDefaultsV2Config18connect_timeout_ms
FNDA:0,_RNvMNtNtCs2meEIT43k6D_13nestgate_core6config26network_defaults_v2_configNtB2_23NetworkDefaultsV2Config18request_timeout_ms
FNDA:0,_RNvMNtNtCs2meEIT43k6D_13nestgate_core6config26network_defaults_v2_configNtB2_23NetworkDefaultsV2Config19health_bind_address
FNDA:0,_RNvMNtNtCs2meEIT43k6D_13nestgate_core6config26network_defaults_v2_configNtB2_23NetworkDefaultsV2Config19with_websocket_port
FNDA:0,_RNvMNtNtCs2meEIT43k6D_13nestgate_core6config26network_defaults_v2_configNtB2_23NetworkDefaultsV2Config20metrics_bind_address
FNDA:0,_RNvMNtNtCs2meEIT43k6D_13nestgate_core6config26network_defaults_v2_configNtB2_23NetworkDefaultsV2Config20storage_bind_address
FNDA:0,_RNvMNtNtCs2meEIT43k6D_13nestgate_core6config26network_defaults_v2_configNtB2_23NetworkDefaultsV2Config22websocket_bind_address
FNDA:0,_RNvMNtNtCs2meEIT43k6D_13nestgate_core6config26network_defaults_v2_configNtB2_23NetworkDefaultsV2Config23with_connect_timeout_ms
FNDA:0,_RNvMNtNtCs2meEIT43k6D_13nestgate_core6config26network_defaults_v2_configNtB2_23NetworkDefaultsV2Config23with_request_timeout_ms
FNDA:0,_RNvMNtNtCs2meEIT43k6D_13nestgate_core6config26network_defaults_v2_configNtB2_23NetworkDefaultsV2Config25long_operation_timeout_ms
FNDA:0,_RNvMNtNtCs2meEIT43k6D_13nestgate_core6config26network_defaults_v2_configNtB2_23NetworkDefaultsV2Config30with_long_operation_timeout_ms
FNDA:0,_RNvMNtNtCs2meEIT43k6D_13nestgate_core6config26network_defaults_v2_configNtB2_23NetworkDefaultsV2Config3new
FNDA:0,_RNvMNtNtCs2meEIT43k6D_13nestgate_core6config26network_defaults_v2_configNtB2_23NetworkDefaultsV2Config7api_url
FNDA:0,_RNvMNtNtCs2meEIT43k6D_13nestgate_core6config26network_defaults_v2_configNtB2_23NetworkDefaultsV2Config8api_host
FNDA:0,_RNvMNtNtCs2meEIT43k6D_13nestgate_core6config26network_defaults_v2_configNtB2_23NetworkDefaultsV2Config8api_port
FNDA:0,_RNvMNtNtCs2meEIT43k6D_13nestgate_core6config26network_defaults_v2_configNtB2_23NetworkDefaultsV2Config8from_env
FNDA:0,_RNvXs_NtNtCs2meEIT43k6D_13nestgate_core6config26network_defaults_v2_configNtB4_23NetworkDefaultsV2ConfigNtNtCs5GmCzIpY9Qj_4core7default7Default7default
FNF:45
FNH:0
DA:53,0
DA:54,0
DA:55,0
DA:56,0
DA:57,0
DA:58,0
DA:59,0
DA:60,0
DA:61,0
DA:62,0
DA:63,0
DA:64,0
DA:65,0
DA:66,0
DA:67,0
DA:68,0
DA:69,0
DA:70,0
DA:71,0
DA:72,0
DA:73,0
DA:74,0
DA:75,0
DA:76,0
DA:77,0
DA:78,0
DA:79,0
DA:80,0
DA:81,0
DA:82,0
DA:83,0
DA:84,0
DA:88,0
DA:89,0
DA:90,0
DA:91,0
DA:93,0
DA:96,0
DA:97,0
DA:98,0
DA:99,0
DA:102,0
DA:103,0
DA:104,0
DA:105,0
DA:107,0
DA:108,0
DA:109,0
DA:110,0
DA:111,0
DA:113,0
DA:114,0
DA:115,0
DA:116,0
DA:117,0
DA:118,0
DA:120,0
DA:121,0
DA:122,0
DA:123,0
DA:124,0
DA:125,0
DA:127,0
DA:128,0
DA:129,0
DA:130,0
DA:131,0
DA:133,0
DA:134,0
DA:135,0
DA:136,0
DA:137,0
DA:138,0
DA:139,0
DA:140,0
DA:141,0
DA:142,0
DA:143,0
DA:144,0
DA:146,0
DA:152,0
DA:153,0
DA:154,0
DA:158,0
DA:159,0
DA:160,0
DA:164,0
DA:165,0
DA:166,0
DA:167,0
DA:168,0
DA:172,0
DA:173,0
DA:174,0
DA:175,0
DA:176,0
DA:180,0
DA:181,0
DA:182,0
DA:186,0
DA:187,0
DA:188,0
DA:189,0
DA:190,0
DA:194,0
DA:195,0
DA:196,0
DA:200,0
DA:201,0
DA:202,0
DA:203,0
DA:204,0
DA:208,0
DA:209,0
DA:210,0
DA:211,0
DA:212,0
DA:216,0
DA:217,0
DA:218,0
DA:222,0
DA:223,0
DA:224,0
DA:225,0
DA:226,0
DA:230,0
DA:231,0
DA:232,0
DA:233,0
DA:234,0
DA:238,0
DA:239,0
DA:240,0
DA:244,0
DA:245,0
DA:246,0
DA:247,0
DA:248,0
DA:252,0
DA:253,0
DA:254,0
DA:258,0
DA:259,0
DA:260,0
DA:264,0
DA:265,0
DA:266,0
DA:272,0
DA:273,0
DA:274,0
DA:275,0
DA:279,0
DA:280,0
DA:281,0
DA:282,0
DA:286,0
DA:287,0
DA:288,0
DA:289,0
DA:293,0
DA:294,0
DA:295,0
DA:296,0
DA:300,0
DA:301,0
DA:302,0
DA:303,0
DA:307,0
DA:308,0
DA:309,0
DA:310,0
DA:314,0
DA:315,0
DA:316,0
DA:317,0
DA:321,0
DA:322,0
DA:323,0
DA:324,0
DA:328,0
DA:329,0
DA:330,0
DA:331,0
DA:336,0
DA:337,0
DA:338,0
BRF:0
BRH:0
LF:202
LH:0
end_of_record
SF:/home/eastgate/Development/ecoPrimals/nestgate/code/crates/nestgate-core/src/config/port_migration.rs
FN:60,_RINvNtNtCs2meEIT43k6D_13nestgate_core6config14port_migration21get_api_port_migratedpEB6_
FN:96,_RINvNtNtCs2meEIT43k6D_13nestgate_core6config14port_migration23get_admin_port_migratedpEB6_
FN:150,_RINvNtNtCs2meEIT43k6D_13nestgate_core6config14port_migration23resolve_capability_portpEB6_
FN:84,_RINvNtNtCs2meEIT43k6D_13nestgate_core6config14port_migration24get_health_port_migratedpEB6_
FN:72,_RINvNtNtCs2meEIT43k6D_13nestgate_core6config14port_migration25get_metrics_port_migratedpEB6_
FN:119,_RINvNtNtCs2meEIT43k6D_13nestgate_core6config14port_migration27resolve_capability_endpointpEB6_
FN:62,_RNCINvNtNtCs2meEIT43k6D_13nestgate_core6config14port_migration21get_api_port_migratedpE0B8_
FN:98,_RNCINvNtNtCs2meEIT43k6D_13nestgate_core6config14port_migration23get_admin_port_migratedpE0B8_
FN:153,_RNCINvNtNtCs2meEIT43k6D_13nestgate_core6config14port_migration23resolve_capability_portpE0B8_
FN:86,_RNCINvNtNtCs2meEIT43k6D_13nestgate_core6config14port_migration24get_health_port_migratedpE0B8_
FN:74,_RNCINvNtNtCs2meEIT43k6D_13nestgate_core6config14port_migration25get_metrics_port_migratedpE0B8_
FN:122,_RNCINvNtNtCs2meEIT43k6D_13nestgate_core6config14port_migration27resolve_capability_endpointpE0B8_
FNDA:0,_RINvNtNtCs2meEIT43k6D_13nestgate_core6config14port_migration21get_api_port_migratedpEB6_
FNDA:0,_RINvNtNtCs2meEIT43k6D_13nestgate_core6config14port_migration23get_admin_port_migratedpEB6_
FNDA:0,_RINvNtNtCs2meEIT43k6D_13nestgate_core6config14port_migration23resolve_capability_portpEB6_
FNDA:0,_RINvNtNtCs2meEIT43k6D_13nestgate_core6config14port_migration24get_health_port_migratedpEB6_
FNDA:0,_RINvNtNtCs2meEIT43k6D_13nestgate_core6config14port_migration25get_metrics_port_migratedpEB6_
FNDA:0,_RINvNtNtCs2meEIT43k6D_13nestgate_core6config14port_migration27resolve_capability_endpointpEB6_
FNDA:0,_RNCINvNtNtCs2meEIT43k6D_13nestgate_core6config14port_migration21get_api_port_migratedpE0B8_
FNDA:0,_RNCINvNtNtCs2meEIT43k6D_13nestgate_core6config14port_migration23get_admin_port_migratedpE0B8_
FNDA:0,_RNCINvNtNtCs2meEIT43k6D_13nestgate_core6config14port_migration23resolve_capability_portpE0B8_
FNDA:0,_RNCINvNtNtCs2meEIT43k6D_13nestgate_core6config14port_migration24get_health_port_migratedpE0B8_
FNDA:0,_RNCINvNtNtCs2meEIT43k6D_13nestgate_core6config14port_migration25get_metrics_port_migratedpE0B8_
FNDA:0,_RNCINvNtNtCs2meEIT43k6D_13nestgate_core6config14port_migration27resolve_capability_endpointpE0B8_
FNF:12
FNH:0
DA:60,0
DA:61,0
DA:62,0
DA:63,0
DA:64,0
DA:72,0
DA:73,0
DA:74,0
DA:75,0
DA:76,0
DA:84,0
DA:85,0
DA:86,0
DA:87,0
DA:88,0
DA:96,0
DA:97,0
DA:98,0
DA:99,0
DA:100,0
DA:119,0
DA:120,0
DA:121,0
DA:122,0
DA:123,0
DA:124,0
DA:150,0
DA:151,0
DA:152,0
DA:153,0
DA:154,0
DA:155,0
BRF:0
BRH:0
LF:38
LH:0
end_of_record
SF:/home/eastgate/Development/ecoPrimals/nestgate/code/crates/nestgate-core/src/config/runtime/cache.rs
FN:36,_RNCNvMNtNtNtCs2meEIT43k6D_13nestgate_core6config7runtime5cacheNtB4_11CacheConfig16from_environment0Ba_
FN:43,_RNCNvMNtNtNtCs2meEIT43k6D_13nestgate_core6config7runtime5cacheNtB4_11CacheConfig16from_environments0_0Ba_
FN:47,_RNCNvMNtNtNtCs2meEIT43k6D_13nestgate_core6config7runtime5cacheNtB4_11CacheConfig16from_environments1_0Ba_
FN:39,_RNCNvMNtNtNtCs2meEIT43k6D_13nestgate_core6config7runtime5cacheNtB4_11CacheConfig16from_environments_0Ba_
FN:34,_RNvMNtNtNtCs2meEIT43k6D_13nestgate_core6config7runtime5cacheNtB2_11CacheConfig16from_environment
FN:54,_RNvMNtNtNtCs2meEIT43k6D_13nestgate_core6config7runtime5cacheNtB2_11CacheConfig9redis_url
FN:60,_RNvXs_NtNtNtCs2meEIT43k6D_13nestgate_core6config7runtime5cacheNtB4_11CacheConfigNtNtCs5GmCzIpY9Qj_4core7default7Default7default
FNDA:0,_RNCNvMNtNtNtCs2meEIT43k6D_13nestgate_core6config7runtime5cacheNtB4_11CacheConfig16from_environment0Ba_
FNDA:0,_RNCNvMNtNtNtCs2meEIT43k6D_13nestgate_core6config7runtime5cacheNtB4_11CacheConfig16from_environments0_0Ba_
FNDA:0,_RNCNvMNtNtNtCs2meEIT43k6D_13nestgate_core6config7runtime5cacheNtB4_11CacheConfig16from_environments1_0Ba_
FNDA:0,_RNCNvMNtNtNtCs2meEIT43k6D_13nestgate_core6config7runtime5cacheNtB4_11CacheConfig16from_environments_0Ba_
FNDA:0,_RNvMNtNtNtCs2meEIT43k6D_13nestgate_core6config7runtime5cacheNtB2_11CacheConfig16from_environment
FNDA:0,_RNvMNtNtNtCs2meEIT43k6D_13nestgate_core6config7runtime5cacheNtB2_11CacheConfig9redis_url
FNDA:0,_RNvXs_NtNtNtCs2meEIT43k6D_13nestgate_core6config7runtime5cacheNtB4_11CacheConfigNtNtCs5GmCzIpY9Qj_4core7default7Default7default
FNF:7
FNH:0
DA:34,0
DA:36,0
DA:37,0
DA:38,0
DA:39,0
DA:40,0
DA:41,0
DA:42,0
DA:43,0
DA:44,0
DA:45,0
DA:46,0
DA:47,0
DA:48,0
DA:50,0
DA:54,0
DA:55,0
DA:56,0
DA:60,0
DA:61,0
DA:62,0
DA:63,0
DA:64,0
DA:65,0
DA:66,0
DA:67,0
BRF:0
BRH:0
LF:30
LH:0
end_of_record
SF:/home/eastgate/Development/ecoPrimals/nestgate/code/crates/nestgate-core/src/config/runtime/database.rs
FN:49,_RNCNvMNtNtNtCs2meEIT43k6D_13nestgate_core6config7runtime8databaseNtB4_14DatabaseConfig16from_environment0Ba_
FN:54,_RNCNvMNtNtNtCs2meEIT43k6D_13nestgate_core6config7runtime8databaseNtB4_14DatabaseConfig16from_environments0_0Ba_
FN:55,_RNCNvMNtNtNtCs2meEIT43k6D_13nestgate_core6config7runtime8databaseNtB4_14DatabaseConfig16from_environments1_0Ba_
FN:59,_RNCNvMNtNtNtCs2meEIT43k6D_13nestgate_core6config7runtime8databaseNtB4_14DatabaseConfig16from_environments2_0Ba_
FN:63,_RNCNvMNtNtNtCs2meEIT43k6D_13nestgate_core6config7runtime8databaseNtB4_14DatabaseConfig16from_environments3_0Ba_
FN:52,_RNCNvMNtNtNtCs2meEIT43k6D_13nestgate_core6config7runtime8databaseNtB4_14DatabaseConfig16from_environments_0Ba_
FN:70,_RNvMNtNtNtCs2meEIT43k6D_13nestgate_core6config7runtime8databaseNtB2_14DatabaseConfig14connection_url
FN:47,_RNvMNtNtNtCs2meEIT43k6D_13nestgate_core6config7runtime8databaseNtB2_14DatabaseConfig16from_environment
FN:79,_RNvXs_NtNtNtCs2meEIT43k6D_13nestgate_core6config7runtime8databaseNtB4_14DatabaseConfigNtNtCs5GmCzIpY9Qj_4core7default7Default7default
FNDA:0,_RNCNvMNtNtNtCs2meEIT43k6D_13nestgate_core6config7runtime8databaseNtB4_14DatabaseConfig16from_environment0Ba_
FNDA:0,_RNCNvMNtNtNtCs2meEIT43k6D_13nestgate_core6config7runtime8databaseNtB4_14DatabaseConfig16from_environments0_0Ba_
FNDA:0,_RNCNvMNtNtNtCs2meEIT43k6D_13nestgate_core6config7runtime8databaseNtB4_14DatabaseConfig16from_environments1_0Ba_
FNDA:0,_RNCNvMNtNtNtCs2meEIT43k6D_13nestgate_core6config7runtime8databaseNtB4_14DatabaseConfig16from_environments2_0Ba_
FNDA:0,_RNCNvMNtNtNtCs2meEIT43k6D_13nestgate_core6config7runtime8databaseNtB4_14DatabaseConfig16from_environments3_0Ba_
FNDA:0,_RNCNvMNtNtNtCs2meEIT43k6D_13nestgate_core6config7runtime8databaseNtB4_14DatabaseConfig16from_environments_0Ba_
FNDA:0,_RNvMNtNtNtCs2meEIT43k6D_13nestgate_core6config7runtime8databaseNtB2_14DatabaseConfig14connection_url
FNDA:0,_RNvMNtNtNtCs2meEIT43k6D_13nestgate_core6config7runtime8databaseNtB2_14DatabaseConfig16from_environment
FNDA:0,_RNvXs_NtNtNtCs2meEIT43k6D_13nestgate_core6config7runtime8databaseNtB4_14DatabaseConfigNtNtCs5GmCzIpY9Qj_4core7default7Default7default
FNF:9
FNH:0
DA:47,0
DA:49,0
DA:50,0
DA:51,0
DA:52,0
DA:53,0
DA:54,0
DA:55,0
DA:56,0
DA:57,0
DA:58,0
DA:59,0
DA:60,0
DA:61,0
DA:62,0
DA:63,0
DA:64,0
DA:66,0
DA:70,0
DA:71,0
DA:72,0
DA:75,0
DA:79,0
DA:80,0
DA:81,0
DA:82,0
DA:83,0
DA:84,0
DA:85,0
DA:86,0
DA:87,0
DA:88,0
DA:89,0
BRF:0
BRH:0
LF:39
LH:0
end_of_record
SF:/home/eastgate/Development/ecoPrimals/nestgate/code/crates/nestgate-core/src/config/runtime/mod.rs
FN:172,_RNCNvNtNtCs2meEIT43k6D_13nestgate_core6config7runtime10get_config0B7_
FN:154,_RNCNvNtNtCs2meEIT43k6D_13nestgate_core6config7runtime11init_config0B7_
FN:214,_RNCNvNtNtCs2meEIT43k6D_13nestgate_core6config7runtime23capability_url_or_local0B7_
FN:133,_RNvMNtNtCs2meEIT43k6D_13nestgate_core6config7runtimeNtB2_21NestGateRuntimeConfig16from_environment
FN:171,_RNvNtNtCs2meEIT43k6D_13nestgate_core6config7runtime10get_config
FN:153,_RNvNtNtCs2meEIT43k6D_13nestgate_core6config7runtime11init_config
FN:184,_RNvNtNtCs2meEIT43k6D_13nestgate_core6config7runtime12api_base_url
FN:202,_RNvNtNtCs2meEIT43k6D_13nestgate_core6config7runtime14capability_url
FN:212,_RNvNtNtCs2meEIT43k6D_13nestgate_core6config7runtime23capability_url_or_local
FN:194,_RNvNtNtCs2meEIT43k6D_13nestgate_core6config7runtime8api_port
FNDA:0,_RNCNvNtNtCs2meEIT43k6D_13nestgate_core6config7runtime10get_config0B7_
FNDA:0,_RNCNvNtNtCs2meEIT43k6D_13nestgate_core6config7runtime11init_config0B7_
FNDA:0,_RNCNvNtNtCs2meEIT43k6D_13nestgate_core6config7runtime23capability_url_or_local0B7_
FNDA:0,_RNvMNtNtCs2meEIT43k6D_13nestgate_core6config7runtimeNtB2_21NestGateRuntimeConfig16from_environment
FNDA:0,_RNvNtNtCs2meEIT43k6D_13nestgate_core6config7runtime10get_config
FNDA:0,_RNvNtNtCs2meEIT43k6D_13nestgate_core6config7runtime11init_config
FNDA:0,_RNvNtNtCs2meEIT43k6D_13nestgate_core6config7runtime12api_base_url
FNDA:0,_RNvNtNtCs2meEIT43k6D_13nestgate_core6config7runtime14capability_url
FNDA:0,_RNvNtNtCs2meEIT43k6D_13nestgate_core6config7runtime23capability_url_or_local
FNDA:0,_RNvNtNtCs2meEIT43k6D_13nestgate_core6config7runtime8api_port
FNF:10
FNH:0
DA:133,0
DA:135,0
DA:136,0
DA:137,0
DA:138,0
DA:139,0
DA:140,0
DA:141,0
DA:143,0
DA:153,0
DA:154,0
DA:155,0
DA:156,0
DA:157,0
DA:158,0
DA:159,0
DA:171,0
DA:172,0
DA:173,0
DA:174,0
DA:175,0
DA:176,0
DA:184,0
DA:185,0
DA:186,0
DA:187,0
DA:190,0
DA:194,0
DA:195,0
DA:196,0
DA:202,0
DA:203,0
DA:204,0
DA:205,0
DA:206,0
DA:207,0
DA:208,0
DA:212,0
DA:213,0
DA:214,0
DA:215,0
BRF:0
BRH:0
LF:44
LH:0
end_of_record
SF:/home/eastgate/Development/ecoPrimals/nestgate/code/crates/nestgate-core/src/config/runtime/monitoring.rs
FN:38,_RNCNvMNtNtNtCs2meEIT43k6D_13nestgate_core6config7runtime10monitoringNtB4_16MonitoringConfig16from_environment0Ba_
FN:44,_RNCNvMNtNtNtCs2meEIT43k6D_13nestgate_core6config7runtime10monitoringNtB4_16MonitoringConfig16from_environments0_0Ba_
FN:47,_RNCNvMNtNtNtCs2meEIT43k6D_13nestgate_core6config7runtime10monitoringNtB4_16MonitoringConfig16from_environments1_0Ba_
FN:42,_RNCNvMNtNtNtCs2meEIT43k6D_13nestgate_core6config7runtime10monitoringNtB4_16MonitoringConfig16from_environments_0Ba_
FN:34,_RNvMNtNtNtCs2meEIT43k6D_13nestgate_core6config7runtime10monitoringNtB2_16MonitoringConfig16from_environment
FN:54,_RNvXs_NtNtNtCs2meEIT43k6D_13nestgate_core6config7runtime10monitoringNtB4_16MonitoringConfigNtNtCs5GmCzIpY9Qj_4core7default7Default7default
FNDA:0,_RNCNvMNtNtNtCs2meEIT43k6D_13nestgate_core6config7runtime10monitoringNtB4_16MonitoringConfig16from_environment0Ba_
FNDA:0,_RNCNvMNtNtNtCs2meEIT43k6D_13nestgate_core6config7runtime10monitoringNtB4_16MonitoringConfig16from_environments0_0Ba_
FNDA:0,_RNCNvMNtNtNtCs2meEIT43k6D_13nestgate_core6config7runtime10monitoringNtB4_16MonitoringConfig16from_environments1_0Ba_
FNDA:0,_RNCNvMNtNtNtCs2meEIT43k6D_13nestgate_core6config7runtime10monitoringNtB4_16MonitoringConfig16from_environments_0Ba_
FNDA:0,_RNvMNtNtNtCs2meEIT43k6D_13nestgate_core6config7runtime10monitoringNtB2_16MonitoringConfig16from_environment
FNDA:0,_RNvXs_NtNtNtCs2meEIT43k6D_13nestgate_core6config7runtime10monitoringNtB4_16MonitoringConfigNtNtCs5GmCzIpY9Qj_4core7default7Default7default
FNF:6
FNH:0
DA:34,0
DA:36,0
DA:37,0
DA:38,0
DA:39,0
DA:40,0
DA:41,0
DA:42,0
DA:43,0
DA:44,0
DA:45,0
DA:46,0
DA:47,0
DA:48,0
DA:50,0
DA:54,0
DA:55,0
DA:56,0
DA:57,0
DA:58,0
DA:59,0
DA:60,0
DA:61,0
BRF:0
BRH:0
LF:27
LH:0
end_of_record
SF:/home/eastgate/Development/ecoPrimals/nestgate/code/crates/nestgate-core/src/config/runtime/network.rs
FN:88,_RNCNvMNtNtNtCs2meEIT43k6D_13nestgate_core6config7runtime7networkNtB4_13NetworkConfig16from_environment0Ba_
FN:101,_RNCNvMNtNtNtCs2meEIT43k6D_13nestgate_core6config7runtime7networkNtB4_13NetworkConfig16from_environments0_0Ba_
FN:106,_RNCNvMNtNtNtCs2meEIT43k6D_13nestgate_core6config7runtime7networkNtB4_13NetworkConfig16from_environments1_0Ba_
FN:111,_RNCNvMNtNtNtCs2meEIT43k6D_13nestgate_core6config7runtime7networkNtB4_13NetworkConfig16from_environments2_0Ba_
FN:116,_RNCNvMNtNtNtCs2meEIT43k6D_13nestgate_core6config7runtime7networkNtB4_13NetworkConfig16from_environments3_0Ba_
FN:121,_RNCNvMNtNtNtCs2meEIT43k6D_13nestgate_core6config7runtime7networkNtB4_13NetworkConfig16from_environments4_0Ba_
FN:126,_RNCNvMNtNtNtCs2meEIT43k6D_13nestgate_core6config7runtime7networkNtB4_13NetworkConfig16from_environments5_0Ba_
FN:131,_RNCNvMNtNtNtCs2meEIT43k6D_13nestgate_core6config7runtime7networkNtB4_13NetworkConfig16from_environments6_0Ba_
FN:136,_RNCNvMNtNtNtCs2meEIT43k6D_13nestgate_core6config7runtime7networkNtB4_13NetworkConfig16from_environments7_0Ba_
FN:141,_RNCNvMNtNtNtCs2meEIT43k6D_13nestgate_core6config7runtime7networkNtB4_13NetworkConfig16from_environments8_0Ba_
FN:146,_RNCNvMNtNtNtCs2meEIT43k6D_13nestgate_core6config7runtime7networkNtB4_13NetworkConfig16from_environments9_0Ba_
FN:96,_RNCNvMNtNtNtCs2meEIT43k6D_13nestgate_core6config7runtime7networkNtB4_13NetworkConfig16from_environments_0Ba_
FN:151,_RNCNvMNtNtNtCs2meEIT43k6D_13nestgate_core6config7runtime7networkNtB4_13NetworkConfig16from_environmentsa_0Ba_
FN:178,_RNvMNtNtNtCs2meEIT43k6D_13nestgate_core6config7runtime7networkNtB2_13NetworkConfig12api_base_url
FN:184,_RNvMNtNtNtCs2meEIT43k6D_13nestgate_core6config7runtime7networkNtB2_13NetworkConfig14https_base_url
FN:82,_RNvMNtNtNtCs2meEIT43k6D_13nestgate_core6config7runtime7networkNtB2_13NetworkConfig16from_environment
FN:160,_RNvMNtNtNtCs2meEIT43k6D_13nestgate_core6config7runtime7networkNtB2_13NetworkConfig8validate
FN:190,_RNvXs_NtNtNtCs2meEIT43k6D_13nestgate_core6config7runtime7networkNtB4_13NetworkConfigNtNtCs5GmCzIpY9Qj_4core7default7Default7default
FNDA:0,_RNCNvMNtNtNtCs2meEIT43k6D_13nestgate_core6config7runtime7networkNtB4_13NetworkConfig16from_environment0Ba_
FNDA:0,_RNCNvMNtNtNtCs2meEIT43k6D_13nestgate_core6config7runtime7networkNtB4_13NetworkConfig16from_environments0_0Ba_
FNDA:0,_RNCNvMNtNtNtCs2meEIT43k6D_13nestgate_core6config7runtime7networkNtB4_13NetworkConfig16from_environments1_0Ba_
FNDA:0,_RNCNvMNtNtNtCs2meEIT43k6D_13nestgate_core6config7runtime7networkNtB4_13NetworkConfig16from_environments2_0Ba_
FNDA:0,_RNCNvMNtNtNtCs2meEIT43k6D_13nestgate_core6config7runtime7networkNtB4_13NetworkConfig16from_environments3_0Ba_
FNDA:0,_RNCNvMNtNtNtCs2meEIT43k6D_13nestgate_core6config7runtime7networkNtB4_13NetworkConfig16from_environments4_0Ba_
FNDA:0,_RNCNvMNtNtNtCs2meEIT43k6D_13nestgate_core6config7runtime7networkNtB4_13NetworkConfig16from_environments5_0Ba_
FNDA:0,_RNCNvMNtNtNtCs2meEIT43k6D_13nestgate_core6config7runtime7networkNtB4_13NetworkConfig16from_environments6_0Ba_
FNDA:0,_RNCNvMNtNtNtCs2meEIT43k6D_13nestgate_core6config7runtime7networkNtB4_13NetworkConfig16from_environments7_0Ba_
FNDA:0,_RNCNvMNtNtNtCs2meEIT43k6D_13nestgate_core6config7runtime7networkNtB4_13NetworkConfig16from_environments8_0Ba_
FNDA:0,_RNCNvMNtNtNtCs2meEIT43k6D_13nestgate_core6config7runtime7networkNtB4_13NetworkConfig16from_environments9_0Ba_
FNDA:0,_RNCNvMNtNtNtCs2meEIT43k6D_13nestgate_core6config7runtime7networkNtB4_13NetworkConfig16from_environments_0Ba_
FNDA:0,_RNCNvMNtNtNtCs2meEIT43k6D_13nestgate_core6config7runtime7networkNtB4_13NetworkConfig16from_environmentsa_0Ba_
FNDA:0,_RNvMNtNtNtCs2meEIT43k6D_13nestgate_core6config7runtime7networkNtB2_13NetworkConfig12api_base_url
FNDA:0,_RNvMNtNtNtCs2meEIT43k6D_13nestgate_core6config7runtime7networkNtB2_13NetworkConfig14https_base_url
FNDA:0,_RNvMNtNtNtCs2meEIT43k6D_13nestgate_core6config7runtime7networkNtB2_13NetworkConfig16from_environment
FNDA:0,_RNvMNtNtNtCs2meEIT43k6D_13nestgate_core6config7runtime7networkNtB2_13NetworkConfig8validate
FNDA:0,_RNvXs_NtNtNtCs2meEIT43k6D_13nestgate_core6config7runtime7networkNtB4_13NetworkConfigNtNtCs5GmCzIpY9Qj_4core7default7Default7default
FNF:18
FNH:0
DA:82,0
DA:85,0
DA:86,0
DA:87,0
DA:88,0
DA:89,0
DA:91,0
DA:94,0
DA:95,0
DA:96,0
DA:97,0
DA:99,0
DA:100,0
DA:101,0
DA:102,0
DA:104,0
DA:105,0
DA:106,0
DA:107,0
DA:109,0
DA:110,0
DA:111,0
DA:112,0
DA:114,0
DA:115,0
DA:116,0
DA:117,0
DA:119,0
DA:120,0
DA:121,0
DA:122,0
DA:124,0
DA:125,0
DA:126,0
DA:127,0
DA:129,0
DA:130,0
DA:131,0
DA:132,0
DA:134,0
DA:135,0
DA:136,0
DA:137,0
DA:139,0
DA:140,0
DA:141,0
DA:142,0
DA:144,0
DA:145,0
DA:146,0
DA:147,0
DA:149,0
DA:150,0
DA:151,0
DA:152,0
DA:155,0
DA:156,0
DA:157,0
DA:160,0
DA:161,0
DA:162,0
DA:163,0
DA:164,0
DA:165,0
DA:166,0
DA:167,0
DA:168,0
DA:169,0
DA:170,0
DA:171,0
DA:172,0
DA:173,0
DA:174,0
DA:178,0
DA:179,0
DA:180,0
DA:184,0
DA:185,0
DA:186,0
DA:190,0
DA:197,0
DA:199,0
DA:200,0
DA:201,0
DA:202,0
DA:203,0
DA:204,0
DA:205,0
DA:206,0
DA:207,0
DA:208,0
DA:209,0
DA:210,0
DA:211,0
DA:212,0
DA:213,0
DA:214,0
DA:215,0
BRF:0
BRH:0
LF:111
LH:0
end_of_record
SF:/home/eastgate/Development/ecoPrimals/nestgate/code/crates/nestgate-core/src/config/runtime/security.rs
FN:43,_RNCNvMNtNtNtCs2meEIT43k6D_13nestgate_core6config7runtime8securityNtB4_14SecurityConfig16from_environment0Ba_
FN:51,_RNCNvMNtNtNtCs2meEIT43k6D_13nestgate_core6config7runtime8securityNtB4_14SecurityConfig16from_environments0_0Ba_
FN:45,_RNCNvMNtNtNtCs2meEIT43k6D_13nestgate_core6config7runtime8securityNtB4_14SecurityConfig16from_environments_0Ba_
FN:39,_RNvMNtNtNtCs2meEIT43k6D_13nestgate_core6config7runtime8securityNtB2_14SecurityConfig16from_environment
FN:60,_RNvXs_NtNtNtCs2meEIT43k6D_13nestgate_core6config7runtime8securityNtB4_14SecurityConfigNtNtCs5GmCzIpY9Qj_4core7default7Default7default
FNDA:0,_RNCNvMNtNtNtCs2meEIT43k6D_13nestgate_core6config7runtime8securityNtB4_14SecurityConfig16from_environment0Ba_
FNDA:0,_RNCNvMNtNtNtCs2meEIT43k6D_13nestgate_core6config7runtime8securityNtB4_14SecurityConfig16from_environments0_0Ba_
FNDA:0,_RNCNvMNtNtNtCs2meEIT43k6D_13nestgate_core6config7runtime8securityNtB4_14SecurityConfig16from_environments_0Ba_
FNDA:0,_RNvMNtNtNtCs2meEIT43k6D_13nestgate_core6config7runtime8securityNtB2_14SecurityConfig16from_environment
FNDA:0,_RNvXs_NtNtNtCs2meEIT43k6D_13nestgate_core6config7runtime8securityNtB4_14SecurityConfigNtNtCs5GmCzIpY9Qj_4core7default7Default7default
FNF:5
FNH:0
DA:39,0
DA:41,0
DA:42,0
DA:43,0
DA:44,0
DA:45,0
DA:47,0
DA:48,0
DA:49,0
DA:50,0
DA:51,0
DA:52,0
DA:53,0
DA:54,0
DA:56,0
DA:60,0
DA:61,0
DA:62,0
DA:63,0
DA:64,0
DA:65,0
DA:66,0
DA:67,0
DA:68,0
BRF:0
BRH:0
LF:27
LH:0
end_of_record
SF:/home/eastgate/Development/ecoPrimals/nestgate/code/crates/nestgate-core/src/config/runtime/services.rs
FN:141,_RNCNvMNtNtNtCs2meEIT43k6D_13nestgate_core6config7runtime8servicesNtB4_14ServicesConfig16from_environment0Ba_
FN:147,_RNCNvMNtNtNtCs2meEIT43k6D_13nestgate_core6config7runtime8servicesNtB4_14ServicesConfig16from_environments0_0Ba_
FN:150,_RNCNvMNtNtNtCs2meEIT43k6D_13nestgate_core6config7runtime8servicesNtB4_14ServicesConfig16from_environments1_0Ba_
FN:153,_RNCNvMNtNtNtCs2meEIT43k6D_13nestgate_core6config7runtime8servicesNtB4_14ServicesConfig16from_environments2_0Ba_
FN:156,_RNCNvMNtNtNtCs2meEIT43k6D_13nestgate_core6config7runtime8servicesNtB4_14ServicesConfig16from_environments3_0Ba_
FN:161,_RNCNvMNtNtNtCs2meEIT43k6D_13nestgate_core6config7runtime8servicesNtB4_14ServicesConfig16from_environments4_0Ba_
FN:144,_RNCNvMNtNtNtCs2meEIT43k6D_13nestgate_core6config7runtime8servicesNtB4_14ServicesConfig16from_environments_0Ba_
FN:264,_RNCNvMNtNtNtCs2meEIT43k6D_13nestgate_core6config7runtime8servicesNtB4_14ServicesConfig23capability_url_or_local0Ba_
FN:272,_RNCNvMNtNtNtCs2meEIT43k6D_13nestgate_core6config7runtime8servicesNtB4_14ServicesConfig23capability_url_or_locals0_0Ba_
FN:278,_RNCNvMNtNtNtCs2meEIT43k6D_13nestgate_core6config7runtime8servicesNtB4_14ServicesConfig23capability_url_or_locals1_0Ba_
FN:281,_RNCNvMNtNtNtCs2meEIT43k6D_13nestgate_core6config7runtime8servicesNtB4_14ServicesConfig23capability_url_or_locals2_0Ba_
FN:268,_RNCNvMNtNtNtCs2meEIT43k6D_13nestgate_core6config7runtime8servicesNtB4_14ServicesConfig23capability_url_or_locals_0Ba_
FN:215,_RNvMNtNtNtCs2meEIT43k6D_13nestgate_core6config7runtime8servicesNtB2_14ServicesConfig14has_capability
FN:112,_RNvMNtNtNtCs2meEIT43k6D_13nestgate_core6config7runtime8servicesNtB2_14ServicesConfig16from_environment
FN:194,_RNvMNtNtNtCs2meEIT43k6D_13nestgate_core6config7runtime8servicesNtB2_14ServicesConfig18get_capability_url
FN:225,_RNvMNtNtNtCs2meEIT43k6D_13nestgate_core6config7runtime8servicesNtB2_14ServicesConfig22available_capabilities
FN:257,_RNvMNtNtNtCs2meEIT43k6D_13nestgate_core6config7runtime8servicesNtB2_14ServicesConfig23capability_url_or_local
FNDA:0,_RNCNvMNtNtNtCs2meEIT43k6D_13nestgate_core6config7runtime8servicesNtB4_14ServicesConfig16from_environment0Ba_
FNDA:0,_RNCNvMNtNtNtCs2meEIT43k6D_13nestgate_core6config7runtime8servicesNtB4_14ServicesConfig16from_environments0_0Ba_
FNDA:0,_RNCNvMNtNtNtCs2meEIT43k6D_13nestgate_core6config7runtime8servicesNtB4_14ServicesConfig16from_environments1_0Ba_
FNDA:0,_RNCNvMNtNtNtCs2meEIT43k6D_13nestgate_core6config7runtime8servicesNtB4_14ServicesConfig16from_environments2_0Ba_
FNDA:0,_RNCNvMNtNtNtCs2meEIT43k6D_13nestgate_core6config7runtime8servicesNtB4_14ServicesConfig16from_environments3_0Ba_
FNDA:0,_RNCNvMNtNtNtCs2meEIT43k6D_13nestgate_core6config7runtime8servicesNtB4_14ServicesConfig16from_environments4_0Ba_
FNDA:0,_RNCNvMNtNtNtCs2meEIT43k6D_13nestgate_core6config7runtime8servicesNtB4_14ServicesConfig16from_environments_0Ba_
FNDA:0,_RNCNvMNtNtNtCs2meEIT43k6D_13nestgate_core6config7runtime8servicesNtB4_14ServicesConfig23capability_url_or_local0Ba_
FNDA:0,_RNCNvMNtNtNtCs2meEIT43k6D_13nestgate_core6config7runtime8servicesNtB4_14ServicesConfig23capability_url_or_locals0_0Ba_
FNDA:0,_RNCNvMNtNtNtCs2meEIT43k6D_13nestgate_core6config7runtime8servicesNtB4_14ServicesConfig23capability_url_or_locals1_0Ba_
FNDA:0,_RNCNvMNtNtNtCs2meEIT43k6D_13nestgate_core6config7runtime8servicesNtB4_14ServicesConfig23capability_url_or_locals2_0Ba_
FNDA:0,_RNCNvMNtNtNtCs2meEIT43k6D_13nestgate_core6config7runtime8servicesNtB4_14ServicesConfig23capability_url_or_locals_0Ba_
FNDA:0,_RNvMNtNtNtCs2meEIT43k6D_13nestgate_core6config7runtime8servicesNtB2_14ServicesConfig14has_capability
FNDA:0,_RNvMNtNtNtCs2meEIT43k6D_13nestgate_core6config7runtime8servicesNtB2_14ServicesConfig16from_environment
FNDA:0,_RNvMNtNtNtCs2meEIT43k6D_13nestgate_core6config7runtime8servicesNtB2_14ServicesConfig18get_capability_url
FNDA:0,_RNvMNtNtNtCs2meEIT43k6D_13nestgate_core6config7runtime8servicesNtB2_14ServicesConfig22available_capabilities
FNDA:0,_RNvMNtNtNtCs2meEIT43k6D_13nestgate_core6config7runtime8servicesNtB2_14ServicesConfig23capability_url_or_local
FNF:17
FNH:0
DA:112,0
DA:113,0
DA:116,0
DA:117,0
DA:118,0
DA:119,0
DA:120,0
DA:121,0
DA:122,0
DA:123,0
DA:124,0
DA:125,0
DA:126,0
DA:127,0
DA:128,0
DA:129,0
DA:130,0
DA:131,0
DA:132,0
DA:133,0
DA:137,0
DA:138,0
DA:139,0
DA:140,0
DA:141,0
DA:142,0
DA:143,0
DA:144,0
DA:145,0
DA:146,0
DA:147,0
DA:148,0
DA:149,0
DA:150,0
DA:151,0
DA:152,0
DA:153,0
DA:154,0
DA:155,0
DA:156,0
DA:157,0
DA:159,0
DA:160,0
DA:161,0
DA:162,0
DA:165,0
DA:166,0
DA:194,0
DA:196,0
DA:197,0
DA:198,0
DA:201,0
DA:202,0
DA:203,0
DA:204,0
DA:205,0
DA:206,0
DA:207,0
DA:209,0
DA:215,0
DA:216,0
DA:217,0
DA:218,0
DA:225,0
DA:226,0
DA:229,0
DA:230,0
DA:231,0
DA:232,0
DA:233,0
DA:234,0
DA:235,0
DA:236,0
DA:237,0
DA:238,0
DA:239,0
DA:240,0
DA:242,0
DA:243,0
DA:244,0
DA:257,0
DA:261,0
DA:262,0
DA:263,0
DA:264,0
DA:265,0
DA:266,0
DA:267,0
DA:268,0
DA:269,0
DA:270,0
DA:271,0
DA:272,0
DA:273,0
DA:277,0
DA:278,0
DA:280,0
DA:281,0
DA:282,0
BRF:0
BRH:0
LF:111
LH:0
end_of_record
SF:/home/eastgate/Development/ecoPrimals/nestgate/code/crates/nestgate-core/src/config/runtime/storage.rs
FN:40,_RNCNvMNtNtNtCs2meEIT43k6D_13nestgate_core6config7runtime7storageNtB4_13StorageConfig16from_environment0Ba_
FN:46,_RNCNvMNtNtNtCs2meEIT43k6D_13nestgate_core6config7runtime7storageNtB4_13StorageConfig16from_environments0_0Ba_
FN:50,_RNCNvMNtNtNtCs2meEIT43k6D_13nestgate_core6config7runtime7storageNtB4_13StorageConfig16from_environments1_0Ba_
FN:43,_RNCNvMNtNtNtCs2meEIT43k6D_13nestgate_core6config7runtime7storageNtB4_13StorageConfig16from_environments_0Ba_
FN:37,_RNvMNtNtNtCs2meEIT43k6D_13nestgate_core6config7runtime7storageNtB2_13StorageConfig16from_environment
FN:57,_RNvXs_NtNtNtCs2meEIT43k6D_13nestgate_core6config7runtime7storageNtB4_13StorageConfigNtNtCs5GmCzIpY9Qj_4core7default7Default7default
FNDA:0,_RNCNvMNtNtNtCs2meEIT43k6D_13nestgate_core6config7runtime7storageNtB4_13StorageConfig16from_environment0Ba_
FNDA:0,_RNCNvMNtNtNtCs2meEIT43k6D_13nestgate_core6config7runtime7storageNtB4_13StorageConfig16from_environments0_0Ba_
FNDA:0,_RNCNvMNtNtNtCs2meEIT43k6D_13nestgate_core6config7runtime7storageNtB4_13StorageConfig16from_environments1_0Ba_
FNDA:0,_RNCNvMNtNtNtCs2meEIT43k6D_13nestgate_core6config7runtime7storageNtB4_13StorageConfig16from_environments_0Ba_
FNDA:0,_RNvMNtNtNtCs2meEIT43k6D_13nestgate_core6config7runtime7storageNtB2_13StorageConfig16from_environment
FNDA:0,_RNvXs_NtNtNtCs2meEIT43k6D_13nestgate_core6config7runtime7storageNtB4_13StorageConfigNtNtCs5GmCzIpY9Qj_4core7default7Default7default
FNF:6
FNH:0
DA:37,0
DA:39,0
DA:40,0
DA:41,0
DA:42,0
DA:43,0
DA:44,0
DA:45,0
DA:46,0
DA:47,0
DA:48,0
DA:49,0
DA:50,0
DA:51,0
DA:53,0
DA:57,0
DA:58,0
DA:59,0
DA:60,0
DA:61,0
DA:62,0
DA:63,0
DA:64,0
BRF:0
BRH:0
LF:27
LH:0
end_of_record
SF:/home/eastgate/Development/ecoPrimals/nestgate/code/crates/nestgate-core/src/config/sovereignty.rs
FN:17,_RNvMNtNtCs2meEIT43k6D_13nestgate_core6config11sovereigntyNtB2_17SovereigntyConfig12api_endpoint
FN:27,_RNvMNtNtCs2meEIT43k6D_13nestgate_core6config11sovereigntyNtB2_17SovereigntyConfig12bind_address
FN:47,_RNvMNtNtCs2meEIT43k6D_13nestgate_core6config11sovereigntyNtB2_17SovereigntyConfig13test_endpoint
FN:37,_RNvMNtNtCs2meEIT43k6D_13nestgate_core6config11sovereigntyNtB2_17SovereigntyConfig18discovery_endpoint
FN:32,_RNvMNtNtCs2meEIT43k6D_13nestgate_core6config11sovereigntyNtB2_17SovereigntyConfig18websocket_endpoint
FN:42,_RNvMNtNtCs2meEIT43k6D_13nestgate_core6config11sovereigntyNtB2_17SovereigntyConfig22orchestration_endpoint
FN:22,_RNvMNtNtCs2meEIT43k6D_13nestgate_core6config11sovereigntyNtB2_17SovereigntyConfig8api_port
FNDA:0,_RNvMNtNtCs2meEIT43k6D_13nestgate_core6config11sovereigntyNtB2_17SovereigntyConfig12api_endpoint
FNDA:0,_RNvMNtNtCs2meEIT43k6D_13nestgate_core6config11sovereigntyNtB2_17SovereigntyConfig12bind_address
FNDA:0,_RNvMNtNtCs2meEIT43k6D_13nestgate_core6config11sovereigntyNtB2_17SovereigntyConfig13test_endpoint
FNDA:0,_RNvMNtNtCs2meEIT43k6D_13nestgate_core6config11sovereigntyNtB2_17SovereigntyConfig18discovery_endpoint
FNDA:0,_RNvMNtNtCs2meEIT43k6D_13nestgate_core6config11sovereigntyNtB2_17SovereigntyConfig18websocket_endpoint
FNDA:0,_RNvMNtNtCs2meEIT43k6D_13nestgate_core6config11sovereigntyNtB2_17SovereigntyConfig22orchestration_endpoint
FNDA:0,_RNvMNtNtCs2meEIT43k6D_13nestgate_core6config11sovereigntyNtB2_17SovereigntyConfig8api_port
FNF:7
FNH:0
DA:17,0
DA:18,0
DA:19,0
DA:22,0
DA:23,0
DA:24,0
DA:27,0
DA:28,0
DA:29,0
DA:32,0
DA:33,0
DA:34,0
DA:37,0
DA:38,0
DA:39,0
DA:42,0
DA:43,0
DA:44,0
DA:47,0
DA:48,0
DA:49,0
BRF:0
BRH:0
LF:21
LH:0
end_of_record
SF:/home/eastgate/Development/ecoPrimals/nestgate/code/crates/nestgate-core/src/config/sovereignty_config.rs
FN:36,_RNCNvMNtNtCs2meEIT43k6D_13nestgate_core6config18sovereignty_configNtB4_24SovereigntyRuntimeConfig3new0B8_
FN:57,_RNCNvMNtNtCs2meEIT43k6D_13nestgate_core6config18sovereignty_configNtB4_24SovereigntyRuntimeConfig8from_env0B8_
FN:60,_RNCNvMNtNtCs2meEIT43k6D_13nestgate_core6config18sovereignty_configNtB4_24SovereigntyRuntimeConfig8from_envs_0B8_
FN:144,_RNvMNtNtCs2meEIT43k6D_13nestgate_core6config18sovereignty_configNtB2_24SovereigntyRuntimeConfig12api_endpoint
FN:162,_RNvMNtNtCs2meEIT43k6D_13nestgate_core6config18sovereignty_configNtB2_24SovereigntyRuntimeConfig12bind_address
FN:194,_RNvMNtNtCs2meEIT43k6D_13nestgate_core6config18sovereignty_configNtB2_24SovereigntyRuntimeConfig13test_endpoint
FN:100,_RNvMNtNtCs2meEIT43k6D_13nestgate_core6config18sovereignty_configNtB2_24SovereigntyRuntimeConfig13with_api_host
FN:106,_RNvMNtNtCs2meEIT43k6D_13nestgate_core6config18sovereignty_configNtB2_24SovereigntyRuntimeConfig13with_api_port
FN:118,_RNvMNtNtCs2meEIT43k6D_13nestgate_core6config18sovereignty_configNtB2_24SovereigntyRuntimeConfig16with_ws_endpoint
FN:94,_RNvMNtNtCs2meEIT43k6D_13nestgate_core6config18sovereignty_configNtB2_24SovereigntyRuntimeConfig17with_api_endpoint
FN:112,_RNvMNtNtCs2meEIT43k6D_13nestgate_core6config18sovereignty_configNtB2_24SovereigntyRuntimeConfig17with_bind_address
FN:176,_RNvMNtNtCs2meEIT43k6D_13nestgate_core6config18sovereignty_configNtB2_24SovereigntyRuntimeConfig18discovery_endpoint
FN:167,_RNvMNtNtCs2meEIT43k6D_13nestgate_core6config18sovereignty_configNtB2_24SovereigntyRuntimeConfig18websocket_endpoint
FN:136,_RNvMNtNtCs2meEIT43k6D_13nestgate_core6config18sovereignty_configNtB2_24SovereigntyRuntimeConfig18with_test_endpoint
FN:185,_RNvMNtNtCs2meEIT43k6D_13nestgate_core6config18sovereignty_configNtB2_24SovereigntyRuntimeConfig22orchestration_endpoint
FN:124,_RNvMNtNtCs2meEIT43k6D_13nestgate_core6config18sovereignty_configNtB2_24SovereigntyRuntimeConfig23with_discovery_endpoint
FN:130,_RNvMNtNtCs2meEIT43k6D_13nestgate_core6config18sovereignty_configNtB2_24SovereigntyRuntimeConfig27with_orchestration_endpoint
FN:31,_RNvMNtNtCs2meEIT43k6D_13nestgate_core6config18sovereignty_configNtB2_24SovereigntyRuntimeConfig3new
FN:157,_RNvMNtNtCs2meEIT43k6D_13nestgate_core6config18sovereignty_configNtB2_24SovereigntyRuntimeConfig8api_port
FN:52,_RNvMNtNtCs2meEIT43k6D_13nestgate_core6config18sovereignty_configNtB2_24SovereigntyRuntimeConfig8from_env
FN:205,_RNvXs_NtNtCs2meEIT43k6D_13nestgate_core6config18sovereignty_configNtB4_24SovereigntyRuntimeConfigNtNtCs5GmCzIpY9Qj_4core7default7Default7default
FNDA:0,_RNCNvMNtNtCs2meEIT43k6D_13nestgate_core6config18sovereignty_configNtB4_24SovereigntyRuntimeConfig3new0B8_
FNDA:0,_RNCNvMNtNtCs2meEIT43k6D_13nestgate_core6config18sovereignty_configNtB4_24SovereigntyRuntimeConfig8from_env0B8_
FNDA:0,_RNCNvMNtNtCs2meEIT43k6D_13nestgate_core6config18sovereignty_configNtB4_24SovereigntyRuntimeConfig8from_envs_0B8_
FNDA:0,_RNvMNtNtCs2meEIT43k6D_13nestgate_core6config18sovereignty_configNtB2_24SovereigntyRuntimeConfig12api_endpoint
FNDA:0,_RNvMNtNtCs2meEIT43k6D_13nestgate_core6config18sovereignty_configNtB2_24SovereigntyRuntimeConfig12bind_address
FNDA:0,_RNvMNtNtCs2meEIT43k6D_13nestgate_core6config18sovereignty_configNtB2_24SovereigntyRuntimeConfig13test_endpoint
FNDA:0,_RNvMNtNtCs2meEIT43k6D_13nestgate_core6config18sovereignty_configNtB2_24SovereigntyRuntimeConfig13with_api_host
FNDA:0,_RNvMNtNtCs2meEIT43k6D_13nestgate_core6config18sovereignty_configNtB2_24SovereigntyRuntimeConfig13with_api_port
FNDA:0,_RNvMNtNtCs2meEIT43k6D_13nestgate_core6config18sovereignty_configNtB2_24SovereigntyRuntimeConfig16with_ws_endpoint
FNDA:0,_RNvMNtNtCs2meEIT43k6D_13nestgate_core6config18sovereignty_configNtB2_24SovereigntyRuntimeConfig17with_api_endpoint
FNDA:0,_RNvMNtNtCs2meEIT43k6D_13nestgate_core6config18sovereignty_configNtB2_24SovereigntyRuntimeConfig17with_bind_address
FNDA:0,_RNvMNtNtCs2meEIT43k6D_13nestgate_core6config18sovereignty_configNtB2_24SovereigntyRuntimeConfig18discovery_endpoint
FNDA:0,_RNvMNtNtCs2meEIT43k6D_13nestgate_core6config18sovereignty_configNtB2_24SovereigntyRuntimeConfig18websocket_endpoint
FNDA:0,_RNvMNtNtCs2meEIT43k6D_13nestgate_core6config18sovereignty_configNtB2_24SovereigntyRuntimeConfig18with_test_endpoint
FNDA:0,_RNvMNtNtCs2meEIT43k6D_13nestgate_core6config18sovereignty_configNtB2_24SovereigntyRuntimeConfig22orchestration_endpoint
FNDA:0,_RNvMNtNtCs2meEIT43k6D_13nestgate_core6config18sovereignty_configNtB2_24SovereigntyRuntimeConfig23with_discovery_endpoint
FNDA:0,_RNvMNtNtCs2meEIT43k6D_13nestgate_core6config18sovereignty_configNtB2_24SovereigntyRuntimeConfig27with_orchestration_endpoint
FNDA:0,_RNvMNtNtCs2meEIT43k6D_13nestgate_core6config18sovereignty_configNtB2_24SovereigntyRuntimeConfig3new
FNDA:0,_RNvMNtNtCs2meEIT43k6D_13nestgate_core6config18sovereignty_configNtB2_24SovereigntyRuntimeConfig8api_port
FNDA:0,_RNvMNtNtCs2meEIT43k6D_13nestgate_core6config18sovereignty_configNtB2_24SovereigntyRuntimeConfig8from_env
FNDA:0,_RNvXs_NtNtCs2meEIT43k6D_13nestgate_core6config18sovereignty_configNtB4_24SovereigntyRuntimeConfigNtNtCs5GmCzIpY9Qj_4core7default7Default7default
FNF:21
FNH:0
DA:31,0
DA:35,0
DA:36,0
DA:38,0
DA:39,0
DA:40,0
DA:41,0
DA:42,0
DA:43,0
DA:44,0
DA:45,0
DA:46,0
DA:47,0
DA:48,0
DA:52,0
DA:53,0
DA:54,0
DA:55,0
DA:56,0
DA:57,0
DA:58,0
DA:59,0
DA:60,0
DA:61,0
DA:62,0
DA:63,0
DA:64,0
DA:66,0
DA:67,0
DA:68,0
DA:69,0
DA:70,0
DA:71,0
DA:72,0
DA:73,0
DA:74,0
DA:75,0
DA:76,0
DA:94,0
DA:95,0
DA:96,0
DA:97,0
DA:100,0
DA:101,0
DA:102,0
DA:103,0
DA:106,0
DA:107,0
DA:108,0
DA:109,0
DA:112,0
DA:113,0
DA:114,0
DA:115,0
DA:118,0
DA:119,0
DA:120,0
DA:121,0
DA:124,0
DA:125,0
DA:126,0
DA:127,0
DA:130,0
DA:131,0
DA:132,0
DA:133,0
DA:136,0
DA:137,0
DA:138,0
DA:139,0
DA:144,0
DA:145,0
DA:146,0
DA:147,0
DA:149,0
DA:150,0
DA:151,0
DA:153,0
DA:154,0
DA:157,0
DA:158,0
DA:159,0
DA:162,0
DA:163,0
DA:164,0
DA:167,0
DA:168,0
DA:169,0
DA:170,0
DA:172,0
DA:173,0
DA:176,0
DA:177,0
DA:178,0
DA:179,0
DA:181,0
DA:182,0
DA:185,0
DA:186,0
DA:187,0
DA:188,0
DA:190,0
DA:191,0
DA:194,0
DA:195,0
DA:196,0
DA:197,0
DA:199,0
DA:200,0
DA:205,0
DA:206,0
DA:207,0
BRF:0
BRH:0
LF:115
LH:0
end_of_record
SF:/home/eastgate/Development/ecoPrimals/nestgate/code/crates/nestgate-core/src/config/validation.rs
FN:490,_RNvXs1_NtNtCs2meEIT43k6D_13nestgate_core6config10validationNtNtNtNtB7_17canonical_primary7domains7network22CanonicalNetworkConfigNtB5_16ConfigValidation6schema
FN:441,_RNvXs1_NtNtCs2meEIT43k6D_13nestgate_core6config10validationNtNtNtNtB7_17canonical_primary7domains7network22CanonicalNetworkConfigNtB5_16ConfigValidation8validate
FN:407,_RINvMs0_NtNtCs2meEIT43k6D_13nestgate_core6config10validationNtB6_15ValidationUtils14validate_rangepEBa_
FN:563,_RINvMs2_NtNtCs2meEIT43k6D_13nestgate_core6config10validationNtB6_15ConfigValidator15generate_reportpEBa_
FN:558,_RINvMs2_NtNtCs2meEIT43k6D_13nestgate_core6config10validationNtB6_15ConfigValidator15validate_strictpEBa_
FN:553,_RINvMs2_NtNtCs2meEIT43k6D_13nestgate_core6config10validationNtB6_15ConfigValidator8validatepEBa_
FN:558,_RNCINvMs2_NtNtCs2meEIT43k6D_13nestgate_core6config10validationNtB8_15ConfigValidator15validate_strictpE0Bc_
FN:80,_RNCNCNvMNtNtCs2meEIT43k6D_13nestgate_core6config10validationNtB6_16ValidationResult11into_result00Ba_
FN:73,_RNCNvMNtNtCs2meEIT43k6D_13nestgate_core6config10validationNtB4_16ValidationResult11into_result0B8_
FN:73,_RNvMNtNtCs2meEIT43k6D_13nestgate_core6config10validationNtB2_16ValidationResult11into_result
FN:51,_RNvMNtNtCs2meEIT43k6D_13nestgate_core6config10validationNtB2_16ValidationResult11with_errors
FN:61,_RNvMNtNtCs2meEIT43k6D_13nestgate_core6config10validationNtB2_16ValidationResult12with_warning
FN:67,_RNvMNtNtCs2meEIT43k6D_13nestgate_core6config10validationNtB2_16ValidationResult15with_suggestion
FN:41,_RNvMNtNtCs2meEIT43k6D_13nestgate_core6config10validationNtB2_16ValidationResult7success
FN:253,_RNvMs0_NtNtCs2meEIT43k6D_13nestgate_core6config10validationNtB5_15ValidationUtils13validate_port
FN:271,_RNvMs0_NtNtCs2meEIT43k6D_13nestgate_core6config10validationNtB5_15ValidationUtils16validate_timeout
FN:336,_RNvMs0_NtNtCs2meEIT43k6D_13nestgate_core6config10validationNtB5_15ValidationUtils18validate_file_path
FN:300,_RNvMs0_NtNtCs2meEIT43k6D_13nestgate_core6config10validationNtB5_15ValidationUtils19validate_ip_address
FN:363,_RNvMs0_NtNtCs2meEIT43k6D_13nestgate_core6config10validationNtB5_15ValidationUtils23validate_directory_path
FN:318,_RNvMs0_NtNtCs2meEIT43k6D_13nestgate_core6config10validationNtB5_15ValidationUtils23validate_socket_address
FN:390,_RNvMs0_NtNtCs2meEIT43k6D_13nestgate_core6config10validationNtB5_15ValidationUtils25validate_non_empty_string
FN:223,_RNvMs_NtNtCs2meEIT43k6D_13nestgate_core6config10validationNtB4_22ValidationErrorBuilder13current_value
FN:229,_RNvMs_NtNtCs2meEIT43k6D_13nestgate_core6config10validationNtB4_22ValidationErrorBuilder15expected_format
FN:212,_RNvMs_NtNtCs2meEIT43k6D_13nestgate_core6config10validationNtB4_22ValidationErrorBuilder3new
FN:235,_RNvMs_NtNtCs2meEIT43k6D_13nestgate_core6config10validationNtB4_22ValidationErrorBuilder5build
FNDA:0,_RNvXs1_NtNtCs2meEIT43k6D_13nestgate_core6config10validationNtNtNtNtB7_17canonical_primary7domains7network22CanonicalNetworkConfigNtB5_16ConfigValidation6schema
FNDA:0,_RNvXs1_NtNtCs2meEIT43k6D_13nestgate_core6config10validationNtNtNtNtB7_17canonical_primary7domains7network22CanonicalNetworkConfigNtB5_16ConfigValidation8validate
FNDA:0,_RINvMs0_NtNtCs2meEIT43k6D_13nestgate_core6config10validationNtB6_15ValidationUtils14validate_rangepEBa_
FNDA:0,_RINvMs2_NtNtCs2meEIT43k6D_13nestgate_core6config10validationNtB6_15ConfigValidator15generate_reportpEBa_
FNDA:0,_RINvMs2_NtNtCs2meEIT43k6D_13nestgate_core6config10validationNtB6_15ConfigValidator15validate_strictpEBa_
FNDA:0,_RINvMs2_NtNtCs2meEIT43k6D_13nestgate_core6config10validationNtB6_15ConfigValidator8validatepEBa_
FNDA:0,_RNCINvMs2_NtNtCs2meEIT43k6D_13nestgate_core6config10validationNtB8_15ConfigValidator15validate_strictpE0Bc_
FNDA:0,_RNCNCNvMNtNtCs2meEIT43k6D_13nestgate_core6config10validationNtB6_16ValidationResult11into_result00Ba_
FNDA:0,_RNCNvMNtNtCs2meEIT43k6D_13nestgate_core6config10validationNtB4_16ValidationResult11into_result0B8_
FNDA:0,_RNvMNtNtCs2meEIT43k6D_13nestgate_core6config10validationNtB2_16ValidationResult11into_result
FNDA:0,_RNvMNtNtCs2meEIT43k6D_13nestgate_core6config10validationNtB2_16ValidationResult11with_errors
FNDA:0,_RNvMNtNtCs2meEIT43k6D_13nestgate_core6config10validationNtB2_16ValidationResult12with_warning
FNDA:0,_RNvMNtNtCs2meEIT43k6D_13nestgate_core6config10validationNtB2_16ValidationResult15with_suggestion
FNDA:0,_RNvMNtNtCs2meEIT43k6D_13nestgate_core6config10validationNtB2_16ValidationResult7success
FNDA:0,_RNvMs0_NtNtCs2meEIT43k6D_13nestgate_core6config10validationNtB5_15ValidationUtils13validate_port
FNDA:0,_RNvMs0_NtNtCs2meEIT43k6D_13nestgate_core6config10validationNtB5_15ValidationUtils16validate_timeout
FNDA:0,_RNvMs0_NtNtCs2meEIT43k6D_13nestgate_core6config10validationNtB5_15ValidationUtils18validate_file_path
FNDA:0,_RNvMs0_NtNtCs2meEIT43k6D_13nestgate_core6config10validationNtB5_15ValidationUtils19validate_ip_address
FNDA:0,_RNvMs0_NtNtCs2meEIT43k6D_13nestgate_core6config10validationNtB5_15ValidationUtils23validate_directory_path
FNDA:0,_RNvMs0_NtNtCs2meEIT43k6D_13nestgate_core6config10validationNtB5_15ValidationUtils23validate_socket_address
FNDA:0,_RNvMs0_NtNtCs2meEIT43k6D_13nestgate_core6config10validationNtB5_15ValidationUtils25validate_non_empty_string
FNDA:0,_RNvMs_NtNtCs2meEIT43k6D_13nestgate_core6config10validationNtB4_22ValidationErrorBuilder13current_value
FNDA:0,_RNvMs_NtNtCs2meEIT43k6D_13nestgate_core6config10validationNtB4_22ValidationErrorBuilder15expected_format
FNDA:0,_RNvMs_NtNtCs2meEIT43k6D_13nestgate_core6config10validationNtB4_22ValidationErrorBuilder3new
FNDA:0,_RNvMs_NtNtCs2meEIT43k6D_13nestgate_core6config10validationNtB4_22ValidationErrorBuilder5build
FNF:25
FNH:0
DA:41,0
DA:42,0
DA:43,0
DA:44,0
DA:45,0
DA:46,0
DA:47,0
DA:48,0
DA:51,0
DA:52,0
DA:53,0
DA:54,0
DA:55,0
DA:56,0
DA:57,0
DA:58,0
DA:61,0
DA:62,0
DA:63,0
DA:64,0
DA:67,0
DA:68,0
DA:69,0
DA:70,0
DA:73,0
DA:74,0
DA:75,0
DA:77,0
DA:78,0
DA:79,0
DA:80,0
DA:81,0
DA:83,0
DA:84,0
DA:85,0
DA:86,0
DA:88,0
DA:212,0
DA:213,0
DA:214,0
DA:215,0
DA:216,0
DA:217,0
DA:218,0
DA:219,0
DA:220,0
DA:223,0
DA:224,0
DA:225,0
DA:226,0
DA:229,0
DA:230,0
DA:231,0
DA:232,0
DA:235,0
DA:236,0
DA:237,0
DA:238,0
DA:239,0
DA:240,0
DA:241,0
DA:242,0
DA:243,0
DA:253,0
DA:254,0
DA:255,0
DA:256,0
DA:257,0
DA:258,0
DA:259,0
DA:260,0
DA:261,0
DA:262,0
DA:263,0
DA:264,0
DA:266,0
DA:268,0
DA:271,0
DA:272,0
DA:273,0
DA:274,0
DA:275,0
DA:276,0
DA:277,0
DA:278,0
DA:279,0
DA:280,0
DA:281,0
DA:282,0
DA:283,0
DA:284,0
DA:285,0
DA:286,0
DA:287,0
DA:288,0
DA:289,0
DA:290,0
DA:291,0
DA:292,0
DA:293,0
DA:295,0
DA:297,0
DA:300,0
DA:301,0
DA:302,0
DA:303,0
DA:304,0
DA:305,0
DA:306,0
DA:307,0
DA:308,0
DA:309,0
DA:310,0
DA:311,0
DA:313,0
DA:315,0
DA:318,0
DA:319,0
DA:320,0
DA:321,0
DA:322,0
DA:323,0
DA:324,0
DA:325,0
DA:326,0
DA:327,0
DA:328,0
DA:329,0
DA:331,0
DA:333,0
DA:336,0
DA:337,0
DA:338,0
DA:339,0
DA:340,0
DA:341,0
DA:342,0
DA:343,0
DA:344,0
DA:345,0
DA:346,0
DA:347,0
DA:348,0
DA:349,0
DA:350,0
DA:351,0
DA:352,0
DA:353,0
DA:354,0
DA:355,0
DA:356,0
DA:358,0
DA:360,0
DA:363,0
DA:364,0
DA:365,0
DA:366,0
DA:367,0
DA:368,0
DA:369,0
DA:370,0
DA:371,0
DA:372,0
DA:373,0
DA:374,0
DA:375,0
DA:376,0
DA:377,0
DA:378,0
DA:379,0
DA:380,0
DA:381,0
DA:382,0
DA:383,0
DA:385,0
DA:387,0
DA:390,0
DA:391,0
DA:392,0
DA:393,0
DA:394,0
DA:395,0
DA:396,0
DA:397,0
DA:398,0
DA:399,0
DA:400,0
DA:402,0
DA:404,0
DA:407,0
DA:408,0
DA:409,0
DA:411,0
DA:412,0
DA:413,0
DA:414,0
DA:415,0
DA:416,0
DA:417,0
DA:418,0
DA:419,0
DA:420,0
DA:421,0
DA:423,0
DA:425,0
DA:441,0
DA:442,0
DA:443,0
DA:444,0
DA:447,0
DA:448,0
DA:449,0
DA:450,0
DA:451,0
DA:452,0
DA:453,0
DA:454,0
DA:455,0
DA:456,0
DA:459,0
DA:460,0
DA:461,0
DA:462,0
DA:463,0
DA:464,0
DA:465,0
DA:466,0
DA:467,0
DA:468,0
DA:471,0
DA:472,0
DA:473,0
DA:474,0
DA:475,0
DA:476,0
DA:477,0
DA:478,0
DA:479,0
DA:481,0
DA:482,0
DA:483,0
DA:484,0
DA:485,0
DA:486,0
DA:487,0
DA:490,0
DA:491,0
DA:493,0
DA:494,0
DA:495,0
DA:496,0
DA:497,0
DA:498,0
DA:499,0
DA:500,0
DA:501,0
DA:502,0
DA:503,0
DA:506,0
DA:507,0
DA:508,0
DA:509,0
DA:510,0
DA:511,0
DA:512,0
DA:513,0
DA:514,0
DA:517,0
DA:518,0
DA:519,0
DA:520,0
DA:521,0
DA:522,0
DA:523,0
DA:524,0
DA:525,0
DA:528,0
DA:529,0
DA:530,0
DA:531,0
DA:532,0
DA:533,0
DA:534,0
DA:535,0
DA:536,0
DA:537,0
DA:538,0
DA:539,0
DA:540,0
DA:541,0
DA:542,0
DA:543,0
DA:553,0
DA:554,0
DA:555,0
DA:558,0
DA:559,0
DA:560,0
DA:563,0
DA:564,0
DA:565,0
DA:567,0
DA:568,0
DA:569,0
DA:570,0
DA:571,0
DA:573,0
DA:577,0
DA:578,0
DA:579,0
DA:580,0
DA:581,0
DA:582,0
DA:583,0
DA:584,0
DA:585,0
DA:586,0
DA:588,0
DA:589,0
DA:591,0
DA:592,0
DA:593,0
DA:594,0
DA:595,0
DA:596,0
DA:597,0
DA:599,0
DA:600,0
DA:601,0
DA:602,0
DA:604,0
DA:605,0
DA:607,0
DA:608,0
DA:609,0
DA:610,0
DA:611,0
DA:612,0
DA:613,0
DA:614,0
DA:615,0
DA:616,0
DA:618,0
DA:620,0
DA:621,0
BRF:0
BRH:0
LF:348
LH:0
end_of_record
SF:/home/eastgate/Development/ecoPrimals/nestgate/code/crates/nestgate-core/src/consensus_math.rs
FN:38,_RNvNtCs2meEIT43k6D_13nestgate_core14consensus_math21is_consensus_achieved
FN:45,_RNvNtCs2meEIT43k6D_13nestgate_core14consensus_math26calculate_consensus_expiry
FN:16,_RNvNtCs2meEIT43k6D_13nestgate_core14consensus_math28calculate_required_consensus
FN:27,_RNvNtCs2meEIT43k6D_13nestgate_core14consensus_math30calculate_consensus_percentage
FNDA:0,_RNvNtCs2meEIT43k6D_13nestgate_core14consensus_math21is_consensus_achieved
FNDA:0,_RNvNtCs2meEIT43k6D_13nestgate_core14consensus_math26calculate_consensus_expiry
FNDA:0,_RNvNtCs2meEIT43k6D_13nestgate_core14consensus_math28calculate_required_consensus
FNDA:0,_RNvNtCs2meEIT43k6D_13nestgate_core14consensus_math30calculate_consensus_percentage
FNF:4
FNH:0
DA:16,0
DA:17,0
DA:18,0
DA:19,0
DA:20,0
DA:21,0
DA:27,0
DA:28,0
DA:29,0
DA:31,0
DA:33,0
DA:38,0
DA:39,0
DA:40,0
DA:45,0
DA:46,0
DA:48,0
DA:49,0
DA:50,0
DA:51,0
DA:52,0
DA:55,0
DA:56,0
DA:57,0
DA:58,0
DA:59,0
DA:60,0
DA:61,0
DA:63,0
BRF:0
BRH:0
LF:29
LH:0
end_of_record
SF:/home/eastgate/Development/ecoPrimals/nestgate/code/crates/nestgate-core/src/constants/canonical.rs
FN:422,_RNvMNtNtCs2meEIT43k6D_13nestgate_core9constants9canonicalNtB2_18CanonicalConstants11performance
FN:457,_RNvMNtNtCs2meEIT43k6D_13nestgate_core9constants9canonicalNtB2_18CanonicalConstants3api
FN:464,_RNvMNtNtCs2meEIT43k6D_13nestgate_core9constants9canonicalNtB2_18CanonicalConstants6system
FN:436,_RNvMNtNtCs2meEIT43k6D_13nestgate_core9constants9canonicalNtB2_18CanonicalConstants7network
FN:443,_RNvMNtNtCs2meEIT43k6D_13nestgate_core9constants9canonicalNtB2_18CanonicalConstants7storage
FN:450,_RNvMNtNtCs2meEIT43k6D_13nestgate_core9constants9canonicalNtB2_18CanonicalConstants8security
FN:429,_RNvMNtNtCs2meEIT43k6D_13nestgate_core9constants9canonicalNtB2_18CanonicalConstants8timeouts
FNDA:0,_RNvMNtNtCs2meEIT43k6D_13nestgate_core9constants9canonicalNtB2_18CanonicalConstants11performance
FNDA:0,_RNvMNtNtCs2meEIT43k6D_13nestgate_core9constants9canonicalNtB2_18CanonicalConstants3api
FNDA:0,_RNvMNtNtCs2meEIT43k6D_13nestgate_core9constants9canonicalNtB2_18CanonicalConstants6system
FNDA:0,_RNvMNtNtCs2meEIT43k6D_13nestgate_core9constants9canonicalNtB2_18CanonicalConstants7network
FNDA:0,_RNvMNtNtCs2meEIT43k6D_13nestgate_core9constants9canonicalNtB2_18CanonicalConstants7storage
FNDA:0,_RNvMNtNtCs2meEIT43k6D_13nestgate_core9constants9canonicalNtB2_18CanonicalConstants8security
FNDA:0,_RNvMNtNtCs2meEIT43k6D_13nestgate_core9constants9canonicalNtB2_18CanonicalConstants8timeouts
FNF:7
FNH:0
DA:422,0
DA:423,0
DA:424,0
DA:429,0
DA:430,0
DA:431,0
DA:436,0
DA:437,0
DA:438,0
DA:443,0
DA:444,0
DA:445,0
DA:450,0
DA:451,0
DA:452,0
DA:457,0
DA:458,0
DA:459,0
DA:464,0
DA:465,0
DA:466,0
BRF:0
BRH:0
LF:21
LH:0
end_of_record
SF:/home/eastgate/Development/ecoPrimals/nestgate/code/crates/nestgate-core/src/constants/canonical_defaults.rs
FN:93,_RNvNtNtNtCs2meEIT43k6D_13nestgate_core9constants18canonical_defaults7network13build_api_url
FN:117,_RNvNtNtNtCs2meEIT43k6D_13nestgate_core9constants18canonical_defaults7network14build_endpoint
FN:105,_RNvNtNtNtCs2meEIT43k6D_13nestgate_core9constants18canonical_defaults7network17build_metrics_url
FN:49,_RNvNtNtNtCs2meEIT43k6D_13nestgate_core9constants18canonical_defaults7network18default_web_ui_url
FN:99,_RNvNtNtNtCs2meEIT43k6D_13nestgate_core9constants18canonical_defaults7network19build_websocket_url
FN:39,_RNvNtNtNtCs2meEIT43k6D_13nestgate_core9constants18canonical_defaults7network19default_metrics_url
FN:15,_RNvNtNtNtCs2meEIT43k6D_13nestgate_core9constants18canonical_defaults7network20default_api_base_url
FN:27,_RNvNtNtNtCs2meEIT43k6D_13nestgate_core9constants18canonical_defaults7network21default_websocket_url
FNDA:0,_RNvNtNtNtCs2meEIT43k6D_13nestgate_core9constants18canonical_defaults7network13build_api_url
FNDA:0,_RNvNtNtNtCs2meEIT43k6D_13nestgate_core9constants18canonical_defaults7network14build_endpoint
FNDA:0,_RNvNtNtNtCs2meEIT43k6D_13nestgate_core9constants18canonical_defaults7network17build_metrics_url
FNDA:0,_RNvNtNtNtCs2meEIT43k6D_13nestgate_core9constants18canonical_defaults7network18default_web_ui_url
FNDA:0,_RNvNtNtNtCs2meEIT43k6D_13nestgate_core9constants18canonical_defaults7network19build_websocket_url
FNDA:0,_RNvNtNtNtCs2meEIT43k6D_13nestgate_core9constants18canonical_defaults7network19default_metrics_url
FNDA:0,_RNvNtNtNtCs2meEIT43k6D_13nestgate_core9constants18canonical_defaults7network20default_api_base_url
FNDA:0,_RNvNtNtNtCs2meEIT43k6D_13nestgate_core9constants18canonical_defaults7network21default_websocket_url
FNF:8
FNH:0
DA:15,0
DA:16,0
DA:17,0
DA:18,0
DA:27,0
DA:28,0
DA:29,0
DA:30,0
DA:39,0
DA:40,0
DA:41,0
DA:42,0
DA:49,0
DA:50,0
DA:51,0
DA:52,0
DA:93,0
DA:94,0
DA:95,0
DA:99,0
DA:100,0
DA:101,0
DA:105,0
DA:106,0
DA:107,0
DA:117,0
DA:119,0
DA:120,0
BRF:0
BRH:0
LF:28
LH:0
end_of_record
SF:/home/eastgate/Development/ecoPrimals/nestgate/code/crates/nestgate-core/src/constants/capability_discovery.rs
FN:85,_RNCNvMNtNtCs2meEIT43k6D_13nestgate_core9constants20capability_discoveryNtB4_16NetworkDiscovery13discover_host0B8_
FN:108,_RNCNvMNtNtCs2meEIT43k6D_13nestgate_core9constants20capability_discoveryNtB4_16NetworkDiscovery13discover_port0B8_
FN:54,_RNCNvMNtNtCs2meEIT43k6D_13nestgate_core9constants20capability_discoveryNtB4_16NetworkDiscovery17discover_endpoint0B8_
FN:32,_RNCNvMNtNtCs2meEIT43k6D_13nestgate_core9constants20capability_discoveryNtB4_16NetworkDiscovery3new0B8_
FN:148,_RNCNvNtNtCs2meEIT43k6D_13nestgate_core9constants20capability_discovery12get_api_port0B7_
FN:140,_RNCNvNtNtCs2meEIT43k6D_13nestgate_core9constants20capability_discovery16get_api_endpoint0B7_
FN:161,_RNCNvNtNtCs2meEIT43k6D_13nestgate_core9constants20capability_discovery19get_health_endpoint0B7_
FN:153,_RNCNvNtNtCs2meEIT43k6D_13nestgate_core9constants20capability_discovery20get_metrics_endpoint0B7_
FN:85,_RNvMNtNtCs2meEIT43k6D_13nestgate_core9constants20capability_discoveryNtB2_16NetworkDiscovery13discover_host
FN:108,_RNvMNtNtCs2meEIT43k6D_13nestgate_core9constants20capability_discoveryNtB2_16NetworkDiscovery13discover_port
FN:54,_RNvMNtNtCs2meEIT43k6D_13nestgate_core9constants20capability_discoveryNtB2_16NetworkDiscovery17discover_endpoint
FN:32,_RNvMNtNtCs2meEIT43k6D_13nestgate_core9constants20capability_discoveryNtB2_16NetworkDiscovery3new
FN:148,_RNvNtNtCs2meEIT43k6D_13nestgate_core9constants20capability_discovery12get_api_port
FN:140,_RNvNtNtCs2meEIT43k6D_13nestgate_core9constants20capability_discovery16get_api_endpoint
FN:161,_RNvNtNtCs2meEIT43k6D_13nestgate_core9constants20capability_discovery19get_health_endpoint
FN:153,_RNvNtNtCs2meEIT43k6D_13nestgate_core9constants20capability_discovery20get_metrics_endpoint
FNDA:0,_RNCNvMNtNtCs2meEIT43k6D_13nestgate_core9constants20capability_discoveryNtB4_16NetworkDiscovery13discover_host0B8_
FNDA:0,_RNCNvMNtNtCs2meEIT43k6D_13nestgate_core9constants20capability_discoveryNtB4_16NetworkDiscovery13discover_port0B8_
FNDA:0,_RNCNvMNtNtCs2meEIT43k6D_13nestgate_core9constants20capability_discoveryNtB4_16NetworkDiscovery17discover_endpoint0B8_
FNDA:0,_RNCNvMNtNtCs2meEIT43k6D_13nestgate_core9constants20capability_discoveryNtB4_16NetworkDiscovery3new0B8_
FNDA:0,_RNCNvNtNtCs2meEIT43k6D_13nestgate_core9constants20capability_discovery12get_api_port0B7_
FNDA:0,_RNCNvNtNtCs2meEIT43k6D_13nestgate_core9constants20capability_discovery16get_api_endpoint0B7_
FNDA:0,_RNCNvNtNtCs2meEIT43k6D_13nestgate_core9constants20capability_discovery19get_health_endpoint0B7_
FNDA:0,_RNCNvNtNtCs2meEIT43k6D_13nestgate_core9constants20capability_discovery20get_metrics_endpoint0B7_
FNDA:0,_RNvMNtNtCs2meEIT43k6D_13nestgate_core9constants20capability_discoveryNtB2_16NetworkDiscovery13discover_host
FNDA:0,_RNvMNtNtCs2meEIT43k6D_13nestgate_core9constants20capability_discoveryNtB2_16NetworkDiscovery13discover_port
FNDA:0,_RNvMNtNtCs2meEIT43k6D_13nestgate_core9constants20capability_discoveryNtB2_16NetworkDiscovery17discover_endpoint
FNDA:0,_RNvMNtNtCs2meEIT43k6D_13nestgate_core9constants20capability_discoveryNtB2_16NetworkDiscovery3new
FNDA:0,_RNvNtNtCs2meEIT43k6D_13nestgate_core9constants20capability_discovery12get_api_port
FNDA:0,_RNvNtNtCs2meEIT43k6D_13nestgate_core9constants20capability_discovery16get_api_endpoint
FNDA:0,_RNvNtNtCs2meEIT43k6D_13nestgate_core9constants20capability_discovery19get_health_endpoint
FNDA:0,_RNvNtNtCs2meEIT43k6D_13nestgate_core9constants20capability_discovery20get_metrics_endpoint
FNF:16
FNH:0
DA:32,0
DA:33,0
DA:34,0
DA:35,0
DA:54,0
DA:56,0
DA:57,0
DA:58,0
DA:59,0
DA:63,0
DA:65,0
DA:66,0
DA:71,0
DA:72,0
DA:73,0
DA:74,0
DA:75,0
DA:78,0
DA:79,0
DA:80,0
DA:81,0
DA:82,0
DA:85,0
DA:86,0
DA:89,0
DA:90,0
DA:91,0
DA:92,0
DA:93,0
DA:95,0
DA:96,0
DA:97,0
DA:98,0
DA:99,0
DA:101,0
DA:102,0
DA:103,0
DA:104,0
DA:105,0
DA:108,0
DA:109,0
DA:112,0
DA:113,0
DA:114,0
DA:115,0
DA:116,0
DA:118,0
DA:119,0
DA:120,0
DA:121,0
DA:122,0
DA:140,0
DA:141,0
DA:142,0
DA:143,0
DA:144,0
DA:145,0
DA:148,0
DA:149,0
DA:150,0
DA:153,0
DA:154,0
DA:155,0
DA:156,0
DA:157,0
DA:158,0
DA:161,0
DA:162,0
DA:163,0
DA:164,0
DA:165,0
DA:166,0
BRF:0
BRH:0
LF:80
LH:0
end_of_record
SF:/home/eastgate/Development/ecoPrimals/nestgate/code/crates/nestgate-core/src/constants/consolidated.rs
FN:627,_RNCNvNtNtCs2meEIT43k6D_13nestgate_core9constants12consolidated6env_or0B7_
FN:309,_RNvMs1_NtNtCs2meEIT43k6D_13nestgate_core9constants12consolidatedNtB5_16StorageConstants10redis_host
FN:313,_RNvMs1_NtNtCs2meEIT43k6D_13nestgate_core9constants12consolidatedNtB5_16StorageConstants10redis_port
FN:299,_RNvMs1_NtNtCs2meEIT43k6D_13nestgate_core9constants12consolidatedNtB5_16StorageConstants12postgres_url
FN:283,_RNvMs1_NtNtCs2meEIT43k6D_13nestgate_core9constants12consolidatedNtB5_16StorageConstants13postgres_host
FN:287,_RNvMs1_NtNtCs2meEIT43k6D_13nestgate_core9constants12consolidatedNtB5_16StorageConstants13postgres_port
FN:328,_RNvMs1_NtNtCs2meEIT43k6D_13nestgate_core9constants12consolidatedNtB5_16StorageConstants13zfs_pool_name
FN:336,_RNvMs1_NtNtCs2meEIT43k6D_13nestgate_core9constants12consolidatedNtB5_16StorageConstants15zfs_compression
FN:291,_RNvMs1_NtNtCs2meEIT43k6D_13nestgate_core9constants12consolidatedNtB5_16StorageConstants17postgres_database
FN:332,_RNvMs1_NtNtCs2meEIT43k6D_13nestgate_core9constants12consolidatedNtB5_16StorageConstants18zfs_dataset_prefix
FN:317,_RNvMs1_NtNtCs2meEIT43k6D_13nestgate_core9constants12consolidatedNtB5_16StorageConstants21redis_max_connections
FN:295,_RNvMs1_NtNtCs2meEIT43k6D_13nestgate_core9constants12consolidatedNtB5_16StorageConstants24postgres_max_connections
FN:275,_RNvMs1_NtNtCs2meEIT43k6D_13nestgate_core9constants12consolidatedNtB5_16StorageConstants3get
FN:355,_RNvMs1_NtNtCs2meEIT43k6D_13nestgate_core9constants12consolidatedNtB5_16StorageConstants7log_dir
FN:347,_RNvMs1_NtNtCs2meEIT43k6D_13nestgate_core9constants12consolidatedNtB5_16StorageConstants8data_dir
FN:351,_RNvMs1_NtNtCs2meEIT43k6D_13nestgate_core9constants12consolidatedNtB5_16StorageConstants9cache_dir
FN:321,_RNvMs1_NtNtCs2meEIT43k6D_13nestgate_core9constants12consolidatedNtB5_16StorageConstants9redis_url
FN:340,_RNvMs1_NtNtCs2meEIT43k6D_13nestgate_core9constants12consolidatedNtB5_16StorageConstants9zfs_dedup
FN:468,_RNvMs3_NtNtCs2meEIT43k6D_13nestgate_core9constants12consolidatedNtB5_20PerformanceConstants11retry_delay
FN:453,_RNvMs3_NtNtCs2meEIT43k6D_13nestgate_core9constants12consolidatedNtB5_20PerformanceConstants12idle_timeout
FN:494,_RNvMs3_NtNtCs2meEIT43k6D_13nestgate_core9constants12consolidatedNtB5_20PerformanceConstants14worker_threads
FN:434,_RNvMs3_NtNtCs2meEIT43k6D_13nestgate_core9constants12consolidatedNtB5_20PerformanceConstants15max_connections
FN:449,_RNvMs3_NtNtCs2meEIT43k6D_13nestgate_core9constants12consolidatedNtB5_20PerformanceConstants15request_timeout
FN:483,_RNvMs3_NtNtCs2meEIT43k6D_13nestgate_core9constants12consolidatedNtB5_20PerformanceConstants16disk_buffer_size
FN:487,_RNvMs3_NtNtCs2meEIT43k6D_13nestgate_core9constants12consolidatedNtB5_20PerformanceConstants16memory_pool_size
FN:498,_RNvMs3_NtNtCs2meEIT43k6D_13nestgate_core9constants12consolidatedNtB5_20PerformanceConstants17async_tasks_limit
FN:445,_RNvMs3_NtNtCs2meEIT43k6D_13nestgate_core9constants12consolidatedNtB5_20PerformanceConstants18connection_timeout
FN:457,_RNvMs3_NtNtCs2meEIT43k6D_13nestgate_core9constants12consolidatedNtB5_20PerformanceConstants18keepalive_interval
FN:464,_RNvMs3_NtNtCs2meEIT43k6D_13nestgate_core9constants12consolidatedNtB5_20PerformanceConstants18max_retry_attempts
FN:479,_RNvMs3_NtNtCs2meEIT43k6D_13nestgate_core9constants12consolidatedNtB5_20PerformanceConstants19network_buffer_size
FN:438,_RNvMs3_NtNtCs2meEIT43k6D_13nestgate_core9constants12consolidatedNtB5_20PerformanceConstants20connection_pool_size
FN:472,_RNvMs3_NtNtCs2meEIT43k6D_13nestgate_core9constants12consolidatedNtB5_20PerformanceConstants24retry_backoff_multiplier
FN:426,_RNvMs3_NtNtCs2meEIT43k6D_13nestgate_core9constants12consolidatedNtB5_20PerformanceConstants3get
FN:567,_RNvMs5_NtNtCs2meEIT43k6D_13nestgate_core9constants12consolidatedNtB5_17SecurityConstants10jwt_secret
FN:605,_RNvMs5_NtNtCs2meEIT43k6D_13nestgate_core9constants12consolidatedNtB5_17SecurityConstants11tls_ca_path
FN:593,_RNvMs5_NtNtCs2meEIT43k6D_13nestgate_core9constants12consolidatedNtB5_17SecurityConstants11tls_enabled
FN:601,_RNvMs5_NtNtCs2meEIT43k6D_13nestgate_core9constants12consolidatedNtB5_17SecurityConstants12tls_key_path
FN:586,_RNvMs5_NtNtCs2meEIT43k6D_13nestgate_core9constants12consolidatedNtB5_17SecurityConstants13key_size_bits
FN:597,_RNvMs5_NtNtCs2meEIT43k6D_13nestgate_core9constants12consolidatedNtB5_17SecurityConstants13tls_cert_path
FN:571,_RNvMs5_NtNtCs2meEIT43k6D_13nestgate_core9constants12consolidatedNtB5_17SecurityConstants14jwt_expiration
FN:582,_RNvMs5_NtNtCs2meEIT43k6D_13nestgate_core9constants12consolidatedNtB5_17SecurityConstants20encryption_algorithm
FN:616,_RNvMs5_NtNtCs2meEIT43k6D_13nestgate_core9constants12consolidatedNtB5_17SecurityConstants21rate_limit_burst_size
FN:575,_RNvMs5_NtNtCs2meEIT43k6D_13nestgate_core9constants12consolidatedNtB5_17SecurityConstants22jwt_refresh_expiration
FN:612,_RNvMs5_NtNtCs2meEIT43k6D_13nestgate_core9constants12consolidatedNtB5_17SecurityConstants30rate_limit_requests_per_minute
FN:559,_RNvMs5_NtNtCs2meEIT43k6D_13nestgate_core9constants12consolidatedNtB5_17SecurityConstants3get
FN:119,_RNvMs_NtNtCs2meEIT43k6D_13nestgate_core9constants12consolidatedNtB4_16NetworkConstants10admin_host
FN:158,_RNvMs_NtNtCs2meEIT43k6D_13nestgate_core9constants12consolidatedNtB4_16NetworkConstants10admin_port
FN:198,_RNvMs_NtNtCs2meEIT43k6D_13nestgate_core9constants12consolidatedNtB4_16NetworkConstants10health_url
FN:134,_RNvMs_NtNtCs2meEIT43k6D_13nestgate_core9constants12consolidatedNtB4_16NetworkConstants10https_port
FN:115,_RNvMs_NtNtCs2meEIT43k6D_13nestgate_core9constants12consolidatedNtB4_16NetworkConstants11health_host
FN:154,_RNvMs_NtNtCs2meEIT43k6D_13nestgate_core9constants12consolidatedNtB4_16NetworkConstants11health_port
FN:203,_RNvMs_NtNtCs2meEIT43k6D_13nestgate_core9constants12consolidatedNtB4_16NetworkConstants11metrics_url
FN:165,_RNvMs_NtNtCs2meEIT43k6D_13nestgate_core9constants12consolidatedNtB4_16NetworkConstants12bind_address
FN:111,_RNvMs_NtNtCs2meEIT43k6D_13nestgate_core9constants12consolidatedNtB4_16NetworkConstants12metrics_host
FN:146,_RNvMs_NtNtCs2meEIT43k6D_13nestgate_core9constants12consolidatedNtB4_16NetworkConstants12metrics_port
FN:177,_RNvMs_NtNtCs2meEIT43k6D_13nestgate_core9constants12consolidatedNtB4_16NetworkConstants13bind_all_ipv4
FN:181,_RNvMs_NtNtCs2meEIT43k6D_13nestgate_core9constants12consolidatedNtB4_16NetworkConstants13bind_all_ipv6
FN:208,_RNvMs_NtNtCs2meEIT43k6D_13nestgate_core9constants12consolidatedNtB4_16NetworkConstants13websocket_url
FN:169,_RNvMs_NtNtCs2meEIT43k6D_13nestgate_core9constants12consolidatedNtB4_16NetworkConstants14localhost_ipv4
FN:173,_RNvMs_NtNtCs2meEIT43k6D_13nestgate_core9constants12consolidatedNtB4_16NetworkConstants14localhost_ipv6
FN:138,_RNvMs_NtNtCs2meEIT43k6D_13nestgate_core9constants12consolidatedNtB4_16NetworkConstants14websocket_port
FN:150,_RNvMs_NtNtCs2meEIT43k6D_13nestgate_core9constants12consolidatedNtB4_16NetworkConstants15prometheus_port
FN:193,_RNvMs_NtNtCs2meEIT43k6D_13nestgate_core9constants12consolidatedNtB4_16NetworkConstants16api_bind_address
FN:99,_RNvMs_NtNtCs2meEIT43k6D_13nestgate_core9constants12consolidatedNtB4_16NetworkConstants3get
FN:188,_RNvMs_NtNtCs2meEIT43k6D_13nestgate_core9constants12consolidatedNtB4_16NetworkConstants7api_url
FN:107,_RNvMs_NtNtCs2meEIT43k6D_13nestgate_core9constants12consolidatedNtB4_16NetworkConstants8api_host
FN:126,_RNvMs_NtNtCs2meEIT43k6D_13nestgate_core9constants12consolidatedNtB4_16NetworkConstants8api_port
FN:142,_RNvMs_NtNtCs2meEIT43k6D_13nestgate_core9constants12consolidatedNtB4_16NetworkConstants9grpc_port
FN:130,_RNvMs_NtNtCs2meEIT43k6D_13nestgate_core9constants12consolidatedNtB4_16NetworkConstants9http_port
FN:643,_RNvNtNtCs2meEIT43k6D_13nestgate_core9constants12consolidated13all_constants
FN:626,_RNvNtNtCs2meEIT43k6D_13nestgate_core9constants12consolidated6env_or
FN:68,_RNvXNtNtCs2meEIT43k6D_13nestgate_core9constants12consolidatedNtB2_16NetworkConstantsNtNtCs5GmCzIpY9Qj_4core7default7Default7default
FN:246,_RNvXs0_NtNtCs2meEIT43k6D_13nestgate_core9constants12consolidatedNtB5_16StorageConstantsNtNtCs5GmCzIpY9Qj_4core7default7Default7default
FN:395,_RNvXs2_NtNtCs2meEIT43k6D_13nestgate_core9constants12consolidatedNtB5_20PerformanceConstantsNtNtCs5GmCzIpY9Qj_4core7default7Default7default
FN:533,_RNvXs4_NtNtCs2meEIT43k6D_13nestgate_core9constants12consolidatedNtB5_17SecurityConstantsNtNtCs5GmCzIpY9Qj_4core7default7Default7default
FN:631,_RINvNtNtCs2meEIT43k6D_13nestgate_core9constants12consolidated12env_or_parsebEB6_
FN:631,_RINvNtNtCs2meEIT43k6D_13nestgate_core9constants12consolidated12env_or_parsefEB6_
FN:631,_RINvNtNtCs2meEIT43k6D_13nestgate_core9constants12consolidated12env_or_parsejEB6_
FN:631,_RINvNtNtCs2meEIT43k6D_13nestgate_core9constants12consolidated12env_or_parsemEB6_
FN:631,_RINvNtNtCs2meEIT43k6D_13nestgate_core9constants12consolidated12env_or_parsetEB6_
FN:631,_RINvNtNtCs2meEIT43k6D_13nestgate_core9constants12consolidated12env_or_parseyEB6_
FN:634,_RNCINvNtNtCs2meEIT43k6D_13nestgate_core9constants12consolidated12env_or_parsebE0B8_
FN:634,_RNCINvNtNtCs2meEIT43k6D_13nestgate_core9constants12consolidated12env_or_parsefE0B8_
FN:634,_RNCINvNtNtCs2meEIT43k6D_13nestgate_core9constants12consolidated12env_or_parsejE0B8_
FN:634,_RNCINvNtNtCs2meEIT43k6D_13nestgate_core9constants12consolidated12env_or_parsemE0B8_
FN:634,_RNCINvNtNtCs2meEIT43k6D_13nestgate_core9constants12consolidated12env_or_parsetE0B8_
FN:634,_RNCINvNtNtCs2meEIT43k6D_13nestgate_core9constants12consolidated12env_or_parseyE0B8_
FN:277,_RNCNvMs1_NtNtCs2meEIT43k6D_13nestgate_core9constants12consolidatedNtB7_16StorageConstants3get0Bb_
FN:428,_RNCNvMs3_NtNtCs2meEIT43k6D_13nestgate_core9constants12consolidatedNtB7_20PerformanceConstants3get0Bb_
FN:561,_RNCNvMs5_NtNtCs2meEIT43k6D_13nestgate_core9constants12consolidatedNtB7_17SecurityConstants3get0Bb_
FN:101,_RNCNvMs_NtNtCs2meEIT43k6D_13nestgate_core9constants12consolidatedNtB6_16NetworkConstants3get0Ba_
FNDA:0,_RNCNvNtNtCs2meEIT43k6D_13nestgate_core9constants12consolidated6env_or0B7_
FNDA:0,_RNvMs1_NtNtCs2meEIT43k6D_13nestgate_core9constants12consolidatedNtB5_16StorageConstants10redis_host
FNDA:0,_RNvMs1_NtNtCs2meEIT43k6D_13nestgate_core9constants12consolidatedNtB5_16StorageConstants10redis_port
FNDA:0,_RNvMs1_NtNtCs2meEIT43k6D_13nestgate_core9constants12consolidatedNtB5_16StorageConstants12postgres_url
FNDA:0,_RNvMs1_NtNtCs2meEIT43k6D_13nestgate_core9constants12consolidatedNtB5_16StorageConstants13postgres_host
FNDA:0,_RNvMs1_NtNtCs2meEIT43k6D_13nestgate_core9constants12consolidatedNtB5_16StorageConstants13postgres_port
FNDA:0,_RNvMs1_NtNtCs2meEIT43k6D_13nestgate_core9constants12consolidatedNtB5_16StorageConstants13zfs_pool_name
FNDA:0,_RNvMs1_NtNtCs2meEIT43k6D_13nestgate_core9constants12consolidatedNtB5_16StorageConstants15zfs_compression
FNDA:0,_RNvMs1_NtNtCs2meEIT43k6D_13nestgate_core9constants12consolidatedNtB5_16StorageConstants17postgres_database
FNDA:0,_RNvMs1_NtNtCs2meEIT43k6D_13nestgate_core9constants12consolidatedNtB5_16StorageConstants18zfs_dataset_prefix
FNDA:0,_RNvMs1_NtNtCs2meEIT43k6D_13nestgate_core9constants12consolidatedNtB5_16StorageConstants21redis_max_connections
FNDA:0,_RNvMs1_NtNtCs2meEIT43k6D_13nestgate_core9constants12consolidatedNtB5_16StorageConstants24postgres_max_connections
FNDA:0,_RNvMs1_NtNtCs2meEIT43k6D_13nestgate_core9constants12consolidatedNtB5_16StorageConstants3get
FNDA:0,_RNvMs1_NtNtCs2meEIT43k6D_13nestgate_core9constants12consolidatedNtB5_16StorageConstants7log_dir
FNDA:0,_RNvMs1_NtNtCs2meEIT43k6D_13nestgate_core9constants12consolidatedNtB5_16StorageConstants8data_dir
FNDA:0,_RNvMs1_NtNtCs2meEIT43k6D_13nestgate_core9constants12consolidatedNtB5_16StorageConstants9cache_dir
FNDA:0,_RNvMs1_NtNtCs2meEIT43k6D_13nestgate_core9constants12consolidatedNtB5_16StorageConstants9redis_url
FNDA:0,_RNvMs1_NtNtCs2meEIT43k6D_13nestgate_core9constants12consolidatedNtB5_16StorageConstants9zfs_dedup
FNDA:0,_RNvMs3_NtNtCs2meEIT43k6D_13nestgate_core9constants12consolidatedNtB5_20PerformanceConstants11retry_delay
FNDA:0,_RNvMs3_NtNtCs2meEIT43k6D_13nestgate_core9constants12consolidatedNtB5_20PerformanceConstants12idle_timeout
FNDA:0,_RNvMs3_NtNtCs2meEIT43k6D_13nestgate_core9constants12consolidatedNtB5_20PerformanceConstants14worker_threads
FNDA:0,_RNvMs3_NtNtCs2meEIT43k6D_13nestgate_core9constants12consolidatedNtB5_20PerformanceConstants15max_connections
FNDA:0,_RNvMs3_NtNtCs2meEIT43k6D_13nestgate_core9constants12consolidatedNtB5_20PerformanceConstants15request_timeout
FNDA:0,_RNvMs3_NtNtCs2meEIT43k6D_13nestgate_core9constants12consolidatedNtB5_20PerformanceConstants16disk_buffer_size
FNDA:0,_RNvMs3_NtNtCs2meEIT43k6D_13nestgate_core9constants12consolidatedNtB5_20PerformanceConstants16memory_pool_size
FNDA:0,_RNvMs3_NtNtCs2meEIT43k6D_13nestgate_core9constants12consolidatedNtB5_20PerformanceConstants17async_tasks_limit
FNDA:0,_RNvMs3_NtNtCs2meEIT43k6D_13nestgate_core9constants12consolidatedNtB5_20PerformanceConstants18connection_timeout
FNDA:0,_RNvMs3_NtNtCs2meEIT43k6D_13nestgate_core9constants12consolidatedNtB5_20PerformanceConstants18keepalive_interval
FNDA:0,_RNvMs3_NtNtCs2meEIT43k6D_13nestgate_core9constants12consolidatedNtB5_20PerformanceConstants18max_retry_attempts
FNDA:0,_RNvMs3_NtNtCs2meEIT43k6D_13nestgate_core9constants12consolidatedNtB5_20PerformanceConstants19network_buffer_size
FNDA:0,_RNvMs3_NtNtCs2meEIT43k6D_13nestgate_core9constants12consolidatedNtB5_20PerformanceConstants20connection_pool_size
FNDA:0,_RNvMs3_NtNtCs2meEIT43k6D_13nestgate_core9constants12consolidatedNtB5_20PerformanceConstants24retry_backoff_multiplier
FNDA:0,_RNvMs3_NtNtCs2meEIT43k6D_13nestgate_core9constants12consolidatedNtB5_20PerformanceConstants3get
FNDA:0,_RNvMs5_NtNtCs2meEIT43k6D_13nestgate_core9constants12consolidatedNtB5_17SecurityConstants10jwt_secret
FNDA:0,_RNvMs5_NtNtCs2meEIT43k6D_13nestgate_core9constants12consolidatedNtB5_17SecurityConstants11tls_ca_path
FNDA:0,_RNvMs5_NtNtCs2meEIT43k6D_13nestgate_core9constants12consolidatedNtB5_17SecurityConstants11tls_enabled
FNDA:0,_RNvMs5_NtNtCs2meEIT43k6D_13nestgate_core9constants12consolidatedNtB5_17SecurityConstants12tls_key_path
FNDA:0,_RNvMs5_NtNtCs2meEIT43k6D_13nestgate_core9constants12consolidatedNtB5_17SecurityConstants13key_size_bits
FNDA:0,_RNvMs5_NtNtCs2meEIT43k6D_13nestgate_core9constants12consolidatedNtB5_17SecurityConstants13tls_cert_path
FNDA:0,_RNvMs5_NtNtCs2meEIT43k6D_13nestgate_core9constants12consolidatedNtB5_17SecurityConstants14jwt_expiration
FNDA:0,_RNvMs5_NtNtCs2meEIT43k6D_13nestgate_core9constants12consolidatedNtB5_17SecurityConstants20encryption_algorithm
FNDA:0,_RNvMs5_NtNtCs2meEIT43k6D_13nestgate_core9constants12consolidatedNtB5_17SecurityConstants21rate_limit_burst_size
FNDA:0,_RNvMs5_NtNtCs2meEIT43k6D_13nestgate_core9constants12consolidatedNtB5_17SecurityConstants22jwt_refresh_expiration
FNDA:0,_RNvMs5_NtNtCs2meEIT43k6D_13nestgate_core9constants12consolidatedNtB5_17SecurityConstants30rate_limit_requests_per_minute
FNDA:0,_RNvMs5_NtNtCs2meEIT43k6D_13nestgate_core9constants12consolidatedNtB5_17SecurityConstants3get
FNDA:0,_RNvMs_NtNtCs2meEIT43k6D_13nestgate_core9constants12consolidatedNtB4_16NetworkConstants10admin_host
FNDA:0,_RNvMs_NtNtCs2meEIT43k6D_13nestgate_core9constants12consolidatedNtB4_16NetworkConstants10admin_port
FNDA:0,_RNvMs_NtNtCs2meEIT43k6D_13nestgate_core9constants12consolidatedNtB4_16NetworkConstants10health_url
FNDA:0,_RNvMs_NtNtCs2meEIT43k6D_13nestgate_core9constants12consolidatedNtB4_16NetworkConstants10https_port
FNDA:0,_RNvMs_NtNtCs2meEIT43k6D_13nestgate_core9constants12consolidatedNtB4_16NetworkConstants11health_host
FNDA:0,_RNvMs_NtNtCs2meEIT43k6D_13nestgate_core9constants12consolidatedNtB4_16NetworkConstants11health_port
FNDA:0,_RNvMs_NtNtCs2meEIT43k6D_13nestgate_core9constants12consolidatedNtB4_16NetworkConstants11metrics_url
FNDA:0,_RNvMs_NtNtCs2meEIT43k6D_13nestgate_core9constants12consolidatedNtB4_16NetworkConstants12bind_address
FNDA:0,_RNvMs_NtNtCs2meEIT43k6D_13nestgate_core9constants12consolidatedNtB4_16NetworkConstants12metrics_host
FNDA:0,_RNvMs_NtNtCs2meEIT43k6D_13nestgate_core9constants12consolidatedNtB4_16NetworkConstants12metrics_port
FNDA:0,_RNvMs_NtNtCs2meEIT43k6D_13nestgate_core9constants12consolidatedNtB4_16NetworkConstants13bind_all_ipv4
FNDA:0,_RNvMs_NtNtCs2meEIT43k6D_13nestgate_core9constants12consolidatedNtB4_16NetworkConstants13bind_all_ipv6
FNDA:0,_RNvMs_NtNtCs2meEIT43k6D_13nestgate_core9constants12consolidatedNtB4_16NetworkConstants13websocket_url
FNDA:0,_RNvMs_NtNtCs2meEIT43k6D_13nestgate_core9constants12consolidatedNtB4_16NetworkConstants14localhost_ipv4
FNDA:0,_RNvMs_NtNtCs2meEIT43k6D_13nestgate_core9constants12consolidatedNtB4_16NetworkConstants14localhost_ipv6
FNDA:0,_RNvMs_NtNtCs2meEIT43k6D_13nestgate_core9constants12consolidatedNtB4_16NetworkConstants14websocket_port
FNDA:0,_RNvMs_NtNtCs2meEIT43k6D_13nestgate_core9constants12consolidatedNtB4_16NetworkConstants15prometheus_port
FNDA:0,_RNvMs_NtNtCs2meEIT43k6D_13nestgate_core9constants12consolidatedNtB4_16NetworkConstants16api_bind_address
FNDA:0,_RNvMs_NtNtCs2meEIT43k6D_13nestgate_core9constants12consolidatedNtB4_16NetworkConstants3get
FNDA:0,_RNvMs_NtNtCs2meEIT43k6D_13nestgate_core9constants12consolidatedNtB4_16NetworkConstants7api_url
FNDA:0,_RNvMs_NtNtCs2meEIT43k6D_13nestgate_core9constants12consolidatedNtB4_16NetworkConstants8api_host
FNDA:0,_RNvMs_NtNtCs2meEIT43k6D_13nestgate_core9constants12consolidatedNtB4_16NetworkConstants8api_port
FNDA:0,_RNvMs_NtNtCs2meEIT43k6D_13nestgate_core9constants12consolidatedNtB4_16NetworkConstants9grpc_port
FNDA:0,_RNvMs_NtNtCs2meEIT43k6D_13nestgate_core9constants12consolidatedNtB4_16NetworkConstants9http_port
FNDA:0,_RNvNtNtCs2meEIT43k6D_13nestgate_core9constants12consolidated13all_constants
FNDA:0,_RNvNtNtCs2meEIT43k6D_13nestgate_core9constants12consolidated6env_or
FNDA:0,_RNvXNtNtCs2meEIT43k6D_13nestgate_core9constants12consolidatedNtB2_16NetworkConstantsNtNtCs5GmCzIpY9Qj_4core7default7Default7default
FNDA:0,_RNvXs0_NtNtCs2meEIT43k6D_13nestgate_core9constants12consolidatedNtB5_16StorageConstantsNtNtCs5GmCzIpY9Qj_4core7default7Default7default
FNDA:0,_RNvXs2_NtNtCs2meEIT43k6D_13nestgate_core9constants12consolidatedNtB5_20PerformanceConstantsNtNtCs5GmCzIpY9Qj_4core7default7Default7default
FNDA:0,_RNvXs4_NtNtCs2meEIT43k6D_13nestgate_core9constants12consolidatedNtB5_17SecurityConstantsNtNtCs5GmCzIpY9Qj_4core7default7Default7default
FNDA:0,_RINvNtNtCs2meEIT43k6D_13nestgate_core9constants12consolidated12env_or_parsebEB6_
FNDA:0,_RINvNtNtCs2meEIT43k6D_13nestgate_core9constants12consolidated12env_or_parsefEB6_
FNDA:0,_RINvNtNtCs2meEIT43k6D_13nestgate_core9constants12consolidated12env_or_parsejEB6_
FNDA:0,_RINvNtNtCs2meEIT43k6D_13nestgate_core9constants12consolidated12env_or_parsemEB6_
FNDA:0,_RINvNtNtCs2meEIT43k6D_13nestgate_core9constants12consolidated12env_or_parsetEB6_
FNDA:0,_RINvNtNtCs2meEIT43k6D_13nestgate_core9constants12consolidated12env_or_parseyEB6_
FNDA:0,_RNCINvNtNtCs2meEIT43k6D_13nestgate_core9constants12consolidated12env_or_parsebE0B8_
FNDA:0,_RNCINvNtNtCs2meEIT43k6D_13nestgate_core9constants12consolidated12env_or_parsefE0B8_
FNDA:0,_RNCINvNtNtCs2meEIT43k6D_13nestgate_core9constants12consolidated12env_or_parsejE0B8_
FNDA:0,_RNCINvNtNtCs2meEIT43k6D_13nestgate_core9constants12consolidated12env_or_parsemE0B8_
FNDA:0,_RNCINvNtNtCs2meEIT43k6D_13nestgate_core9constants12consolidated12env_or_parsetE0B8_
FNDA:0,_RNCINvNtNtCs2meEIT43k6D_13nestgate_core9constants12consolidated12env_or_parseyE0B8_
FNDA:0,_RNCNvMs1_NtNtCs2meEIT43k6D_13nestgate_core9constants12consolidatedNtB7_16StorageConstants3get0Bb_
FNDA:0,_RNCNvMs3_NtNtCs2meEIT43k6D_13nestgate_core9constants12consolidatedNtB7_20PerformanceConstants3get0Bb_
FNDA:0,_RNCNvMs5_NtNtCs2meEIT43k6D_13nestgate_core9constants12consolidatedNtB7_17SecurityConstants3get0Bb_
FNDA:0,_RNCNvMs_NtNtCs2meEIT43k6D_13nestgate_core9constants12consolidatedNtB6_16NetworkConstants3get0Ba_
FNF:81
FNH:0
DA:68,0
DA:69,0
DA:70,0
DA:71,0
DA:72,0
DA:73,0
DA:74,0
DA:75,0
DA:76,0
DA:77,0
DA:78,0
DA:79,0
DA:80,0
DA:81,0
DA:82,0
DA:83,0
DA:84,0
DA:85,0
DA:86,0
DA:87,0
DA:88,0
DA:89,0
DA:90,0
DA:91,0
DA:92,0
DA:93,0
DA:94,0
DA:99,0
DA:101,0
DA:102,0
DA:107,0
DA:108,0
DA:109,0
DA:111,0
DA:112,0
DA:113,0
DA:115,0
DA:116,0
DA:117,0
DA:119,0
DA:120,0
DA:121,0
DA:126,0
DA:127,0
DA:128,0
DA:130,0
DA:131,0
DA:132,0
DA:134,0
DA:135,0
DA:136,0
DA:138,0
DA:139,0
DA:140,0
DA:142,0
DA:143,0
DA:144,0
DA:146,0
DA:147,0
DA:148,0
DA:150,0
DA:151,0
DA:152,0
DA:154,0
DA:155,0
DA:156,0
DA:158,0
DA:159,0
DA:160,0
DA:165,0
DA:166,0
DA:167,0
DA:169,0
DA:170,0
DA:171,0
DA:173,0
DA:174,0
DA:175,0
DA:177,0
DA:178,0
DA:179,0
DA:181,0
DA:182,0
DA:183,0
DA:188,0
DA:189,0
DA:190,0
DA:193,0
DA:194,0
DA:195,0
DA:198,0
DA:199,0
DA:200,0
DA:203,0
DA:204,0
DA:205,0
DA:208,0
DA:209,0
DA:210,0
DA:246,0
DA:247,0
DA:248,0
DA:249,0
DA:250,0
DA:251,0
DA:252,0
DA:253,0
DA:254,0
DA:255,0
DA:256,0
DA:257,0
DA:258,0
DA:259,0
DA:260,0
DA:261,0
DA:262,0
DA:263,0
DA:264,0
DA:265,0
DA:266,0
DA:267,0
DA:268,0
DA:269,0
DA:270,0
DA:275,0
DA:277,0
DA:278,0
DA:283,0
DA:284,0
DA:285,0
DA:287,0
DA:288,0
DA:289,0
DA:291,0
DA:292,0
DA:293,0
DA:295,0
DA:296,0
DA:297,0
DA:299,0
DA:300,0
DA:301,0
DA:304,0
DA:309,0
DA:310,0
DA:311,0
DA:313,0
DA:314,0
DA:315,0
DA:317,0
DA:318,0
DA:319,0
DA:321,0
DA:322,0
DA:323,0
DA:328,0
DA:329,0
DA:330,0
DA:332,0
DA:333,0
DA:334,0
DA:336,0
DA:337,0
DA:338,0
DA:340,0
DA:341,0
DA:342,0
DA:347,0
DA:348,0
DA:349,0
DA:351,0
DA:352,0
DA:353,0
DA:355,0
DA:356,0
DA:357,0
DA:395,0
DA:396,0
DA:397,0
DA:398,0
DA:399,0
DA:400,0
DA:401,0
DA:402,0
DA:403,0
DA:404,0
DA:405,0
DA:406,0
DA:407,0
DA:408,0
DA:409,0
DA:410,0
DA:411,0
DA:412,0
DA:413,0
DA:414,0
DA:415,0
DA:416,0
DA:417,0
DA:418,0
DA:419,0
DA:420,0
DA:421,0
DA:426,0
DA:428,0
DA:429,0
DA:434,0
DA:435,0
DA:436,0
DA:438,0
DA:439,0
DA:440,0
DA:445,0
DA:446,0
DA:447,0
DA:449,0
DA:450,0
DA:451,0
DA:453,0
DA:454,0
DA:455,0
DA:457,0
DA:458,0
DA:459,0
DA:464,0
DA:465,0
DA:466,0
DA:468,0
DA:469,0
DA:470,0
DA:472,0
DA:473,0
DA:474,0
DA:479,0
DA:480,0
DA:481,0
DA:483,0
DA:484,0
DA:485,0
DA:487,0
DA:488,0
DA:489,0
DA:494,0
DA:495,0
DA:496,0
DA:498,0
DA:499,0
DA:500,0
DA:533,0
DA:534,0
DA:535,0
DA:536,0
DA:537,0
DA:538,0
DA:539,0
DA:540,0
DA:541,0
DA:542,0
DA:543,0
DA:544,0
DA:545,0
DA:546,0
DA:547,0
DA:548,0
DA:549,0
DA:550,0
DA:551,0
DA:552,0
DA:553,0
DA:554,0
DA:559,0
DA:561,0
DA:562,0
DA:567,0
DA:568,0
DA:569,0
DA:571,0
DA:572,0
DA:573,0
DA:575,0
DA:576,0
DA:577,0
DA:582,0
DA:583,0
DA:584,0
DA:586,0
DA:587,0
DA:588,0
DA:593,0
DA:594,0
DA:595,0
DA:597,0
DA:598,0
DA:599,0
DA:601,0
DA:602,0
DA:603,0
DA:605,0
DA:606,0
DA:607,0
DA:612,0
DA:613,0
DA:614,0
DA:616,0
DA:617,0
DA:618,0
DA:626,0
DA:627,0
DA:628,0
DA:631,0
DA:632,0
DA:633,0
DA:634,0
DA:635,0
DA:636,0
DA:643,0
DA:644,0
DA:645,0
DA:646,0
DA:647,0
DA:648,0
DA:649,0
DA:650,0
DA:651,0
DA:652,0
DA:653,0
DA:654,0
DA:655,0
BRF:0
BRH:0
LF:334
LH:0
end_of_record
SF:/home/eastgate/Development/ecoPrimals/nestgate/code/crates/nestgate-core/src/constants/hardcoding.rs
FN:71,_RNCNvNtNtNtCs2meEIT43k6D_13nestgate_core9constants10hardcoding18capability_helpers20discover_api_service0B9_
FN:80,_RNCNvNtNtNtCs2meEIT43k6D_13nestgate_core9constants10hardcoding18capability_helpers24discover_metrics_service0B9_
FN:89,_RNCNvNtNtNtCs2meEIT43k6D_13nestgate_core9constants10hardcoding18capability_helpers24discover_storage_service0B9_
FN:98,_RNCNvNtNtNtCs2meEIT43k6D_13nestgate_core9constants10hardcoding18capability_helpers25discover_security_service0B9_
FN:398,_RNCNvNtNtNtCs2meEIT43k6D_13nestgate_core9constants10hardcoding9discovery14get_timeout_ms0B9_
FN:395,_RNvNtNtNtCs2meEIT43k6D_13nestgate_core9constants10hardcoding9discovery14get_timeout_ms
FN:344,_RNCNCNvNtNtCs2meEIT43k6D_13nestgate_core9constants10hardcoding12get_api_port00B9_
FN:332,_RNCNCNvNtNtCs2meEIT43k6D_13nestgate_core9constants10hardcoding16get_bind_address00B9_
FN:341,_RNCNvNtNtCs2meEIT43k6D_13nestgate_core9constants10hardcoding12get_api_port0B7_
FN:331,_RNCNvNtNtCs2meEIT43k6D_13nestgate_core9constants10hardcoding16get_bind_address0B7_
FN:369,_RNCNvNtNtCs2meEIT43k6D_13nestgate_core9constants10hardcoding15get_health_port0B7_
FN:357,_RNCNvNtNtCs2meEIT43k6D_13nestgate_core9constants10hardcoding16get_metrics_port0B7_
FN:340,_RNvNtNtCs2meEIT43k6D_13nestgate_core9constants10hardcoding12get_api_port
FN:366,_RNvNtNtCs2meEIT43k6D_13nestgate_core9constants10hardcoding15get_health_port
FN:330,_RNvNtNtCs2meEIT43k6D_13nestgate_core9constants10hardcoding16get_bind_address
FN:354,_RNvNtNtCs2meEIT43k6D_13nestgate_core9constants10hardcoding16get_metrics_port
FN:71,_RNvNtNtNtCs2meEIT43k6D_13nestgate_core9constants10hardcoding18capability_helpers20discover_api_service
FN:80,_RNvNtNtNtCs2meEIT43k6D_13nestgate_core9constants10hardcoding18capability_helpers24discover_metrics_service
FN:89,_RNvNtNtNtCs2meEIT43k6D_13nestgate_core9constants10hardcoding18capability_helpers24discover_storage_service
FN:98,_RNvNtNtNtCs2meEIT43k6D_13nestgate_core9constants10hardcoding18capability_helpers25discover_security_service
FNDA:0,_RNCNvNtNtNtCs2meEIT43k6D_13nestgate_core9constants10hardcoding18capability_helpers20discover_api_service0B9_
FNDA:0,_RNCNvNtNtNtCs2meEIT43k6D_13nestgate_core9constants10hardcoding18capability_helpers24discover_metrics_service0B9_
FNDA:0,_RNCNvNtNtNtCs2meEIT43k6D_13nestgate_core9constants10hardcoding18capability_helpers24discover_storage_service0B9_
FNDA:0,_RNCNvNtNtNtCs2meEIT43k6D_13nestgate_core9constants10hardcoding18capability_helpers25discover_security_service0B9_
FNDA:0,_RNCNvNtNtNtCs2meEIT43k6D_13nestgate_core9constants10hardcoding9discovery14get_timeout_ms0B9_
FNDA:0,_RNvNtNtNtCs2meEIT43k6D_13nestgate_core9constants10hardcoding9discovery14get_timeout_ms
FNDA:0,_RNCNCNvNtNtCs2meEIT43k6D_13nestgate_core9constants10hardcoding12get_api_port00B9_
FNDA:0,_RNCNCNvNtNtCs2meEIT43k6D_13nestgate_core9constants10hardcoding16get_bind_address00B9_
FNDA:0,_RNCNvNtNtCs2meEIT43k6D_13nestgate_core9constants10hardcoding12get_api_port0B7_
FNDA:0,_RNCNvNtNtCs2meEIT43k6D_13nestgate_core9constants10hardcoding16get_bind_address0B7_
FNDA:0,_RNCNvNtNtCs2meEIT43k6D_13nestgate_core9constants10hardcoding15get_health_port0B7_
FNDA:0,_RNCNvNtNtCs2meEIT43k6D_13nestgate_core9constants10hardcoding16get_metrics_port0B7_
FNDA:0,_RNvNtNtCs2meEIT43k6D_13nestgate_core9constants10hardcoding12get_api_port
FNDA:0,_RNvNtNtCs2meEIT43k6D_13nestgate_core9constants10hardcoding15get_health_port
FNDA:0,_RNvNtNtCs2meEIT43k6D_13nestgate_core9constants10hardcoding16get_bind_address
FNDA:0,_RNvNtNtCs2meEIT43k6D_13nestgate_core9constants10hardcoding16get_metrics_port
FNDA:0,_RNvNtNtNtCs2meEIT43k6D_13nestgate_core9constants10hardcoding18capability_helpers20discover_api_service
FNDA:0,_RNvNtNtNtCs2meEIT43k6D_13nestgate_core9constants10hardcoding18capability_helpers24discover_metrics_service
FNDA:0,_RNvNtNtNtCs2meEIT43k6D_13nestgate_core9constants10hardcoding18capability_helpers24discover_storage_service
FNDA:0,_RNvNtNtNtCs2meEIT43k6D_13nestgate_core9constants10hardcoding18capability_helpers25discover_security_service
FNF:20
FNH:0
DA:71,0
DA:72,0
DA:73,0
DA:74,0
DA:75,0
DA:76,0
DA:77,0
DA:80,0
DA:81,0
DA:82,0
DA:83,0
DA:84,0
DA:85,0
DA:86,0
DA:89,0
DA:90,0
DA:91,0
DA:92,0
DA:93,0
DA:94,0
DA:95,0
DA:98,0
DA:99,0
DA:100,0
DA:101,0
DA:102,0
DA:103,0
DA:104,0
DA:330,0
DA:331,0
DA:332,0
DA:333,0
DA:334,0
DA:340,0
DA:341,0
DA:342,0
DA:343,0
DA:344,0
DA:345,0
DA:346,0
DA:347,0
DA:354,0
DA:355,0
DA:356,0
DA:357,0
DA:358,0
DA:359,0
DA:366,0
DA:367,0
DA:368,0
DA:369,0
DA:370,0
DA:371,0
DA:395,0
DA:396,0
DA:397,0
DA:398,0
DA:399,0
DA:400,0
BRF:0
BRH:0
LF:70
LH:0
end_of_record
SF:/home/eastgate/Development/ecoPrimals/nestgate/code/crates/nestgate-core/src/constants/network_defaults.rs
FN:77,_RNCNvNtNtCs2meEIT43k6D_13nestgate_core9constants16network_defaults11get_db_host0B7_
FN:102,_RNCNvNtNtCs2meEIT43k6D_13nestgate_core9constants16network_defaults13is_production0B7_
FN:89,_RNCNvNtNtCs2meEIT43k6D_13nestgate_core9constants16network_defaults14get_redis_host0B7_
FN:76,_RNvNtNtCs2meEIT43k6D_13nestgate_core9constants16network_defaults11get_db_host
FN:62,_RNvNtNtCs2meEIT43k6D_13nestgate_core9constants16network_defaults12get_api_host
FN:100,_RNvNtNtCs2meEIT43k6D_13nestgate_core9constants16network_defaults13is_production
FN:88,_RNvNtNtCs2meEIT43k6D_13nestgate_core9constants16network_defaults14get_redis_host
FN:114,_RNvNtNtCs2meEIT43k6D_13nestgate_core9constants16network_defaults14is_development
FN:48,_RNvNtNtCs2meEIT43k6D_13nestgate_core9constants16network_defaults16get_bind_address
FNDA:0,_RNCNvNtNtCs2meEIT43k6D_13nestgate_core9constants16network_defaults11get_db_host0B7_
FNDA:0,_RNCNvNtNtCs2meEIT43k6D_13nestgate_core9constants16network_defaults13is_production0B7_
FNDA:0,_RNCNvNtNtCs2meEIT43k6D_13nestgate_core9constants16network_defaults14get_redis_host0B7_
FNDA:0,_RNvNtNtCs2meEIT43k6D_13nestgate_core9constants16network_defaults11get_db_host
FNDA:0,_RNvNtNtCs2meEIT43k6D_13nestgate_core9constants16network_defaults12get_api_host
FNDA:0,_RNvNtNtCs2meEIT43k6D_13nestgate_core9constants16network_defaults13is_production
FNDA:0,_RNvNtNtCs2meEIT43k6D_13nestgate_core9constants16network_defaults14get_redis_host
FNDA:0,_RNvNtNtCs2meEIT43k6D_13nestgate_core9constants16network_defaults14is_development
FNDA:0,_RNvNtNtCs2meEIT43k6D_13nestgate_core9constants16network_defaults16get_bind_address
FNF:9
FNH:0
DA:48,0
DA:51,0
DA:52,0
DA:62,0
DA:65,0
DA:66,0
DA:76,0
DA:77,0
DA:78,0
DA:88,0
DA:89,0
DA:90,0
DA:100,0
DA:101,0
DA:102,0
DA:103,0
DA:104,0
